---
triple:          'arm64-apple-darwin'
binary-path:     '/Users/ohusiev/Projects/personal/rust/skreaver/target/debug/deps/lib_skreaver.dylib'
relocations:
  - { offset: 0x1E, size: 0x8, addend: 0x0, symName: '__ZN4core3ptr488drop_in_place$LT$tokio..runtime..task..core..Stage$LT$core..pin..Pin$LT$alloc..boxed..Box$LT$$LT$pyo3_async_runtimes..tokio..TokioRuntime$u20$as$u20$pyo3_async_runtimes..generic..Runtime$GT$..spawn$LT$pyo3_async_runtimes..generic..future_into_py_with_locals$LT$pyo3_async_runtimes..tokio..TokioRuntime$C$_skreaver..a2a..client..PyA2aClient..send..$u7b$$u7b$closure$u7d$$u7d$$C$_skreaver..a2a..types..PyTask$GT$..$u7b$$u7b$closure$u7d$$u7d$$GT$..$u7b$$u7b$closure$u7d$$u7d$$GT$$GT$$GT$$GT$17h8e9363415734e464E', symObjAddr: 0x0, symBinAddr: 0xA80, symSize: 0x28 }
  - { offset: 0x2BED, size: 0x8, addend: 0x0, symName: '__ZN72_$LT$alloc..boxed..Box$LT$T$C$A$GT$$u20$as$u20$core..ops..drop..Drop$GT$4drop17h0369c2f3108b9113E', symObjAddr: 0x8650, symBinAddr: 0x75B0, symSize: 0x80 }
  - { offset: 0x2D13, size: 0x8, addend: 0x0, symName: '__ZN72_$LT$alloc..boxed..Box$LT$T$C$A$GT$$u20$as$u20$core..ops..drop..Drop$GT$4drop17h120a552859f8255eE', symObjAddr: 0x86D0, symBinAddr: 0x7630, symSize: 0x80 }
  - { offset: 0x2E39, size: 0x8, addend: 0x0, symName: '__ZN72_$LT$alloc..boxed..Box$LT$T$C$A$GT$$u20$as$u20$core..ops..drop..Drop$GT$4drop17h1448f6eae6567878E', symObjAddr: 0x8750, symBinAddr: 0x76B0, symSize: 0x80 }
  - { offset: 0x2F5F, size: 0x8, addend: 0x0, symName: '__ZN72_$LT$alloc..boxed..Box$LT$T$C$A$GT$$u20$as$u20$core..ops..drop..Drop$GT$4drop17h170505cbd07599beE', symObjAddr: 0x87D0, symBinAddr: 0x7730, symSize: 0x80 }
  - { offset: 0x3085, size: 0x8, addend: 0x0, symName: '__ZN72_$LT$alloc..boxed..Box$LT$T$C$A$GT$$u20$as$u20$core..ops..drop..Drop$GT$4drop17h1ac29ef77b83c322E', symObjAddr: 0x8850, symBinAddr: 0x77B0, symSize: 0x80 }
  - { offset: 0x31AB, size: 0x8, addend: 0x0, symName: '__ZN72_$LT$alloc..boxed..Box$LT$T$C$A$GT$$u20$as$u20$core..ops..drop..Drop$GT$4drop17h249adfc2b8fc8810E', symObjAddr: 0x88D0, symBinAddr: 0x7830, symSize: 0x80 }
  - { offset: 0x32D1, size: 0x8, addend: 0x0, symName: '__ZN72_$LT$alloc..boxed..Box$LT$T$C$A$GT$$u20$as$u20$core..ops..drop..Drop$GT$4drop17h32f330a7fd383d36E', symObjAddr: 0x8950, symBinAddr: 0x78B0, symSize: 0x80 }
  - { offset: 0x33F7, size: 0x8, addend: 0x0, symName: '__ZN72_$LT$alloc..boxed..Box$LT$T$C$A$GT$$u20$as$u20$core..ops..drop..Drop$GT$4drop17h3467d94e71e40c9fE', symObjAddr: 0x89D0, symBinAddr: 0x7930, symSize: 0x80 }
  - { offset: 0x351D, size: 0x8, addend: 0x0, symName: '__ZN72_$LT$alloc..boxed..Box$LT$T$C$A$GT$$u20$as$u20$core..ops..drop..Drop$GT$4drop17h3ebaed69ca35eb58E', symObjAddr: 0x8A50, symBinAddr: 0x79B0, symSize: 0x80 }
  - { offset: 0x3643, size: 0x8, addend: 0x0, symName: '__ZN72_$LT$alloc..boxed..Box$LT$T$C$A$GT$$u20$as$u20$core..ops..drop..Drop$GT$4drop17h472e161cba766befE', symObjAddr: 0x8AD0, symBinAddr: 0x7A30, symSize: 0x80 }
  - { offset: 0x3769, size: 0x8, addend: 0x0, symName: '__ZN72_$LT$alloc..boxed..Box$LT$T$C$A$GT$$u20$as$u20$core..ops..drop..Drop$GT$4drop17h5f6667b18c637329E', symObjAddr: 0x8B50, symBinAddr: 0x7AB0, symSize: 0x80 }
  - { offset: 0x388F, size: 0x8, addend: 0x0, symName: '__ZN72_$LT$alloc..boxed..Box$LT$T$C$A$GT$$u20$as$u20$core..ops..drop..Drop$GT$4drop17h6a13affb1b3569aaE', symObjAddr: 0x8BD0, symBinAddr: 0x7B30, symSize: 0x80 }
  - { offset: 0x39B5, size: 0x8, addend: 0x0, symName: '__ZN72_$LT$alloc..boxed..Box$LT$T$C$A$GT$$u20$as$u20$core..ops..drop..Drop$GT$4drop17h8ad1412a6b375adfE', symObjAddr: 0x8C50, symBinAddr: 0x7BB0, symSize: 0x80 }
  - { offset: 0x3ADB, size: 0x8, addend: 0x0, symName: '__ZN72_$LT$alloc..boxed..Box$LT$T$C$A$GT$$u20$as$u20$core..ops..drop..Drop$GT$4drop17h9431e7d6e512b188E', symObjAddr: 0x8CD0, symBinAddr: 0x7C30, symSize: 0x80 }
  - { offset: 0x3C01, size: 0x8, addend: 0x0, symName: '__ZN72_$LT$alloc..boxed..Box$LT$T$C$A$GT$$u20$as$u20$core..ops..drop..Drop$GT$4drop17h99fd7fad93a9d5cfE', symObjAddr: 0x8D50, symBinAddr: 0x7CB0, symSize: 0x80 }
  - { offset: 0x3D27, size: 0x8, addend: 0x0, symName: '__ZN72_$LT$alloc..boxed..Box$LT$T$C$A$GT$$u20$as$u20$core..ops..drop..Drop$GT$4drop17h9a595919e3034b27E', symObjAddr: 0x8DD0, symBinAddr: 0x7D30, symSize: 0x80 }
  - { offset: 0x3E4D, size: 0x8, addend: 0x0, symName: '__ZN72_$LT$alloc..boxed..Box$LT$T$C$A$GT$$u20$as$u20$core..ops..drop..Drop$GT$4drop17haae980ca47f26866E', symObjAddr: 0x8E50, symBinAddr: 0x7DB0, symSize: 0x80 }
  - { offset: 0x3F73, size: 0x8, addend: 0x0, symName: '__ZN72_$LT$alloc..boxed..Box$LT$T$C$A$GT$$u20$as$u20$core..ops..drop..Drop$GT$4drop17hb24c42a874dd0f71E', symObjAddr: 0x8ED0, symBinAddr: 0x7E30, symSize: 0x80 }
  - { offset: 0x4099, size: 0x8, addend: 0x0, symName: '__ZN72_$LT$alloc..boxed..Box$LT$T$C$A$GT$$u20$as$u20$core..ops..drop..Drop$GT$4drop17hb38109ece1d9d096E', symObjAddr: 0x8F50, symBinAddr: 0x7EB0, symSize: 0x80 }
  - { offset: 0x41BF, size: 0x8, addend: 0x0, symName: '__ZN72_$LT$alloc..boxed..Box$LT$T$C$A$GT$$u20$as$u20$core..ops..drop..Drop$GT$4drop17hb60ca242289334f6E', symObjAddr: 0x8FD0, symBinAddr: 0x7F30, symSize: 0x80 }
  - { offset: 0x42E5, size: 0x8, addend: 0x0, symName: '__ZN72_$LT$alloc..boxed..Box$LT$T$C$A$GT$$u20$as$u20$core..ops..drop..Drop$GT$4drop17hb6203f0efc761563E', symObjAddr: 0x9050, symBinAddr: 0x7FB0, symSize: 0x80 }
  - { offset: 0x440B, size: 0x8, addend: 0x0, symName: '__ZN72_$LT$alloc..boxed..Box$LT$T$C$A$GT$$u20$as$u20$core..ops..drop..Drop$GT$4drop17hd2676a779227390bE', symObjAddr: 0x90D0, symBinAddr: 0x8030, symSize: 0x80 }
  - { offset: 0x4531, size: 0x8, addend: 0x0, symName: '__ZN72_$LT$alloc..boxed..Box$LT$T$C$A$GT$$u20$as$u20$core..ops..drop..Drop$GT$4drop17hd53901699f7b1adaE', symObjAddr: 0x9150, symBinAddr: 0x80B0, symSize: 0x80 }
  - { offset: 0x4657, size: 0x8, addend: 0x0, symName: '__ZN72_$LT$alloc..boxed..Box$LT$T$C$A$GT$$u20$as$u20$core..ops..drop..Drop$GT$4drop17hded485dd4c0021c2E', symObjAddr: 0x91D0, symBinAddr: 0x8130, symSize: 0x80 }
  - { offset: 0x477D, size: 0x8, addend: 0x0, symName: '__ZN72_$LT$alloc..boxed..Box$LT$T$C$A$GT$$u20$as$u20$core..ops..drop..Drop$GT$4drop17he3d07ea9ad2f504bE', symObjAddr: 0x9250, symBinAddr: 0x81B0, symSize: 0x80 }
  - { offset: 0x48A3, size: 0x8, addend: 0x0, symName: '__ZN72_$LT$alloc..boxed..Box$LT$T$C$A$GT$$u20$as$u20$core..ops..drop..Drop$GT$4drop17he8e0cd83026af09eE', symObjAddr: 0x92D0, symBinAddr: 0x8230, symSize: 0x80 }
  - { offset: 0x49C9, size: 0x8, addend: 0x0, symName: '__ZN72_$LT$alloc..boxed..Box$LT$T$C$A$GT$$u20$as$u20$core..ops..drop..Drop$GT$4drop17hf01f8d9475d30f3aE', symObjAddr: 0x9350, symBinAddr: 0x82B0, symSize: 0x80 }
  - { offset: 0x4AEF, size: 0x8, addend: 0x0, symName: '__ZN72_$LT$alloc..boxed..Box$LT$T$C$A$GT$$u20$as$u20$core..ops..drop..Drop$GT$4drop17hfec0c4f659efa567E', symObjAddr: 0x93D0, symBinAddr: 0x8330, symSize: 0x80 }
  - { offset: 0x6204, size: 0x8, addend: 0x0, symName: '__ZN4core3ptr488drop_in_place$LT$tokio..runtime..task..core..Stage$LT$core..pin..Pin$LT$alloc..boxed..Box$LT$$LT$pyo3_async_runtimes..tokio..TokioRuntime$u20$as$u20$pyo3_async_runtimes..generic..Runtime$GT$..spawn$LT$pyo3_async_runtimes..generic..future_into_py_with_locals$LT$pyo3_async_runtimes..tokio..TokioRuntime$C$_skreaver..a2a..client..PyA2aClient..send..$u7b$$u7b$closure$u7d$$u7d$$C$_skreaver..a2a..types..PyTask$GT$..$u7b$$u7b$closure$u7d$$u7d$$GT$..$u7b$$u7b$closure$u7d$$u7d$$GT$$GT$$GT$$GT$17h8e9363415734e464E', symObjAddr: 0x0, symBinAddr: 0xA80, symSize: 0x28 }
  - { offset: 0x6240, size: 0x8, addend: 0x0, symName: '__ZN4core3ptr492drop_in_place$LT$tokio..runtime..task..core..Stage$LT$core..pin..Pin$LT$alloc..boxed..Box$LT$$LT$pyo3_async_runtimes..tokio..TokioRuntime$u20$as$u20$pyo3_async_runtimes..generic..Runtime$GT$..spawn$LT$pyo3_async_runtimes..generic..future_into_py_with_locals$LT$pyo3_async_runtimes..tokio..TokioRuntime$C$_skreaver..a2a..client..PyA2aClient..get_task..$u7b$$u7b$closure$u7d$$u7d$$C$_skreaver..a2a..types..PyTask$GT$..$u7b$$u7b$closure$u7d$$u7d$$GT$..$u7b$$u7b$closure$u7d$$u7d$$GT$$GT$$GT$$GT$17h90b3c6423ca64574E', symObjAddr: 0x28, symBinAddr: 0xAA8, symSize: 0x28 }
  - { offset: 0x627C, size: 0x8, addend: 0x0, symName: '__ZN4core3ptr495drop_in_place$LT$tokio..runtime..task..core..Stage$LT$core..pin..Pin$LT$alloc..boxed..Box$LT$$LT$pyo3_async_runtimes..tokio..TokioRuntime$u20$as$u20$pyo3_async_runtimes..generic..Runtime$GT$..spawn$LT$pyo3_async_runtimes..generic..future_into_py_with_locals$LT$pyo3_async_runtimes..tokio..TokioRuntime$C$_skreaver..a2a..client..PyA2aClient..cancel_task..$u7b$$u7b$closure$u7d$$u7d$$C$_skreaver..a2a..types..PyTask$GT$..$u7b$$u7b$closure$u7d$$u7d$$GT$..$u7b$$u7b$closure$u7d$$u7d$$GT$$GT$$GT$$GT$17hd32e4092b268e902E', symObjAddr: 0x50, symBinAddr: 0xAD0, symSize: 0x28 }
  - { offset: 0x62B8, size: 0x8, addend: 0x0, symName: '__ZN4core3ptr496drop_in_place$LT$tokio..runtime..task..core..Stage$LT$core..pin..Pin$LT$alloc..boxed..Box$LT$$LT$pyo3_async_runtimes..tokio..TokioRuntime$u20$as$u20$pyo3_async_runtimes..generic..Runtime$GT$..spawn$LT$pyo3_async_runtimes..generic..future_into_py_with_locals$LT$pyo3_async_runtimes..tokio..TokioRuntime$C$_skreaver..a2a..client..PyA2aClient..send_message..$u7b$$u7b$closure$u7d$$u7d$$C$_skreaver..a2a..types..PyTask$GT$..$u7b$$u7b$closure$u7d$$u7d$$GT$..$u7b$$u7b$closure$u7d$$u7d$$GT$$GT$$GT$$GT$17h79fd3689d7c0c351E', symObjAddr: 0x78, symBinAddr: 0xAF8, symSize: 0x28 }
  - { offset: 0x62F4, size: 0x8, addend: 0x0, symName: '__ZN4core3ptr497drop_in_place$LT$tokio..runtime..task..core..Stage$LT$core..pin..Pin$LT$alloc..boxed..Box$LT$$LT$pyo3_async_runtimes..tokio..TokioRuntime$u20$as$u20$pyo3_async_runtimes..generic..Runtime$GT$..spawn$LT$pyo3_async_runtimes..generic..future_into_py_with_locals$LT$pyo3_async_runtimes..tokio..TokioRuntime$C$_skreaver..a2a..client..PyA2aClient..continue_task..$u7b$$u7b$closure$u7d$$u7d$$C$_skreaver..a2a..types..PyTask$GT$..$u7b$$u7b$closure$u7d$$u7d$$GT$..$u7b$$u7b$closure$u7d$$u7d$$GT$$GT$$GT$$GT$17h199e0907d76a31ecE', symObjAddr: 0xA0, symBinAddr: 0xB20, symSize: 0x28 }
  - { offset: 0x6330, size: 0x8, addend: 0x0, symName: '__ZN4core3ptr497drop_in_place$LT$tokio..runtime..task..core..Stage$LT$core..pin..Pin$LT$alloc..boxed..Box$LT$$LT$pyo3_async_runtimes..tokio..TokioRuntime$u20$as$u20$pyo3_async_runtimes..generic..Runtime$GT$..spawn$LT$pyo3_async_runtimes..generic..future_into_py_with_locals$LT$pyo3_async_runtimes..tokio..TokioRuntime$C$_skreaver..a2a..client..PyA2aClient..wait_for_task..$u7b$$u7b$closure$u7d$$u7d$$C$_skreaver..a2a..types..PyTask$GT$..$u7b$$u7b$closure$u7d$$u7d$$GT$..$u7b$$u7b$closure$u7d$$u7d$$GT$$GT$$GT$$GT$17h4c2702f0edefbeb8E', symObjAddr: 0xC8, symBinAddr: 0xB48, symSize: 0x28 }
  - { offset: 0x636C, size: 0x8, addend: 0x0, symName: '__ZN4core3ptr503drop_in_place$LT$tokio..runtime..task..core..Stage$LT$core..pin..Pin$LT$alloc..boxed..Box$LT$$LT$pyo3_async_runtimes..tokio..TokioRuntime$u20$as$u20$pyo3_async_runtimes..generic..Runtime$GT$..spawn$LT$pyo3_async_runtimes..generic..future_into_py_with_locals$LT$pyo3_async_runtimes..tokio..TokioRuntime$C$_skreaver..a2a..client..PyA2aClient..get_agent_card..$u7b$$u7b$closure$u7d$$u7d$$C$_skreaver..a2a..types..PyAgentCard$GT$..$u7b$$u7b$closure$u7d$$u7d$$GT$..$u7b$$u7b$closure$u7d$$u7d$$GT$$GT$$GT$$GT$17hd468beb550e5b0d9E', symObjAddr: 0xF0, symBinAddr: 0xB70, symSize: 0x28 }
  - { offset: 0x63A8, size: 0x8, addend: 0x0, symName: '__ZN4core3ptr517drop_in_place$LT$tokio..runtime..task..core..Stage$LT$core..pin..Pin$LT$alloc..boxed..Box$LT$$LT$pyo3_async_runtimes..tokio..TokioRuntime$u20$as$u20$pyo3_async_runtimes..generic..Runtime$GT$..spawn$LT$pyo3_async_runtimes..generic..future_into_py_with_locals$LT$pyo3_async_runtimes..tokio..TokioRuntime$C$_skreaver..a2a..client..PyA2aClient..send..$u7b$$u7b$closure$u7d$$u7d$$C$_skreaver..a2a..types..PyTask$GT$..$u7b$$u7b$closure$u7d$$u7d$..$u7b$$u7b$closure$u7d$$u7d$$GT$..$u7b$$u7b$closure$u7d$$u7d$$GT$$GT$$GT$$GT$17h95f37c435c186ff1E', symObjAddr: 0x118, symBinAddr: 0xB98, symSize: 0x28 }
  - { offset: 0x63E4, size: 0x8, addend: 0x0, symName: '__ZN4core3ptr521drop_in_place$LT$tokio..runtime..task..core..Stage$LT$core..pin..Pin$LT$alloc..boxed..Box$LT$$LT$pyo3_async_runtimes..tokio..TokioRuntime$u20$as$u20$pyo3_async_runtimes..generic..Runtime$GT$..spawn$LT$pyo3_async_runtimes..generic..future_into_py_with_locals$LT$pyo3_async_runtimes..tokio..TokioRuntime$C$_skreaver..a2a..client..PyA2aClient..get_task..$u7b$$u7b$closure$u7d$$u7d$$C$_skreaver..a2a..types..PyTask$GT$..$u7b$$u7b$closure$u7d$$u7d$..$u7b$$u7b$closure$u7d$$u7d$$GT$..$u7b$$u7b$closure$u7d$$u7d$$GT$$GT$$GT$$GT$17h48d500de2ff5db28E', symObjAddr: 0x140, symBinAddr: 0xBC0, symSize: 0x28 }
  - { offset: 0x6420, size: 0x8, addend: 0x0, symName: '__ZN4core3ptr524drop_in_place$LT$tokio..runtime..task..core..Stage$LT$core..pin..Pin$LT$alloc..boxed..Box$LT$$LT$pyo3_async_runtimes..tokio..TokioRuntime$u20$as$u20$pyo3_async_runtimes..generic..Runtime$GT$..spawn$LT$pyo3_async_runtimes..generic..future_into_py_with_locals$LT$pyo3_async_runtimes..tokio..TokioRuntime$C$_skreaver..a2a..client..PyA2aClient..cancel_task..$u7b$$u7b$closure$u7d$$u7d$$C$_skreaver..a2a..types..PyTask$GT$..$u7b$$u7b$closure$u7d$$u7d$..$u7b$$u7b$closure$u7d$$u7d$$GT$..$u7b$$u7b$closure$u7d$$u7d$$GT$$GT$$GT$$GT$17h527a513a6cb40953E', symObjAddr: 0x168, symBinAddr: 0xBE8, symSize: 0x28 }
  - { offset: 0x645C, size: 0x8, addend: 0x0, symName: '__ZN4core3ptr525drop_in_place$LT$tokio..runtime..task..core..Stage$LT$core..pin..Pin$LT$alloc..boxed..Box$LT$$LT$pyo3_async_runtimes..tokio..TokioRuntime$u20$as$u20$pyo3_async_runtimes..generic..Runtime$GT$..spawn$LT$pyo3_async_runtimes..generic..future_into_py_with_locals$LT$pyo3_async_runtimes..tokio..TokioRuntime$C$_skreaver..a2a..client..PyA2aClient..send_message..$u7b$$u7b$closure$u7d$$u7d$$C$_skreaver..a2a..types..PyTask$GT$..$u7b$$u7b$closure$u7d$$u7d$..$u7b$$u7b$closure$u7d$$u7d$$GT$..$u7b$$u7b$closure$u7d$$u7d$$GT$$GT$$GT$$GT$17h2cdf89fc503c1f70E', symObjAddr: 0x190, symBinAddr: 0xC10, symSize: 0x28 }
  - { offset: 0x6498, size: 0x8, addend: 0x0, symName: '__ZN4core3ptr526drop_in_place$LT$tokio..runtime..task..core..Stage$LT$core..pin..Pin$LT$alloc..boxed..Box$LT$$LT$pyo3_async_runtimes..tokio..TokioRuntime$u20$as$u20$pyo3_async_runtimes..generic..Runtime$GT$..spawn$LT$pyo3_async_runtimes..generic..future_into_py_with_locals$LT$pyo3_async_runtimes..tokio..TokioRuntime$C$_skreaver..a2a..client..PyA2aClient..continue_task..$u7b$$u7b$closure$u7d$$u7d$$C$_skreaver..a2a..types..PyTask$GT$..$u7b$$u7b$closure$u7d$$u7d$..$u7b$$u7b$closure$u7d$$u7d$$GT$..$u7b$$u7b$closure$u7d$$u7d$$GT$$GT$$GT$$GT$17h02b540bde24f5409E', symObjAddr: 0x1B8, symBinAddr: 0xC38, symSize: 0x28 }
  - { offset: 0x64D4, size: 0x8, addend: 0x0, symName: '__ZN4core3ptr526drop_in_place$LT$tokio..runtime..task..core..Stage$LT$core..pin..Pin$LT$alloc..boxed..Box$LT$$LT$pyo3_async_runtimes..tokio..TokioRuntime$u20$as$u20$pyo3_async_runtimes..generic..Runtime$GT$..spawn$LT$pyo3_async_runtimes..generic..future_into_py_with_locals$LT$pyo3_async_runtimes..tokio..TokioRuntime$C$_skreaver..a2a..client..PyA2aClient..wait_for_task..$u7b$$u7b$closure$u7d$$u7d$$C$_skreaver..a2a..types..PyTask$GT$..$u7b$$u7b$closure$u7d$$u7d$..$u7b$$u7b$closure$u7d$$u7d$$GT$..$u7b$$u7b$closure$u7d$$u7d$$GT$$GT$$GT$$GT$17h6d698262e7352dbaE', symObjAddr: 0x1E0, symBinAddr: 0xC60, symSize: 0x28 }
  - { offset: 0x6510, size: 0x8, addend: 0x0, symName: '__ZN4core3ptr532drop_in_place$LT$tokio..runtime..task..core..Stage$LT$core..pin..Pin$LT$alloc..boxed..Box$LT$$LT$pyo3_async_runtimes..tokio..TokioRuntime$u20$as$u20$pyo3_async_runtimes..generic..Runtime$GT$..spawn$LT$pyo3_async_runtimes..generic..future_into_py_with_locals$LT$pyo3_async_runtimes..tokio..TokioRuntime$C$_skreaver..a2a..client..PyA2aClient..get_agent_card..$u7b$$u7b$closure$u7d$$u7d$$C$_skreaver..a2a..types..PyAgentCard$GT$..$u7b$$u7b$closure$u7d$$u7d$..$u7b$$u7b$closure$u7d$$u7d$$GT$..$u7b$$u7b$closure$u7d$$u7d$$GT$$GT$$GT$$GT$17hed7b097fe8f39394E', symObjAddr: 0x208, symBinAddr: 0xC88, symSize: 0x28 }
  - { offset: 0x654C, size: 0x8, addend: 0x0, symName: '__ZN4core3ptr588drop_in_place$LT$alloc..boxed..Box$LT$tokio..runtime..task..core..Cell$LT$core..pin..Pin$LT$alloc..boxed..Box$LT$$LT$pyo3_async_runtimes..tokio..TokioRuntime$u20$as$u20$pyo3_async_runtimes..generic..Runtime$GT$..spawn$LT$pyo3_async_runtimes..generic..future_into_py_with_locals$LT$pyo3_async_runtimes..tokio..TokioRuntime$C$_skreaver..a2a..client..PyA2aClient..send..$u7b$$u7b$closure$u7d$$u7d$$C$_skreaver..a2a..types..PyTask$GT$..$u7b$$u7b$closure$u7d$$u7d$$GT$..$u7b$$u7b$closure$u7d$$u7d$$GT$$GT$$C$alloc..sync..Arc$LT$tokio..runtime..scheduler..current_thread..Handle$GT$$GT$$GT$$GT$17hb3fb85cb1af3b689E', symObjAddr: 0x230, symBinAddr: 0xCB0, symSize: 0xA0 }
  - { offset: 0x669B, size: 0x8, addend: 0x0, symName: '__ZN4core3ptr592drop_in_place$LT$alloc..boxed..Box$LT$tokio..runtime..task..core..Cell$LT$core..pin..Pin$LT$alloc..boxed..Box$LT$$LT$pyo3_async_runtimes..tokio..TokioRuntime$u20$as$u20$pyo3_async_runtimes..generic..Runtime$GT$..spawn$LT$pyo3_async_runtimes..generic..future_into_py_with_locals$LT$pyo3_async_runtimes..tokio..TokioRuntime$C$_skreaver..a2a..client..PyA2aClient..get_task..$u7b$$u7b$closure$u7d$$u7d$$C$_skreaver..a2a..types..PyTask$GT$..$u7b$$u7b$closure$u7d$$u7d$$GT$..$u7b$$u7b$closure$u7d$$u7d$$GT$$GT$$C$alloc..sync..Arc$LT$tokio..runtime..scheduler..current_thread..Handle$GT$$GT$$GT$$GT$17h55a93eb164f54dcaE', symObjAddr: 0x2D0, symBinAddr: 0xD50, symSize: 0xA0 }
  - { offset: 0x67EA, size: 0x8, addend: 0x0, symName: '__ZN4core3ptr594drop_in_place$LT$alloc..boxed..Box$LT$tokio..runtime..task..core..Cell$LT$core..pin..Pin$LT$alloc..boxed..Box$LT$$LT$pyo3_async_runtimes..tokio..TokioRuntime$u20$as$u20$pyo3_async_runtimes..generic..Runtime$GT$..spawn$LT$pyo3_async_runtimes..generic..future_into_py_with_locals$LT$pyo3_async_runtimes..tokio..TokioRuntime$C$_skreaver..a2a..client..PyA2aClient..send..$u7b$$u7b$closure$u7d$$u7d$$C$_skreaver..a2a..types..PyTask$GT$..$u7b$$u7b$closure$u7d$$u7d$$GT$..$u7b$$u7b$closure$u7d$$u7d$$GT$$GT$$C$alloc..sync..Arc$LT$tokio..runtime..scheduler..multi_thread..handle..Handle$GT$$GT$$GT$$GT$17h8385681026b1ab49E', symObjAddr: 0x370, symBinAddr: 0xDF0, symSize: 0xA0 }
  - { offset: 0x6939, size: 0x8, addend: 0x0, symName: '__ZN4core3ptr595drop_in_place$LT$alloc..boxed..Box$LT$tokio..runtime..task..core..Cell$LT$core..pin..Pin$LT$alloc..boxed..Box$LT$$LT$pyo3_async_runtimes..tokio..TokioRuntime$u20$as$u20$pyo3_async_runtimes..generic..Runtime$GT$..spawn$LT$pyo3_async_runtimes..generic..future_into_py_with_locals$LT$pyo3_async_runtimes..tokio..TokioRuntime$C$_skreaver..a2a..client..PyA2aClient..cancel_task..$u7b$$u7b$closure$u7d$$u7d$$C$_skreaver..a2a..types..PyTask$GT$..$u7b$$u7b$closure$u7d$$u7d$$GT$..$u7b$$u7b$closure$u7d$$u7d$$GT$$GT$$C$alloc..sync..Arc$LT$tokio..runtime..scheduler..current_thread..Handle$GT$$GT$$GT$$GT$17hdf663b1ce652e4dcE', symObjAddr: 0x410, symBinAddr: 0xE90, symSize: 0xA0 }
  - { offset: 0x6A88, size: 0x8, addend: 0x0, symName: '__ZN4core3ptr596drop_in_place$LT$alloc..boxed..Box$LT$tokio..runtime..task..core..Cell$LT$core..pin..Pin$LT$alloc..boxed..Box$LT$$LT$pyo3_async_runtimes..tokio..TokioRuntime$u20$as$u20$pyo3_async_runtimes..generic..Runtime$GT$..spawn$LT$pyo3_async_runtimes..generic..future_into_py_with_locals$LT$pyo3_async_runtimes..tokio..TokioRuntime$C$_skreaver..a2a..client..PyA2aClient..send_message..$u7b$$u7b$closure$u7d$$u7d$$C$_skreaver..a2a..types..PyTask$GT$..$u7b$$u7b$closure$u7d$$u7d$$GT$..$u7b$$u7b$closure$u7d$$u7d$$GT$$GT$$C$alloc..sync..Arc$LT$tokio..runtime..scheduler..current_thread..Handle$GT$$GT$$GT$$GT$17h737bac14b423d504E', symObjAddr: 0x4B0, symBinAddr: 0xF30, symSize: 0xA0 }
  - { offset: 0x6BD7, size: 0x8, addend: 0x0, symName: '__ZN4core3ptr597drop_in_place$LT$alloc..boxed..Box$LT$tokio..runtime..task..core..Cell$LT$core..pin..Pin$LT$alloc..boxed..Box$LT$$LT$pyo3_async_runtimes..tokio..TokioRuntime$u20$as$u20$pyo3_async_runtimes..generic..Runtime$GT$..spawn$LT$pyo3_async_runtimes..generic..future_into_py_with_locals$LT$pyo3_async_runtimes..tokio..TokioRuntime$C$_skreaver..a2a..client..PyA2aClient..continue_task..$u7b$$u7b$closure$u7d$$u7d$$C$_skreaver..a2a..types..PyTask$GT$..$u7b$$u7b$closure$u7d$$u7d$$GT$..$u7b$$u7b$closure$u7d$$u7d$$GT$$GT$$C$alloc..sync..Arc$LT$tokio..runtime..scheduler..current_thread..Handle$GT$$GT$$GT$$GT$17h8ffab592cf7a2cb5E', symObjAddr: 0x550, symBinAddr: 0xFD0, symSize: 0xA0 }
  - { offset: 0x6D26, size: 0x8, addend: 0x0, symName: '__ZN4core3ptr597drop_in_place$LT$alloc..boxed..Box$LT$tokio..runtime..task..core..Cell$LT$core..pin..Pin$LT$alloc..boxed..Box$LT$$LT$pyo3_async_runtimes..tokio..TokioRuntime$u20$as$u20$pyo3_async_runtimes..generic..Runtime$GT$..spawn$LT$pyo3_async_runtimes..generic..future_into_py_with_locals$LT$pyo3_async_runtimes..tokio..TokioRuntime$C$_skreaver..a2a..client..PyA2aClient..wait_for_task..$u7b$$u7b$closure$u7d$$u7d$$C$_skreaver..a2a..types..PyTask$GT$..$u7b$$u7b$closure$u7d$$u7d$$GT$..$u7b$$u7b$closure$u7d$$u7d$$GT$$GT$$C$alloc..sync..Arc$LT$tokio..runtime..scheduler..current_thread..Handle$GT$$GT$$GT$$GT$17h38f2567578284472E', symObjAddr: 0x5F0, symBinAddr: 0x1070, symSize: 0xA0 }
  - { offset: 0x6E75, size: 0x8, addend: 0x0, symName: '__ZN4core3ptr598drop_in_place$LT$alloc..boxed..Box$LT$tokio..runtime..task..core..Cell$LT$core..pin..Pin$LT$alloc..boxed..Box$LT$$LT$pyo3_async_runtimes..tokio..TokioRuntime$u20$as$u20$pyo3_async_runtimes..generic..Runtime$GT$..spawn$LT$pyo3_async_runtimes..generic..future_into_py_with_locals$LT$pyo3_async_runtimes..tokio..TokioRuntime$C$_skreaver..a2a..client..PyA2aClient..get_task..$u7b$$u7b$closure$u7d$$u7d$$C$_skreaver..a2a..types..PyTask$GT$..$u7b$$u7b$closure$u7d$$u7d$$GT$..$u7b$$u7b$closure$u7d$$u7d$$GT$$GT$$C$alloc..sync..Arc$LT$tokio..runtime..scheduler..multi_thread..handle..Handle$GT$$GT$$GT$$GT$17h6ad06cbb2cdb51a6E', symObjAddr: 0x690, symBinAddr: 0x1110, symSize: 0xA0 }
  - { offset: 0x6FC4, size: 0x8, addend: 0x0, symName: '__ZN4core3ptr601drop_in_place$LT$alloc..boxed..Box$LT$tokio..runtime..task..core..Cell$LT$core..pin..Pin$LT$alloc..boxed..Box$LT$$LT$pyo3_async_runtimes..tokio..TokioRuntime$u20$as$u20$pyo3_async_runtimes..generic..Runtime$GT$..spawn$LT$pyo3_async_runtimes..generic..future_into_py_with_locals$LT$pyo3_async_runtimes..tokio..TokioRuntime$C$_skreaver..a2a..client..PyA2aClient..cancel_task..$u7b$$u7b$closure$u7d$$u7d$$C$_skreaver..a2a..types..PyTask$GT$..$u7b$$u7b$closure$u7d$$u7d$$GT$..$u7b$$u7b$closure$u7d$$u7d$$GT$$GT$$C$alloc..sync..Arc$LT$tokio..runtime..scheduler..multi_thread..handle..Handle$GT$$GT$$GT$$GT$17h799679db9e7c49a6E', symObjAddr: 0x730, symBinAddr: 0x11B0, symSize: 0xA0 }
  - { offset: 0x7113, size: 0x8, addend: 0x0, symName: '__ZN4core3ptr602drop_in_place$LT$alloc..boxed..Box$LT$tokio..runtime..task..core..Cell$LT$core..pin..Pin$LT$alloc..boxed..Box$LT$$LT$pyo3_async_runtimes..tokio..TokioRuntime$u20$as$u20$pyo3_async_runtimes..generic..Runtime$GT$..spawn$LT$pyo3_async_runtimes..generic..future_into_py_with_locals$LT$pyo3_async_runtimes..tokio..TokioRuntime$C$_skreaver..a2a..client..PyA2aClient..send_message..$u7b$$u7b$closure$u7d$$u7d$$C$_skreaver..a2a..types..PyTask$GT$..$u7b$$u7b$closure$u7d$$u7d$$GT$..$u7b$$u7b$closure$u7d$$u7d$$GT$$GT$$C$alloc..sync..Arc$LT$tokio..runtime..scheduler..multi_thread..handle..Handle$GT$$GT$$GT$$GT$17h3a635fde98e471c4E', symObjAddr: 0x7D0, symBinAddr: 0x1250, symSize: 0xA0 }
  - { offset: 0x7262, size: 0x8, addend: 0x0, symName: '__ZN4core3ptr603drop_in_place$LT$alloc..boxed..Box$LT$tokio..runtime..task..core..Cell$LT$core..pin..Pin$LT$alloc..boxed..Box$LT$$LT$pyo3_async_runtimes..tokio..TokioRuntime$u20$as$u20$pyo3_async_runtimes..generic..Runtime$GT$..spawn$LT$pyo3_async_runtimes..generic..future_into_py_with_locals$LT$pyo3_async_runtimes..tokio..TokioRuntime$C$_skreaver..a2a..client..PyA2aClient..continue_task..$u7b$$u7b$closure$u7d$$u7d$$C$_skreaver..a2a..types..PyTask$GT$..$u7b$$u7b$closure$u7d$$u7d$$GT$..$u7b$$u7b$closure$u7d$$u7d$$GT$$GT$$C$alloc..sync..Arc$LT$tokio..runtime..scheduler..multi_thread..handle..Handle$GT$$GT$$GT$$GT$17hd20407ff7b374476E', symObjAddr: 0x870, symBinAddr: 0x12F0, symSize: 0xA0 }
  - { offset: 0x73B1, size: 0x8, addend: 0x0, symName: '__ZN4core3ptr603drop_in_place$LT$alloc..boxed..Box$LT$tokio..runtime..task..core..Cell$LT$core..pin..Pin$LT$alloc..boxed..Box$LT$$LT$pyo3_async_runtimes..tokio..TokioRuntime$u20$as$u20$pyo3_async_runtimes..generic..Runtime$GT$..spawn$LT$pyo3_async_runtimes..generic..future_into_py_with_locals$LT$pyo3_async_runtimes..tokio..TokioRuntime$C$_skreaver..a2a..client..PyA2aClient..get_agent_card..$u7b$$u7b$closure$u7d$$u7d$$C$_skreaver..a2a..types..PyAgentCard$GT$..$u7b$$u7b$closure$u7d$$u7d$$GT$..$u7b$$u7b$closure$u7d$$u7d$$GT$$GT$$C$alloc..sync..Arc$LT$tokio..runtime..scheduler..current_thread..Handle$GT$$GT$$GT$$GT$17h928b3002128193efE', symObjAddr: 0x910, symBinAddr: 0x1390, symSize: 0xA0 }
  - { offset: 0x7500, size: 0x8, addend: 0x0, symName: '__ZN4core3ptr603drop_in_place$LT$alloc..boxed..Box$LT$tokio..runtime..task..core..Cell$LT$core..pin..Pin$LT$alloc..boxed..Box$LT$$LT$pyo3_async_runtimes..tokio..TokioRuntime$u20$as$u20$pyo3_async_runtimes..generic..Runtime$GT$..spawn$LT$pyo3_async_runtimes..generic..future_into_py_with_locals$LT$pyo3_async_runtimes..tokio..TokioRuntime$C$_skreaver..a2a..client..PyA2aClient..wait_for_task..$u7b$$u7b$closure$u7d$$u7d$$C$_skreaver..a2a..types..PyTask$GT$..$u7b$$u7b$closure$u7d$$u7d$$GT$..$u7b$$u7b$closure$u7d$$u7d$$GT$$GT$$C$alloc..sync..Arc$LT$tokio..runtime..scheduler..multi_thread..handle..Handle$GT$$GT$$GT$$GT$17h447576f4baf1c677E', symObjAddr: 0x9B0, symBinAddr: 0x1430, symSize: 0xA0 }
  - { offset: 0x764F, size: 0x8, addend: 0x0, symName: '__ZN4core3ptr609drop_in_place$LT$alloc..boxed..Box$LT$tokio..runtime..task..core..Cell$LT$core..pin..Pin$LT$alloc..boxed..Box$LT$$LT$pyo3_async_runtimes..tokio..TokioRuntime$u20$as$u20$pyo3_async_runtimes..generic..Runtime$GT$..spawn$LT$pyo3_async_runtimes..generic..future_into_py_with_locals$LT$pyo3_async_runtimes..tokio..TokioRuntime$C$_skreaver..a2a..client..PyA2aClient..get_agent_card..$u7b$$u7b$closure$u7d$$u7d$$C$_skreaver..a2a..types..PyAgentCard$GT$..$u7b$$u7b$closure$u7d$$u7d$$GT$..$u7b$$u7b$closure$u7d$$u7d$$GT$$GT$$C$alloc..sync..Arc$LT$tokio..runtime..scheduler..multi_thread..handle..Handle$GT$$GT$$GT$$GT$17h1df000b9c39995acE', symObjAddr: 0xA50, symBinAddr: 0x14D0, symSize: 0xA0 }
  - { offset: 0x779E, size: 0x8, addend: 0x0, symName: '__ZN4core3ptr617drop_in_place$LT$alloc..boxed..Box$LT$tokio..runtime..task..core..Cell$LT$core..pin..Pin$LT$alloc..boxed..Box$LT$$LT$pyo3_async_runtimes..tokio..TokioRuntime$u20$as$u20$pyo3_async_runtimes..generic..Runtime$GT$..spawn$LT$pyo3_async_runtimes..generic..future_into_py_with_locals$LT$pyo3_async_runtimes..tokio..TokioRuntime$C$_skreaver..a2a..client..PyA2aClient..send..$u7b$$u7b$closure$u7d$$u7d$$C$_skreaver..a2a..types..PyTask$GT$..$u7b$$u7b$closure$u7d$$u7d$..$u7b$$u7b$closure$u7d$$u7d$$GT$..$u7b$$u7b$closure$u7d$$u7d$$GT$$GT$$C$alloc..sync..Arc$LT$tokio..runtime..scheduler..current_thread..Handle$GT$$GT$$GT$$GT$17h47530fa868ef7c00E', symObjAddr: 0xAF0, symBinAddr: 0x1570, symSize: 0xA0 }
  - { offset: 0x78ED, size: 0x8, addend: 0x0, symName: '__ZN4core3ptr621drop_in_place$LT$alloc..boxed..Box$LT$tokio..runtime..task..core..Cell$LT$core..pin..Pin$LT$alloc..boxed..Box$LT$$LT$pyo3_async_runtimes..tokio..TokioRuntime$u20$as$u20$pyo3_async_runtimes..generic..Runtime$GT$..spawn$LT$pyo3_async_runtimes..generic..future_into_py_with_locals$LT$pyo3_async_runtimes..tokio..TokioRuntime$C$_skreaver..a2a..client..PyA2aClient..get_task..$u7b$$u7b$closure$u7d$$u7d$$C$_skreaver..a2a..types..PyTask$GT$..$u7b$$u7b$closure$u7d$$u7d$..$u7b$$u7b$closure$u7d$$u7d$$GT$..$u7b$$u7b$closure$u7d$$u7d$$GT$$GT$$C$alloc..sync..Arc$LT$tokio..runtime..scheduler..current_thread..Handle$GT$$GT$$GT$$GT$17h244c14682f7a643bE', symObjAddr: 0xB90, symBinAddr: 0x1610, symSize: 0xA0 }
  - { offset: 0x7A3C, size: 0x8, addend: 0x0, symName: '__ZN4core3ptr623drop_in_place$LT$alloc..boxed..Box$LT$tokio..runtime..task..core..Cell$LT$core..pin..Pin$LT$alloc..boxed..Box$LT$$LT$pyo3_async_runtimes..tokio..TokioRuntime$u20$as$u20$pyo3_async_runtimes..generic..Runtime$GT$..spawn$LT$pyo3_async_runtimes..generic..future_into_py_with_locals$LT$pyo3_async_runtimes..tokio..TokioRuntime$C$_skreaver..a2a..client..PyA2aClient..send..$u7b$$u7b$closure$u7d$$u7d$$C$_skreaver..a2a..types..PyTask$GT$..$u7b$$u7b$closure$u7d$$u7d$..$u7b$$u7b$closure$u7d$$u7d$$GT$..$u7b$$u7b$closure$u7d$$u7d$$GT$$GT$$C$alloc..sync..Arc$LT$tokio..runtime..scheduler..multi_thread..handle..Handle$GT$$GT$$GT$$GT$17hb1c768d49b8bc605E', symObjAddr: 0xC30, symBinAddr: 0x16B0, symSize: 0xA0 }
  - { offset: 0x7B8B, size: 0x8, addend: 0x0, symName: '__ZN4core3ptr624drop_in_place$LT$alloc..boxed..Box$LT$tokio..runtime..task..core..Cell$LT$core..pin..Pin$LT$alloc..boxed..Box$LT$$LT$pyo3_async_runtimes..tokio..TokioRuntime$u20$as$u20$pyo3_async_runtimes..generic..Runtime$GT$..spawn$LT$pyo3_async_runtimes..generic..future_into_py_with_locals$LT$pyo3_async_runtimes..tokio..TokioRuntime$C$_skreaver..a2a..client..PyA2aClient..cancel_task..$u7b$$u7b$closure$u7d$$u7d$$C$_skreaver..a2a..types..PyTask$GT$..$u7b$$u7b$closure$u7d$$u7d$..$u7b$$u7b$closure$u7d$$u7d$$GT$..$u7b$$u7b$closure$u7d$$u7d$$GT$$GT$$C$alloc..sync..Arc$LT$tokio..runtime..scheduler..current_thread..Handle$GT$$GT$$GT$$GT$17h40982911102e4dfbE', symObjAddr: 0xCD0, symBinAddr: 0x1750, symSize: 0xA0 }
  - { offset: 0x7CDA, size: 0x8, addend: 0x0, symName: '__ZN4core3ptr625drop_in_place$LT$alloc..boxed..Box$LT$tokio..runtime..task..core..Cell$LT$core..pin..Pin$LT$alloc..boxed..Box$LT$$LT$pyo3_async_runtimes..tokio..TokioRuntime$u20$as$u20$pyo3_async_runtimes..generic..Runtime$GT$..spawn$LT$pyo3_async_runtimes..generic..future_into_py_with_locals$LT$pyo3_async_runtimes..tokio..TokioRuntime$C$_skreaver..a2a..client..PyA2aClient..send_message..$u7b$$u7b$closure$u7d$$u7d$$C$_skreaver..a2a..types..PyTask$GT$..$u7b$$u7b$closure$u7d$$u7d$..$u7b$$u7b$closure$u7d$$u7d$$GT$..$u7b$$u7b$closure$u7d$$u7d$$GT$$GT$$C$alloc..sync..Arc$LT$tokio..runtime..scheduler..current_thread..Handle$GT$$GT$$GT$$GT$17ha4026056ce0269bcE', symObjAddr: 0xD70, symBinAddr: 0x17F0, symSize: 0xA0 }
  - { offset: 0x7E29, size: 0x8, addend: 0x0, symName: '__ZN4core3ptr626drop_in_place$LT$alloc..boxed..Box$LT$tokio..runtime..task..core..Cell$LT$core..pin..Pin$LT$alloc..boxed..Box$LT$$LT$pyo3_async_runtimes..tokio..TokioRuntime$u20$as$u20$pyo3_async_runtimes..generic..Runtime$GT$..spawn$LT$pyo3_async_runtimes..generic..future_into_py_with_locals$LT$pyo3_async_runtimes..tokio..TokioRuntime$C$_skreaver..a2a..client..PyA2aClient..continue_task..$u7b$$u7b$closure$u7d$$u7d$$C$_skreaver..a2a..types..PyTask$GT$..$u7b$$u7b$closure$u7d$$u7d$..$u7b$$u7b$closure$u7d$$u7d$$GT$..$u7b$$u7b$closure$u7d$$u7d$$GT$$GT$$C$alloc..sync..Arc$LT$tokio..runtime..scheduler..current_thread..Handle$GT$$GT$$GT$$GT$17he8a48e9ba987fd33E', symObjAddr: 0xE10, symBinAddr: 0x1890, symSize: 0xA0 }
  - { offset: 0x7F78, size: 0x8, addend: 0x0, symName: '__ZN4core3ptr626drop_in_place$LT$alloc..boxed..Box$LT$tokio..runtime..task..core..Cell$LT$core..pin..Pin$LT$alloc..boxed..Box$LT$$LT$pyo3_async_runtimes..tokio..TokioRuntime$u20$as$u20$pyo3_async_runtimes..generic..Runtime$GT$..spawn$LT$pyo3_async_runtimes..generic..future_into_py_with_locals$LT$pyo3_async_runtimes..tokio..TokioRuntime$C$_skreaver..a2a..client..PyA2aClient..wait_for_task..$u7b$$u7b$closure$u7d$$u7d$$C$_skreaver..a2a..types..PyTask$GT$..$u7b$$u7b$closure$u7d$$u7d$..$u7b$$u7b$closure$u7d$$u7d$$GT$..$u7b$$u7b$closure$u7d$$u7d$$GT$$GT$$C$alloc..sync..Arc$LT$tokio..runtime..scheduler..current_thread..Handle$GT$$GT$$GT$$GT$17h3323568f09f4ee94E', symObjAddr: 0xEB0, symBinAddr: 0x1930, symSize: 0xA0 }
  - { offset: 0x80C7, size: 0x8, addend: 0x0, symName: '__ZN4core3ptr627drop_in_place$LT$alloc..boxed..Box$LT$tokio..runtime..task..core..Cell$LT$core..pin..Pin$LT$alloc..boxed..Box$LT$$LT$pyo3_async_runtimes..tokio..TokioRuntime$u20$as$u20$pyo3_async_runtimes..generic..Runtime$GT$..spawn$LT$pyo3_async_runtimes..generic..future_into_py_with_locals$LT$pyo3_async_runtimes..tokio..TokioRuntime$C$_skreaver..a2a..client..PyA2aClient..get_task..$u7b$$u7b$closure$u7d$$u7d$$C$_skreaver..a2a..types..PyTask$GT$..$u7b$$u7b$closure$u7d$$u7d$..$u7b$$u7b$closure$u7d$$u7d$$GT$..$u7b$$u7b$closure$u7d$$u7d$$GT$$GT$$C$alloc..sync..Arc$LT$tokio..runtime..scheduler..multi_thread..handle..Handle$GT$$GT$$GT$$GT$17h7a2130d85cda5cedE', symObjAddr: 0xF50, symBinAddr: 0x19D0, symSize: 0xA0 }
  - { offset: 0x8216, size: 0x8, addend: 0x0, symName: '__ZN4core3ptr630drop_in_place$LT$alloc..boxed..Box$LT$tokio..runtime..task..core..Cell$LT$core..pin..Pin$LT$alloc..boxed..Box$LT$$LT$pyo3_async_runtimes..tokio..TokioRuntime$u20$as$u20$pyo3_async_runtimes..generic..Runtime$GT$..spawn$LT$pyo3_async_runtimes..generic..future_into_py_with_locals$LT$pyo3_async_runtimes..tokio..TokioRuntime$C$_skreaver..a2a..client..PyA2aClient..cancel_task..$u7b$$u7b$closure$u7d$$u7d$$C$_skreaver..a2a..types..PyTask$GT$..$u7b$$u7b$closure$u7d$$u7d$..$u7b$$u7b$closure$u7d$$u7d$$GT$..$u7b$$u7b$closure$u7d$$u7d$$GT$$GT$$C$alloc..sync..Arc$LT$tokio..runtime..scheduler..multi_thread..handle..Handle$GT$$GT$$GT$$GT$17h7da20e5db72cdab6E', symObjAddr: 0xFF0, symBinAddr: 0x1A70, symSize: 0xA0 }
  - { offset: 0x8365, size: 0x8, addend: 0x0, symName: '__ZN4core3ptr631drop_in_place$LT$alloc..boxed..Box$LT$tokio..runtime..task..core..Cell$LT$core..pin..Pin$LT$alloc..boxed..Box$LT$$LT$pyo3_async_runtimes..tokio..TokioRuntime$u20$as$u20$pyo3_async_runtimes..generic..Runtime$GT$..spawn$LT$pyo3_async_runtimes..generic..future_into_py_with_locals$LT$pyo3_async_runtimes..tokio..TokioRuntime$C$_skreaver..a2a..client..PyA2aClient..send_message..$u7b$$u7b$closure$u7d$$u7d$$C$_skreaver..a2a..types..PyTask$GT$..$u7b$$u7b$closure$u7d$$u7d$..$u7b$$u7b$closure$u7d$$u7d$$GT$..$u7b$$u7b$closure$u7d$$u7d$$GT$$GT$$C$alloc..sync..Arc$LT$tokio..runtime..scheduler..multi_thread..handle..Handle$GT$$GT$$GT$$GT$17h394649c3540cb5eeE', symObjAddr: 0x1090, symBinAddr: 0x1B10, symSize: 0xA0 }
  - { offset: 0x84B4, size: 0x8, addend: 0x0, symName: '__ZN4core3ptr632drop_in_place$LT$alloc..boxed..Box$LT$tokio..runtime..task..core..Cell$LT$core..pin..Pin$LT$alloc..boxed..Box$LT$$LT$pyo3_async_runtimes..tokio..TokioRuntime$u20$as$u20$pyo3_async_runtimes..generic..Runtime$GT$..spawn$LT$pyo3_async_runtimes..generic..future_into_py_with_locals$LT$pyo3_async_runtimes..tokio..TokioRuntime$C$_skreaver..a2a..client..PyA2aClient..continue_task..$u7b$$u7b$closure$u7d$$u7d$$C$_skreaver..a2a..types..PyTask$GT$..$u7b$$u7b$closure$u7d$$u7d$..$u7b$$u7b$closure$u7d$$u7d$$GT$..$u7b$$u7b$closure$u7d$$u7d$$GT$$GT$$C$alloc..sync..Arc$LT$tokio..runtime..scheduler..multi_thread..handle..Handle$GT$$GT$$GT$$GT$17h2c86b7e4a29b65d4E', symObjAddr: 0x1130, symBinAddr: 0x1BB0, symSize: 0xA0 }
  - { offset: 0x8603, size: 0x8, addend: 0x0, symName: '__ZN4core3ptr632drop_in_place$LT$alloc..boxed..Box$LT$tokio..runtime..task..core..Cell$LT$core..pin..Pin$LT$alloc..boxed..Box$LT$$LT$pyo3_async_runtimes..tokio..TokioRuntime$u20$as$u20$pyo3_async_runtimes..generic..Runtime$GT$..spawn$LT$pyo3_async_runtimes..generic..future_into_py_with_locals$LT$pyo3_async_runtimes..tokio..TokioRuntime$C$_skreaver..a2a..client..PyA2aClient..get_agent_card..$u7b$$u7b$closure$u7d$$u7d$$C$_skreaver..a2a..types..PyAgentCard$GT$..$u7b$$u7b$closure$u7d$$u7d$..$u7b$$u7b$closure$u7d$$u7d$$GT$..$u7b$$u7b$closure$u7d$$u7d$$GT$$GT$$C$alloc..sync..Arc$LT$tokio..runtime..scheduler..current_thread..Handle$GT$$GT$$GT$$GT$17hc80f99572722a9d3E', symObjAddr: 0x11D0, symBinAddr: 0x1C50, symSize: 0xA0 }
  - { offset: 0x8752, size: 0x8, addend: 0x0, symName: '__ZN4core3ptr632drop_in_place$LT$alloc..boxed..Box$LT$tokio..runtime..task..core..Cell$LT$core..pin..Pin$LT$alloc..boxed..Box$LT$$LT$pyo3_async_runtimes..tokio..TokioRuntime$u20$as$u20$pyo3_async_runtimes..generic..Runtime$GT$..spawn$LT$pyo3_async_runtimes..generic..future_into_py_with_locals$LT$pyo3_async_runtimes..tokio..TokioRuntime$C$_skreaver..a2a..client..PyA2aClient..wait_for_task..$u7b$$u7b$closure$u7d$$u7d$$C$_skreaver..a2a..types..PyTask$GT$..$u7b$$u7b$closure$u7d$$u7d$..$u7b$$u7b$closure$u7d$$u7d$$GT$..$u7b$$u7b$closure$u7d$$u7d$$GT$$GT$$C$alloc..sync..Arc$LT$tokio..runtime..scheduler..multi_thread..handle..Handle$GT$$GT$$GT$$GT$17hf1a779c02e3d6f43E', symObjAddr: 0x1270, symBinAddr: 0x1CF0, symSize: 0xA0 }
  - { offset: 0x88A1, size: 0x8, addend: 0x0, symName: '__ZN4core3ptr638drop_in_place$LT$alloc..boxed..Box$LT$tokio..runtime..task..core..Cell$LT$core..pin..Pin$LT$alloc..boxed..Box$LT$$LT$pyo3_async_runtimes..tokio..TokioRuntime$u20$as$u20$pyo3_async_runtimes..generic..Runtime$GT$..spawn$LT$pyo3_async_runtimes..generic..future_into_py_with_locals$LT$pyo3_async_runtimes..tokio..TokioRuntime$C$_skreaver..a2a..client..PyA2aClient..get_agent_card..$u7b$$u7b$closure$u7d$$u7d$$C$_skreaver..a2a..types..PyAgentCard$GT$..$u7b$$u7b$closure$u7d$$u7d$..$u7b$$u7b$closure$u7d$$u7d$$GT$..$u7b$$u7b$closure$u7d$$u7d$$GT$$GT$$C$alloc..sync..Arc$LT$tokio..runtime..scheduler..multi_thread..handle..Handle$GT$$GT$$GT$$GT$17h7cb0acbd4e1571fcE', symObjAddr: 0x1310, symBinAddr: 0x1D90, symSize: 0xA0 }
  - { offset: 0x22337, size: 0x8, addend: 0x0, symName: '__ZN5tokio7runtime4task4core17Cell$LT$T$C$S$GT$3new17h0b5102c9209ae75cE', symObjAddr: 0x13B0, symBinAddr: 0x1E30, symSize: 0x1B0 }
  - { offset: 0x225CC, size: 0x8, addend: 0x0, symName: '__ZN5tokio7runtime4task4core17Cell$LT$T$C$S$GT$3new17h0d04303df915d41fE', symObjAddr: 0x1560, symBinAddr: 0x1FE0, symSize: 0x1B0 }
  - { offset: 0x22904, size: 0x8, addend: 0x0, symName: '__ZN5tokio7runtime4task4core17Cell$LT$T$C$S$GT$3new17h0f0bd494436fcc77E', symObjAddr: 0x1710, symBinAddr: 0x2190, symSize: 0x1B0 }
  - { offset: 0x22B99, size: 0x8, addend: 0x0, symName: '__ZN5tokio7runtime4task4core17Cell$LT$T$C$S$GT$3new17h14fbbe976189039cE', symObjAddr: 0x18C0, symBinAddr: 0x2340, symSize: 0x1B0 }
  - { offset: 0x22E2E, size: 0x8, addend: 0x0, symName: '__ZN5tokio7runtime4task4core17Cell$LT$T$C$S$GT$3new17h1647e0cc072ab366E', symObjAddr: 0x1A70, symBinAddr: 0x24F0, symSize: 0x1B0 }
  - { offset: 0x230C3, size: 0x8, addend: 0x0, symName: '__ZN5tokio7runtime4task4core17Cell$LT$T$C$S$GT$3new17h1ccdf34c1eaef559E', symObjAddr: 0x1C20, symBinAddr: 0x26A0, symSize: 0x1B0 }
  - { offset: 0x23358, size: 0x8, addend: 0x0, symName: '__ZN5tokio7runtime4task4core17Cell$LT$T$C$S$GT$3new17h2b4d845823ca1e12E', symObjAddr: 0x1DD0, symBinAddr: 0x2850, symSize: 0x1B0 }
  - { offset: 0x235ED, size: 0x8, addend: 0x0, symName: '__ZN5tokio7runtime4task4core17Cell$LT$T$C$S$GT$3new17h2c7e73ec2ad9faa1E', symObjAddr: 0x1F80, symBinAddr: 0x2A00, symSize: 0x1B0 }
  - { offset: 0x23882, size: 0x8, addend: 0x0, symName: '__ZN5tokio7runtime4task4core17Cell$LT$T$C$S$GT$3new17h2db7de00e0bc9c40E', symObjAddr: 0x2130, symBinAddr: 0x2BB0, symSize: 0x1B0 }
  - { offset: 0x23B17, size: 0x8, addend: 0x0, symName: '__ZN5tokio7runtime4task4core17Cell$LT$T$C$S$GT$3new17h2fdebb95ff8ff452E', symObjAddr: 0x22E0, symBinAddr: 0x2D60, symSize: 0x1B0 }
  - { offset: 0x23DAC, size: 0x8, addend: 0x0, symName: '__ZN5tokio7runtime4task4core17Cell$LT$T$C$S$GT$3new17h3f70a5f214c113a5E', symObjAddr: 0x2490, symBinAddr: 0x2F10, symSize: 0x1B0 }
  - { offset: 0x24041, size: 0x8, addend: 0x0, symName: '__ZN5tokio7runtime4task4core17Cell$LT$T$C$S$GT$3new17h4abdfb0c8b54b4e0E', symObjAddr: 0x2640, symBinAddr: 0x30C0, symSize: 0x1B0 }
  - { offset: 0x242D6, size: 0x8, addend: 0x0, symName: '__ZN5tokio7runtime4task4core17Cell$LT$T$C$S$GT$3new17h642f4f8ab97d6caeE', symObjAddr: 0x27F0, symBinAddr: 0x3270, symSize: 0x1B0 }
  - { offset: 0x2456B, size: 0x8, addend: 0x0, symName: '__ZN5tokio7runtime4task4core17Cell$LT$T$C$S$GT$3new17h687a3a822331378bE', symObjAddr: 0x29A0, symBinAddr: 0x3420, symSize: 0x1B0 }
  - { offset: 0x24800, size: 0x8, addend: 0x0, symName: '__ZN5tokio7runtime4task4core17Cell$LT$T$C$S$GT$3new17h73145b6d8e78c274E', symObjAddr: 0x2B50, symBinAddr: 0x35D0, symSize: 0x1B0 }
  - { offset: 0x24A95, size: 0x8, addend: 0x0, symName: '__ZN5tokio7runtime4task4core17Cell$LT$T$C$S$GT$3new17h75a75dd917e7b0ffE', symObjAddr: 0x2D00, symBinAddr: 0x3780, symSize: 0x1B0 }
  - { offset: 0x24D2A, size: 0x8, addend: 0x0, symName: '__ZN5tokio7runtime4task4core17Cell$LT$T$C$S$GT$3new17h7d09d738f04fb449E', symObjAddr: 0x2EB0, symBinAddr: 0x3930, symSize: 0x1B0 }
  - { offset: 0x24FBF, size: 0x8, addend: 0x0, symName: '__ZN5tokio7runtime4task4core17Cell$LT$T$C$S$GT$3new17h8367a25f67f20083E', symObjAddr: 0x3060, symBinAddr: 0x3AE0, symSize: 0x1B0 }
  - { offset: 0x25254, size: 0x8, addend: 0x0, symName: '__ZN5tokio7runtime4task4core17Cell$LT$T$C$S$GT$3new17h88d8e26dbf002f9fE', symObjAddr: 0x3210, symBinAddr: 0x3C90, symSize: 0x1B0 }
  - { offset: 0x254E9, size: 0x8, addend: 0x0, symName: '__ZN5tokio7runtime4task4core17Cell$LT$T$C$S$GT$3new17h8ad857a7730dbf15E', symObjAddr: 0x33C0, symBinAddr: 0x3E40, symSize: 0x1B0 }
  - { offset: 0x2577E, size: 0x8, addend: 0x0, symName: '__ZN5tokio7runtime4task4core17Cell$LT$T$C$S$GT$3new17h924e89c2ce9fcd22E', symObjAddr: 0x3570, symBinAddr: 0x3FF0, symSize: 0x1B0 }
  - { offset: 0x25A13, size: 0x8, addend: 0x0, symName: '__ZN5tokio7runtime4task4core17Cell$LT$T$C$S$GT$3new17h92cb10af20c39601E', symObjAddr: 0x3720, symBinAddr: 0x41A0, symSize: 0x1B0 }
  - { offset: 0x25CA8, size: 0x8, addend: 0x0, symName: '__ZN5tokio7runtime4task4core17Cell$LT$T$C$S$GT$3new17hb02ed2ca16d75298E', symObjAddr: 0x38D0, symBinAddr: 0x4350, symSize: 0x1B0 }
  - { offset: 0x25F3D, size: 0x8, addend: 0x0, symName: '__ZN5tokio7runtime4task4core17Cell$LT$T$C$S$GT$3new17hb941c57b79b80c56E', symObjAddr: 0x3A80, symBinAddr: 0x4500, symSize: 0x1B0 }
  - { offset: 0x261D2, size: 0x8, addend: 0x0, symName: '__ZN5tokio7runtime4task4core17Cell$LT$T$C$S$GT$3new17hd290ec8b7e28d95dE', symObjAddr: 0x3C30, symBinAddr: 0x46B0, symSize: 0x1B0 }
  - { offset: 0x26467, size: 0x8, addend: 0x0, symName: '__ZN5tokio7runtime4task4core17Cell$LT$T$C$S$GT$3new17he457dfe568cdf5c1E', symObjAddr: 0x3DE0, symBinAddr: 0x4860, symSize: 0x1B0 }
  - { offset: 0x266FC, size: 0x8, addend: 0x0, symName: '__ZN5tokio7runtime4task4core17Cell$LT$T$C$S$GT$3new17he578e5508710b094E', symObjAddr: 0x3F90, symBinAddr: 0x4A10, symSize: 0x1B0 }
  - { offset: 0x26991, size: 0x8, addend: 0x0, symName: '__ZN5tokio7runtime4task4core17Cell$LT$T$C$S$GT$3new17heefc08cf39786275E', symObjAddr: 0x4140, symBinAddr: 0x4BC0, symSize: 0x1B0 }
  - { offset: 0x26FFF, size: 0x8, addend: 0x0, symName: '__ZN5tokio7runtime4task4core17Core$LT$T$C$S$GT$4poll17h032dbf7db3c021afE', symObjAddr: 0x5DA0, symBinAddr: 0x4D70, symSize: 0xB4 }
  - { offset: 0x2715F, size: 0x8, addend: 0x0, symName: '__ZN5tokio7runtime4task4core17Core$LT$T$C$S$GT$4poll17h05f5afcaff5e41c1E', symObjAddr: 0x5E54, symBinAddr: 0x4E24, symSize: 0xB4 }
  - { offset: 0x272BF, size: 0x8, addend: 0x0, symName: '__ZN5tokio7runtime4task4core17Core$LT$T$C$S$GT$4poll17h10104755620070cbE', symObjAddr: 0x5F08, symBinAddr: 0x4ED8, symSize: 0xB4 }
  - { offset: 0x27412, size: 0x8, addend: 0x0, symName: '__ZN5tokio7runtime4task4core17Core$LT$T$C$S$GT$4poll17h19bd5a074e226b78E', symObjAddr: 0x5FBC, symBinAddr: 0x4F8C, symSize: 0xB4 }
  - { offset: 0x27565, size: 0x8, addend: 0x0, symName: '__ZN5tokio7runtime4task4core17Core$LT$T$C$S$GT$4poll17h24e9c786ce1b5d26E', symObjAddr: 0x6070, symBinAddr: 0x5040, symSize: 0xB4 }
  - { offset: 0x276C5, size: 0x8, addend: 0x0, symName: '__ZN5tokio7runtime4task4core17Core$LT$T$C$S$GT$4poll17h2d6af9aad2136164E', symObjAddr: 0x6124, symBinAddr: 0x50F4, symSize: 0xB4 }
  - { offset: 0x27825, size: 0x8, addend: 0x0, symName: '__ZN5tokio7runtime4task4core17Core$LT$T$C$S$GT$4poll17h324414b12b6e1c54E', symObjAddr: 0x61D8, symBinAddr: 0x51A8, symSize: 0xB4 }
  - { offset: 0x27978, size: 0x8, addend: 0x0, symName: '__ZN5tokio7runtime4task4core17Core$LT$T$C$S$GT$4poll17h39cfa0229854cce0E', symObjAddr: 0x628C, symBinAddr: 0x525C, symSize: 0xB4 }
  - { offset: 0x27ACB, size: 0x8, addend: 0x0, symName: '__ZN5tokio7runtime4task4core17Core$LT$T$C$S$GT$4poll17h45840161b919eec8E', symObjAddr: 0x6340, symBinAddr: 0x5310, symSize: 0xB4 }
  - { offset: 0x27C2B, size: 0x8, addend: 0x0, symName: '__ZN5tokio7runtime4task4core17Core$LT$T$C$S$GT$4poll17h46e4f6bdfe47cf16E', symObjAddr: 0x63F4, symBinAddr: 0x53C4, symSize: 0xB4 }
  - { offset: 0x27D8B, size: 0x8, addend: 0x0, symName: '__ZN5tokio7runtime4task4core17Core$LT$T$C$S$GT$4poll17h5284826fecf68dbcE', symObjAddr: 0x64A8, symBinAddr: 0x5478, symSize: 0xB4 }
  - { offset: 0x27EEB, size: 0x8, addend: 0x0, symName: '__ZN5tokio7runtime4task4core17Core$LT$T$C$S$GT$4poll17h6045b94b5dc5bb66E', symObjAddr: 0x655C, symBinAddr: 0x552C, symSize: 0xB4 }
  - { offset: 0x2804B, size: 0x8, addend: 0x0, symName: '__ZN5tokio7runtime4task4core17Core$LT$T$C$S$GT$4poll17h66165a9efc7fdd9cE', symObjAddr: 0x6610, symBinAddr: 0x55E0, symSize: 0xB4 }
  - { offset: 0x281AB, size: 0x8, addend: 0x0, symName: '__ZN5tokio7runtime4task4core17Core$LT$T$C$S$GT$4poll17h6aa3f3ea420194b4E', symObjAddr: 0x66C4, symBinAddr: 0x5694, symSize: 0xB4 }
  - { offset: 0x2830B, size: 0x8, addend: 0x0, symName: '__ZN5tokio7runtime4task4core17Core$LT$T$C$S$GT$4poll17h7acba2bdc1d53256E', symObjAddr: 0x6778, symBinAddr: 0x5748, symSize: 0xB4 }
  - { offset: 0x2846B, size: 0x8, addend: 0x0, symName: '__ZN5tokio7runtime4task4core17Core$LT$T$C$S$GT$4poll17h94e60e1f28871151E', symObjAddr: 0x682C, symBinAddr: 0x57FC, symSize: 0xB4 }
  - { offset: 0x285BE, size: 0x8, addend: 0x0, symName: '__ZN5tokio7runtime4task4core17Core$LT$T$C$S$GT$4poll17ha4933dea7f058349E', symObjAddr: 0x68E0, symBinAddr: 0x58B0, symSize: 0xB4 }
  - { offset: 0x2871E, size: 0x8, addend: 0x0, symName: '__ZN5tokio7runtime4task4core17Core$LT$T$C$S$GT$4poll17ha4b7e9bd879713bbE', symObjAddr: 0x6994, symBinAddr: 0x5964, symSize: 0xB4 }
  - { offset: 0x28871, size: 0x8, addend: 0x0, symName: '__ZN5tokio7runtime4task4core17Core$LT$T$C$S$GT$4poll17ha5c037d1fa76e8eeE', symObjAddr: 0x6A48, symBinAddr: 0x5A18, symSize: 0xB4 }
  - { offset: 0x289C4, size: 0x8, addend: 0x0, symName: '__ZN5tokio7runtime4task4core17Core$LT$T$C$S$GT$4poll17ha7cd5207bb9c6e6cE', symObjAddr: 0x6AFC, symBinAddr: 0x5ACC, symSize: 0xB4 }
  - { offset: 0x28B24, size: 0x8, addend: 0x0, symName: '__ZN5tokio7runtime4task4core17Core$LT$T$C$S$GT$4poll17hb26ef29ab2710646E', symObjAddr: 0x6BB0, symBinAddr: 0x5B80, symSize: 0xB4 }
  - { offset: 0x28C77, size: 0x8, addend: 0x0, symName: '__ZN5tokio7runtime4task4core17Core$LT$T$C$S$GT$4poll17hbea38aa95c5e5966E', symObjAddr: 0x6C64, symBinAddr: 0x5C34, symSize: 0xB4 }
  - { offset: 0x28DCA, size: 0x8, addend: 0x0, symName: '__ZN5tokio7runtime4task4core17Core$LT$T$C$S$GT$4poll17hc347e507d08e7161E', symObjAddr: 0x6D18, symBinAddr: 0x5CE8, symSize: 0xB4 }
  - { offset: 0x28F1D, size: 0x8, addend: 0x0, symName: '__ZN5tokio7runtime4task4core17Core$LT$T$C$S$GT$4poll17hd2c269466799dccfE', symObjAddr: 0x6DCC, symBinAddr: 0x5D9C, symSize: 0xB4 }
  - { offset: 0x29070, size: 0x8, addend: 0x0, symName: '__ZN5tokio7runtime4task4core17Core$LT$T$C$S$GT$4poll17hda924300bbb6dfa0E', symObjAddr: 0x6E80, symBinAddr: 0x5E50, symSize: 0xB4 }
  - { offset: 0x291C3, size: 0x8, addend: 0x0, symName: '__ZN5tokio7runtime4task4core17Core$LT$T$C$S$GT$4poll17hdcf677ea4e7ed416E', symObjAddr: 0x6F34, symBinAddr: 0x5F04, symSize: 0xB4 }
  - { offset: 0x29316, size: 0x8, addend: 0x0, symName: '__ZN5tokio7runtime4task4core17Core$LT$T$C$S$GT$4poll17hef530be9b59ea3a3E', symObjAddr: 0x6FE8, symBinAddr: 0x5FB8, symSize: 0xB4 }
  - { offset: 0x29469, size: 0x8, addend: 0x0, symName: '__ZN5tokio7runtime4task4core17Core$LT$T$C$S$GT$4poll17hf1d8644fdb6745c1E', symObjAddr: 0x709C, symBinAddr: 0x606C, symSize: 0xB4 }
  - { offset: 0x29597, size: 0x8, addend: 0x0, symName: '__ZN5tokio7runtime4task4core17Core$LT$T$C$S$GT$9set_stage17h0a2210d40ee78b9fE', symObjAddr: 0x7150, symBinAddr: 0x6120, symSize: 0xBC }
  - { offset: 0x29696, size: 0x8, addend: 0x0, symName: '__ZN5tokio7runtime4task4core17Core$LT$T$C$S$GT$9set_stage17h20ccd7b382286cefE', symObjAddr: 0x720C, symBinAddr: 0x61DC, symSize: 0xBC }
  - { offset: 0x29795, size: 0x8, addend: 0x0, symName: '__ZN5tokio7runtime4task4core17Core$LT$T$C$S$GT$9set_stage17h26a3287b59af0c30E', symObjAddr: 0x72C8, symBinAddr: 0x6298, symSize: 0xBC }
  - { offset: 0x29894, size: 0x8, addend: 0x0, symName: '__ZN5tokio7runtime4task4core17Core$LT$T$C$S$GT$9set_stage17h298701020bd254fbE', symObjAddr: 0x7384, symBinAddr: 0x6354, symSize: 0xBC }
  - { offset: 0x29993, size: 0x8, addend: 0x0, symName: '__ZN5tokio7runtime4task4core17Core$LT$T$C$S$GT$9set_stage17h3d81ca2295d853fbE', symObjAddr: 0x7440, symBinAddr: 0x6410, symSize: 0xBC }
  - { offset: 0x29A92, size: 0x8, addend: 0x0, symName: '__ZN5tokio7runtime4task4core17Core$LT$T$C$S$GT$9set_stage17h4747336ac79890daE', symObjAddr: 0x74FC, symBinAddr: 0x64CC, symSize: 0xBC }
  - { offset: 0x29B91, size: 0x8, addend: 0x0, symName: '__ZN5tokio7runtime4task4core17Core$LT$T$C$S$GT$9set_stage17h4e62855346096768E', symObjAddr: 0x75B8, symBinAddr: 0x6588, symSize: 0xBC }
  - { offset: 0x29C90, size: 0x8, addend: 0x0, symName: '__ZN5tokio7runtime4task4core17Core$LT$T$C$S$GT$9set_stage17h591cb380f3094a03E', symObjAddr: 0x7674, symBinAddr: 0x6644, symSize: 0xBC }
  - { offset: 0x29D8F, size: 0x8, addend: 0x0, symName: '__ZN5tokio7runtime4task4core17Core$LT$T$C$S$GT$9set_stage17h704c7bd4840ffb01E', symObjAddr: 0x7730, symBinAddr: 0x6700, symSize: 0xBC }
  - { offset: 0x29E8E, size: 0x8, addend: 0x0, symName: '__ZN5tokio7runtime4task4core17Core$LT$T$C$S$GT$9set_stage17h7eba62a66eaaace4E', symObjAddr: 0x77EC, symBinAddr: 0x67BC, symSize: 0xBC }
  - { offset: 0x29F8D, size: 0x8, addend: 0x0, symName: '__ZN5tokio7runtime4task4core17Core$LT$T$C$S$GT$9set_stage17h84eeb5a516f9fb43E', symObjAddr: 0x78A8, symBinAddr: 0x6878, symSize: 0xBC }
  - { offset: 0x2A08C, size: 0x8, addend: 0x0, symName: '__ZN5tokio7runtime4task4core17Core$LT$T$C$S$GT$9set_stage17h8d68a14320076a84E', symObjAddr: 0x7964, symBinAddr: 0x6934, symSize: 0xBC }
  - { offset: 0x2A18B, size: 0x8, addend: 0x0, symName: '__ZN5tokio7runtime4task4core17Core$LT$T$C$S$GT$9set_stage17h99e52128e729f8a7E', symObjAddr: 0x7A20, symBinAddr: 0x69F0, symSize: 0xBC }
  - { offset: 0x2A28A, size: 0x8, addend: 0x0, symName: '__ZN5tokio7runtime4task4core17Core$LT$T$C$S$GT$9set_stage17haaed768b9ab3d469E', symObjAddr: 0x7ADC, symBinAddr: 0x6AAC, symSize: 0xBC }
  - { offset: 0x2A389, size: 0x8, addend: 0x0, symName: '__ZN5tokio7runtime4task4core17Core$LT$T$C$S$GT$9set_stage17hb0a81c2f310be0c1E', symObjAddr: 0x7B98, symBinAddr: 0x6B68, symSize: 0xBC }
  - { offset: 0x2A488, size: 0x8, addend: 0x0, symName: '__ZN5tokio7runtime4task4core17Core$LT$T$C$S$GT$9set_stage17hb3d692d3192fc435E', symObjAddr: 0x7C54, symBinAddr: 0x6C24, symSize: 0xBC }
  - { offset: 0x2A587, size: 0x8, addend: 0x0, symName: '__ZN5tokio7runtime4task4core17Core$LT$T$C$S$GT$9set_stage17hb7f9ed3d7248230eE', symObjAddr: 0x7D10, symBinAddr: 0x6CE0, symSize: 0xBC }
  - { offset: 0x2A686, size: 0x8, addend: 0x0, symName: '__ZN5tokio7runtime4task4core17Core$LT$T$C$S$GT$9set_stage17hb8be6a01600461efE', symObjAddr: 0x7DCC, symBinAddr: 0x6D9C, symSize: 0xBC }
  - { offset: 0x2A785, size: 0x8, addend: 0x0, symName: '__ZN5tokio7runtime4task4core17Core$LT$T$C$S$GT$9set_stage17hb930cb6d82549abdE', symObjAddr: 0x7E88, symBinAddr: 0x6E58, symSize: 0xBC }
  - { offset: 0x2A884, size: 0x8, addend: 0x0, symName: '__ZN5tokio7runtime4task4core17Core$LT$T$C$S$GT$9set_stage17hbabcef0bd543a83bE', symObjAddr: 0x7F44, symBinAddr: 0x6F14, symSize: 0xBC }
  - { offset: 0x2A983, size: 0x8, addend: 0x0, symName: '__ZN5tokio7runtime4task4core17Core$LT$T$C$S$GT$9set_stage17hbb2a1dbf1f7a18e9E', symObjAddr: 0x8000, symBinAddr: 0x6FD0, symSize: 0xBC }
  - { offset: 0x2AA82, size: 0x8, addend: 0x0, symName: '__ZN5tokio7runtime4task4core17Core$LT$T$C$S$GT$9set_stage17hc563936e5e57b80fE', symObjAddr: 0x80BC, symBinAddr: 0x708C, symSize: 0xBC }
  - { offset: 0x2AB81, size: 0x8, addend: 0x0, symName: '__ZN5tokio7runtime4task4core17Core$LT$T$C$S$GT$9set_stage17hcb729a992f7b21bcE', symObjAddr: 0x8178, symBinAddr: 0x7148, symSize: 0xBC }
  - { offset: 0x2AC80, size: 0x8, addend: 0x0, symName: '__ZN5tokio7runtime4task4core17Core$LT$T$C$S$GT$9set_stage17hd59f4c0d51dd2798E', symObjAddr: 0x8234, symBinAddr: 0x7204, symSize: 0xBC }
  - { offset: 0x2AD7F, size: 0x8, addend: 0x0, symName: '__ZN5tokio7runtime4task4core17Core$LT$T$C$S$GT$9set_stage17hddcd9fac2a7a0015E', symObjAddr: 0x82F0, symBinAddr: 0x72C0, symSize: 0xBC }
  - { offset: 0x2AE7E, size: 0x8, addend: 0x0, symName: '__ZN5tokio7runtime4task4core17Core$LT$T$C$S$GT$9set_stage17hdefd107f91180917E', symObjAddr: 0x83AC, symBinAddr: 0x737C, symSize: 0xBC }
  - { offset: 0x2AF7D, size: 0x8, addend: 0x0, symName: '__ZN5tokio7runtime4task4core17Core$LT$T$C$S$GT$9set_stage17he29713fa367f3217E', symObjAddr: 0x8468, symBinAddr: 0x7438, symSize: 0xBC }
  - { offset: 0x2B07C, size: 0x8, addend: 0x0, symName: '__ZN5tokio7runtime4task4core17Core$LT$T$C$S$GT$9set_stage17hf92137e816cf49acE', symObjAddr: 0x8524, symBinAddr: 0x74F4, symSize: 0xBC }
  - { offset: 0x2B383, size: 0x8, addend: 0x0, symName: '__ZN57_$LT$T$u20$as$u20$pyo3..conversion..FromPyObjectBound$GT$20from_py_object_bound17h4a69a5e7967432e5E', symObjAddr: 0x0, symBinAddr: 0x83B0, symSize: 0x1B8 }
  - { offset: 0x2C05D, size: 0x8, addend: 0x0, symName: '__ZN57_$LT$T$u20$as$u20$pyo3..conversion..FromPyObjectBound$GT$20from_py_object_bound17h4a69a5e7967432e5E', symObjAddr: 0x0, symBinAddr: 0x83B0, symSize: 0x1B8 }
  - { offset: 0x2E673, size: 0x8, addend: 0x0, symName: '__ZN4core3ptr100drop_in_place$LT$_skreaver..a2a..client..PyA2aClient..continue_task..$u7b$$u7b$closure$u7d$$u7d$$GT$17hb8bd7c48dfea49e7E', symObjAddr: 0x0, symBinAddr: 0x8568, symSize: 0xDC }
  - { offset: 0x30627, size: 0x8, addend: 0x0, symName: '__ZN4core3ptr100drop_in_place$LT$_skreaver..a2a..client..PyA2aClient..continue_task..$u7b$$u7b$closure$u7d$$u7d$$GT$17hb8bd7c48dfea49e7E', symObjAddr: 0x0, symBinAddr: 0x8568, symSize: 0xDC }
  - { offset: 0x30993, size: 0x8, addend: 0x0, symName: '__ZN4core3ptr100drop_in_place$LT$_skreaver..a2a..client..PyA2aClient..wait_for_task..$u7b$$u7b$closure$u7d$$u7d$$GT$17h42c76a5ad820f21bE', symObjAddr: 0xDC, symBinAddr: 0x8644, symSize: 0x134 }
  - { offset: 0x30A6A, size: 0x8, addend: 0x0, symName: '__ZN4core3ptr100drop_in_place$LT$pyo3..pyclass_init..PyClassInitializer$LT$_skreaver..a2a..types..PyArtifact$GT$$GT$17h47cf8b11c2f33835E', symObjAddr: 0x210, symBinAddr: 0x8778, symSize: 0x24 }
  - { offset: 0x30A94, size: 0x8, addend: 0x0, symName: '__ZN4core3ptr100drop_in_place$LT$pyo3..pyclass_init..PyClassInitializer$LT$_skreaver..a2a..types..PyArtifact$GT$$GT$17h47cf8b11c2f33835E', symObjAddr: 0x210, symBinAddr: 0x8778, symSize: 0x24 }
  - { offset: 0x30E2C, size: 0x8, addend: 0x0, symName: '__ZN4core3ptr101drop_in_place$LT$_skreaver..a2a..client..PyA2aClient..get_agent_card..$u7b$$u7b$closure$u7d$$u7d$$GT$17hb30f2347b02d9a8fE', symObjAddr: 0x234, symBinAddr: 0x879C, symSize: 0x110 }
  - { offset: 0x30EBE, size: 0x8, addend: 0x0, symName: '__ZN4core3ptr101drop_in_place$LT$core..option..Option$LT$pyo3..instance..Bound$LT$pyo3..types..any..PyAny$GT$$GT$$GT$17h14cea4360b09ea40E', symObjAddr: 0x344, symBinAddr: 0x88AC, symSize: 0x60 }
  - { offset: 0x30F82, size: 0x8, addend: 0x0, symName: '__ZN4core3ptr101drop_in_place$LT$pyo3..pyclass_init..PyClassInitializer$LT$_skreaver..a2a..types..PyAgentCard$GT$$GT$17hf7195f334ec80b7aE', symObjAddr: 0x3A4, symBinAddr: 0x890C, symSize: 0x24 }
  - { offset: 0x30FAC, size: 0x8, addend: 0x0, symName: '__ZN4core3ptr101drop_in_place$LT$pyo3..pyclass_init..PyClassInitializer$LT$_skreaver..a2a..types..PyAgentCard$GT$$GT$17hf7195f334ec80b7aE', symObjAddr: 0x3A4, symBinAddr: 0x890C, symSize: 0x24 }
  - { offset: 0x31089, size: 0x8, addend: 0x0, symName: '__ZN4core3ptr102drop_in_place$LT$pyo3..pyclass_init..PyClassInitializer$LT$_skreaver..a2a..client..PyA2aClient$GT$$GT$17hd2a4358c80a1648aE', symObjAddr: 0x3C8, symBinAddr: 0x8930, symSize: 0x20 }
  - { offset: 0x310B3, size: 0x8, addend: 0x0, symName: '__ZN4core3ptr102drop_in_place$LT$pyo3..pyclass_init..PyClassInitializer$LT$_skreaver..a2a..client..PyA2aClient$GT$$GT$17hd2a4358c80a1648aE', symObjAddr: 0x3C8, symBinAddr: 0x8930, symSize: 0x20 }
  - { offset: 0x31190, size: 0x8, addend: 0x0, symName: '__ZN4core3ptr102drop_in_place$LT$pyo3..pyclass_init..PyClassInitializer$LT$_skreaver..a2a..types..PyAgentSkill$GT$$GT$17hccc8de25cab7aec4E', symObjAddr: 0x3E8, symBinAddr: 0x8950, symSize: 0x24 }
  - { offset: 0x311BA, size: 0x8, addend: 0x0, symName: '__ZN4core3ptr102drop_in_place$LT$pyo3..pyclass_init..PyClassInitializer$LT$_skreaver..a2a..types..PyAgentSkill$GT$$GT$17hccc8de25cab7aec4E', symObjAddr: 0x3E8, symBinAddr: 0x8950, symSize: 0x24 }
  - { offset: 0x31297, size: 0x8, addend: 0x0, symName: '__ZN4core3ptr102drop_in_place$LT$pyo3..pyclass_init..PyClassInitializer$LT$_skreaver..mcp..PyMcpToolDefinition$GT$$GT$17h63a5ce79adb2b366E', symObjAddr: 0x428, symBinAddr: 0x8974, symSize: 0x24 }
  - { offset: 0x312C1, size: 0x8, addend: 0x0, symName: '__ZN4core3ptr102drop_in_place$LT$pyo3..pyclass_init..PyClassInitializer$LT$_skreaver..mcp..PyMcpToolDefinition$GT$$GT$17h63a5ce79adb2b366E', symObjAddr: 0x428, symBinAddr: 0x8974, symSize: 0x24 }
  - { offset: 0x3137F, size: 0x8, addend: 0x0, symName: '__ZN4core3ptr103drop_in_place$LT$pythonize..ser..PythonCollectionSerializer$LT$pythonize..ser..PythonizeDefault$GT$$GT$17hf831763081663554E', symObjAddr: 0x468, symBinAddr: 0x8998, symSize: 0x54 }
  - { offset: 0x3160E, size: 0x8, addend: 0x0, symName: '__ZN4core3ptr104drop_in_place$LT$skreaver_a2a..client..A2aClient..handle_error_response..$u7b$$u7b$closure$u7d$$u7d$$GT$17h478d008dde96428eE', symObjAddr: 0x4BC, symBinAddr: 0x89EC, symSize: 0xF4 }
  - { offset: 0x31779, size: 0x8, addend: 0x0, symName: '__ZN4core3ptr115drop_in_place$LT$core..option..Option$LT$once_cell..unsync..OnceCell$LT$pyo3_async_runtimes..TaskLocals$GT$$GT$$GT$17h02a2f49478ab0e3aE', symObjAddr: 0x5D4, symBinAddr: 0x8AE0, symSize: 0x70 }
  - { offset: 0x318C4, size: 0x8, addend: 0x0, symName: '__ZN4core3ptr116drop_in_place$LT$core..cell..UnsafeCell$LT$core..option..Option$LT$pyo3..err..err_state..PyErrStateInner$GT$$GT$$GT$17h37494c76cd3aeee8E', symObjAddr: 0x644, symBinAddr: 0x8B50, symSize: 0xFC }
  - { offset: 0x31A81, size: 0x8, addend: 0x0, symName: '__ZN4core3ptr134drop_in_place$LT$reqwest..async_impl..response..Response..json$LT$skreaver_a2a..types..task..Task$GT$..$u7b$$u7b$closure$u7d$$u7d$$GT$17h9f7823f99a0e2560E', symObjAddr: 0x740, symBinAddr: 0x8C4C, symSize: 0x80 }
  - { offset: 0x31B1D, size: 0x8, addend: 0x0, symName: '__ZN4core3ptr140drop_in_place$LT$pyo3_async_runtimes..generic..Cancellable$LT$_skreaver..a2a..client..PyA2aClient..send..$u7b$$u7b$closure$u7d$$u7d$$GT$$GT$17h17894c51747ed809E', symObjAddr: 0x7C0, symBinAddr: 0x8CCC, symSize: 0x98 }
  - { offset: 0x31D41, size: 0x8, addend: 0x0, symName: '__ZN4core3ptr143drop_in_place$LT$std..sync..poison..PoisonError$LT$std..sync..poison..mutex..MutexGuard$LT$skreaver_memory..file_memory..FileMemory$GT$$GT$$GT$17h4d1091847e9e614cE', symObjAddr: 0x86C, symBinAddr: 0x8D64, symSize: 0x50 }
  - { offset: 0x31EFC, size: 0x8, addend: 0x0, symName: '__ZN4core3ptr144drop_in_place$LT$pyo3_async_runtimes..generic..Cancellable$LT$_skreaver..a2a..client..PyA2aClient..get_task..$u7b$$u7b$closure$u7d$$u7d$$GT$$GT$17h3ffde3e3dd76b673E', symObjAddr: 0x8BC, symBinAddr: 0x8DB4, symSize: 0x98 }
  - { offset: 0x32101, size: 0x8, addend: 0x0, symName: '__ZN4core3ptr147drop_in_place$LT$pyo3_async_runtimes..generic..Cancellable$LT$_skreaver..a2a..client..PyA2aClient..cancel_task..$u7b$$u7b$closure$u7d$$u7d$$GT$$GT$17h2b1ee10c64e33e19E', symObjAddr: 0x954, symBinAddr: 0x8E4C, symSize: 0x98 }
  - { offset: 0x32306, size: 0x8, addend: 0x0, symName: '__ZN4core3ptr148drop_in_place$LT$pyo3_async_runtimes..generic..Cancellable$LT$_skreaver..a2a..client..PyA2aClient..send_message..$u7b$$u7b$closure$u7d$$u7d$$GT$$GT$17h43f2ad813fb6b46bE', symObjAddr: 0x9EC, symBinAddr: 0x8EE4, symSize: 0x98 }
  - { offset: 0x3250B, size: 0x8, addend: 0x0, symName: '__ZN4core3ptr149drop_in_place$LT$pyo3_async_runtimes..generic..Cancellable$LT$_skreaver..a2a..client..PyA2aClient..continue_task..$u7b$$u7b$closure$u7d$$u7d$$GT$$GT$17he15e47e0ad1f34d2E', symObjAddr: 0xA84, symBinAddr: 0x8F7C, symSize: 0x98 }
  - { offset: 0x32710, size: 0x8, addend: 0x0, symName: '__ZN4core3ptr149drop_in_place$LT$pyo3_async_runtimes..generic..Cancellable$LT$_skreaver..a2a..client..PyA2aClient..wait_for_task..$u7b$$u7b$closure$u7d$$u7d$$GT$$GT$17hc80ffefacc59bee8E', symObjAddr: 0xB1C, symBinAddr: 0x9014, symSize: 0x98 }
  - { offset: 0x32915, size: 0x8, addend: 0x0, symName: '__ZN4core3ptr150drop_in_place$LT$pyo3_async_runtimes..generic..Cancellable$LT$_skreaver..a2a..client..PyA2aClient..get_agent_card..$u7b$$u7b$closure$u7d$$u7d$$GT$$GT$17h324032a8f5d5c022E', symObjAddr: 0xBB4, symBinAddr: 0x90AC, symSize: 0x98 }
  - { offset: 0x32B1A, size: 0x8, addend: 0x0, symName: '__ZN4core3ptr197drop_in_place$LT$alloc..sync..Weak$LT$tokio..sync..rwlock..RwLock$LT$std..collections..hash..map..HashMap$LT$alloc..string..String$C$alloc..string..String$GT$$GT$$C$$RF$alloc..alloc..Global$GT$$GT$17h1566b137f0f49a5eE', symObjAddr: 0xC58, symBinAddr: 0x9144, symSize: 0xB0 }
  - { offset: 0x32D41, size: 0x8, addend: 0x0, symName: '__ZN4core3ptr223drop_in_place$LT$$LT$$RF$mut$u20$serde_json..ser..Serializer$LT$W$C$F$GT$$u20$as$u20$serde_core..ser..Serializer$GT$..collect_str..Adapter$LT$$RF$mut$u20$alloc..vec..Vec$LT$u8$GT$$C$serde_json..ser..CompactFormatter$GT$$GT$17hf66b8909f6c640daE', symObjAddr: 0xD08, symBinAddr: 0x91F4, symSize: 0x10 }
  - { offset: 0x32D6B, size: 0x8, addend: 0x0, symName: '__ZN4core3ptr223drop_in_place$LT$$LT$$RF$mut$u20$serde_json..ser..Serializer$LT$W$C$F$GT$$u20$as$u20$serde_core..ser..Serializer$GT$..collect_str..Adapter$LT$$RF$mut$u20$alloc..vec..Vec$LT$u8$GT$$C$serde_json..ser..CompactFormatter$GT$$GT$17hf66b8909f6c640daE', symObjAddr: 0xD08, symBinAddr: 0x91F4, symSize: 0x10 }
  - { offset: 0x32DAF, size: 0x8, addend: 0x0, symName: '__ZN4core3ptr229drop_in_place$LT$core..pin..Pin$LT$alloc..boxed..Box$LT$dyn$u20$core..future..future..Future$u2b$Output$u20$$u3d$$u20$core..result..Result$LT$_skreaver..a2a..types..PyTask$C$pyo3..err..PyErr$GT$$u2b$core..marker..Send$GT$$GT$$GT$17hc723305d8863f9b7E', symObjAddr: 0xD18, symBinAddr: 0x9204, symSize: 0xD0 }
  - { offset: 0x32F4B, size: 0x8, addend: 0x0, symName: '__ZN4core3ptr234drop_in_place$LT$core..pin..Pin$LT$alloc..boxed..Box$LT$dyn$u20$core..future..future..Future$u2b$Output$u20$$u3d$$u20$core..result..Result$LT$_skreaver..a2a..types..PyAgentCard$C$pyo3..err..PyErr$GT$$u2b$core..marker..Send$GT$$GT$$GT$17hb7667cdf5a75aebcE', symObjAddr: 0xDE8, symBinAddr: 0x92D4, symSize: 0xD0 }
  - { offset: 0x33106, size: 0x8, addend: 0x0, symName: '__ZN4core3ptr257drop_in_place$LT$tokio..task..task_local..TaskLocalFuture$LT$once_cell..unsync..OnceCell$LT$pyo3_async_runtimes..TaskLocals$GT$$C$pyo3_async_runtimes..generic..Cancellable$LT$_skreaver..a2a..client..PyA2aClient..send..$u7b$$u7b$closure$u7d$$u7d$$GT$$GT$$GT$17h8e362d9741b780e7E', symObjAddr: 0xEB8, symBinAddr: 0x93A4, symSize: 0xBC }
  - { offset: 0x33240, size: 0x8, addend: 0x0, symName: '__ZN4core3ptr259drop_in_place$LT$pyo3_async_runtimes..generic..future_into_py_with_locals$LT$pyo3_async_runtimes..tokio..TokioRuntime$C$_skreaver..a2a..client..PyA2aClient..send..$u7b$$u7b$closure$u7d$$u7d$$C$_skreaver..a2a..types..PyTask$GT$..$u7b$$u7b$closure$u7d$$u7d$$GT$17h1532463bb5a15777E', symObjAddr: 0xF74, symBinAddr: 0x9460, symSize: 0x1C4 }
  - { offset: 0x33566, size: 0x8, addend: 0x0, symName: '__ZN4core3ptr261drop_in_place$LT$tokio..task..task_local..TaskLocalFuture$LT$once_cell..unsync..OnceCell$LT$pyo3_async_runtimes..TaskLocals$GT$$C$pyo3_async_runtimes..generic..Cancellable$LT$_skreaver..a2a..client..PyA2aClient..get_task..$u7b$$u7b$closure$u7d$$u7d$$GT$$GT$$GT$17hc18c1a7c890ab673E', symObjAddr: 0x1138, symBinAddr: 0x9624, symSize: 0xBC }
  - { offset: 0x336A0, size: 0x8, addend: 0x0, symName: '__ZN4core3ptr263drop_in_place$LT$pyo3_async_runtimes..generic..future_into_py_with_locals$LT$pyo3_async_runtimes..tokio..TokioRuntime$C$_skreaver..a2a..client..PyA2aClient..get_task..$u7b$$u7b$closure$u7d$$u7d$$C$_skreaver..a2a..types..PyTask$GT$..$u7b$$u7b$closure$u7d$$u7d$$GT$17h459068b4cf290653E', symObjAddr: 0x11F4, symBinAddr: 0x96E0, symSize: 0x1C4 }
  - { offset: 0x339C6, size: 0x8, addend: 0x0, symName: '__ZN4core3ptr264drop_in_place$LT$tokio..task..task_local..TaskLocalFuture$LT$once_cell..unsync..OnceCell$LT$pyo3_async_runtimes..TaskLocals$GT$$C$pyo3_async_runtimes..generic..Cancellable$LT$_skreaver..a2a..client..PyA2aClient..cancel_task..$u7b$$u7b$closure$u7d$$u7d$$GT$$GT$$GT$17h3f50624a941396bbE', symObjAddr: 0x13B8, symBinAddr: 0x98A4, symSize: 0xBC }
  - { offset: 0x33B1F, size: 0x8, addend: 0x0, symName: '__ZN4core3ptr265drop_in_place$LT$tokio..task..task_local..TaskLocalFuture$LT$once_cell..unsync..OnceCell$LT$pyo3_async_runtimes..TaskLocals$GT$$C$pyo3_async_runtimes..generic..Cancellable$LT$_skreaver..a2a..client..PyA2aClient..send_message..$u7b$$u7b$closure$u7d$$u7d$$GT$$GT$$GT$17hd0e5d28b1310cb97E', symObjAddr: 0x1474, symBinAddr: 0x9960, symSize: 0xBC }
  - { offset: 0x33C59, size: 0x8, addend: 0x0, symName: '__ZN4core3ptr266drop_in_place$LT$pyo3_async_runtimes..generic..future_into_py_with_locals$LT$pyo3_async_runtimes..tokio..TokioRuntime$C$_skreaver..a2a..client..PyA2aClient..cancel_task..$u7b$$u7b$closure$u7d$$u7d$$C$_skreaver..a2a..types..PyTask$GT$..$u7b$$u7b$closure$u7d$$u7d$$GT$17h4f23fba6d1940a5fE', symObjAddr: 0x1530, symBinAddr: 0x9A1C, symSize: 0x1C4 }
  - { offset: 0x33F7F, size: 0x8, addend: 0x0, symName: '__ZN4core3ptr266drop_in_place$LT$tokio..task..task_local..TaskLocalFuture$LT$once_cell..unsync..OnceCell$LT$pyo3_async_runtimes..TaskLocals$GT$$C$pyo3_async_runtimes..generic..Cancellable$LT$_skreaver..a2a..client..PyA2aClient..continue_task..$u7b$$u7b$closure$u7d$$u7d$$GT$$GT$$GT$17ha1598f6eec6efccfE', symObjAddr: 0x16F4, symBinAddr: 0x9BE0, symSize: 0xBC }
  - { offset: 0x340D8, size: 0x8, addend: 0x0, symName: '__ZN4core3ptr266drop_in_place$LT$tokio..task..task_local..TaskLocalFuture$LT$once_cell..unsync..OnceCell$LT$pyo3_async_runtimes..TaskLocals$GT$$C$pyo3_async_runtimes..generic..Cancellable$LT$_skreaver..a2a..client..PyA2aClient..wait_for_task..$u7b$$u7b$closure$u7d$$u7d$$GT$$GT$$GT$17h133c01b23e87cd8cE', symObjAddr: 0x17B0, symBinAddr: 0x9C9C, symSize: 0xBC }
  - { offset: 0x34212, size: 0x8, addend: 0x0, symName: '__ZN4core3ptr267drop_in_place$LT$pyo3_async_runtimes..generic..future_into_py_with_locals$LT$pyo3_async_runtimes..tokio..TokioRuntime$C$_skreaver..a2a..client..PyA2aClient..send_message..$u7b$$u7b$closure$u7d$$u7d$$C$_skreaver..a2a..types..PyTask$GT$..$u7b$$u7b$closure$u7d$$u7d$$GT$17hc4400d43b0c04680E', symObjAddr: 0x186C, symBinAddr: 0x9D58, symSize: 0x1C4 }
  - { offset: 0x34506, size: 0x8, addend: 0x0, symName: '__ZN4core3ptr267drop_in_place$LT$tokio..task..task_local..TaskLocalFuture$LT$once_cell..unsync..OnceCell$LT$pyo3_async_runtimes..TaskLocals$GT$$C$pyo3_async_runtimes..generic..Cancellable$LT$_skreaver..a2a..client..PyA2aClient..get_agent_card..$u7b$$u7b$closure$u7d$$u7d$$GT$$GT$$GT$17h4fb9ee0a2efeb5b4E', symObjAddr: 0x1A30, symBinAddr: 0x9F1C, symSize: 0xBC }
  - { offset: 0x34640, size: 0x8, addend: 0x0, symName: '__ZN4core3ptr268drop_in_place$LT$pyo3_async_runtimes..generic..future_into_py_with_locals$LT$pyo3_async_runtimes..tokio..TokioRuntime$C$_skreaver..a2a..client..PyA2aClient..continue_task..$u7b$$u7b$closure$u7d$$u7d$$C$_skreaver..a2a..types..PyTask$GT$..$u7b$$u7b$closure$u7d$$u7d$$GT$17hcc95eab0dc351d4cE', symObjAddr: 0x1AEC, symBinAddr: 0x9FD8, symSize: 0x1C4 }
  - { offset: 0x34915, size: 0x8, addend: 0x0, symName: '__ZN4core3ptr268drop_in_place$LT$pyo3_async_runtimes..generic..future_into_py_with_locals$LT$pyo3_async_runtimes..tokio..TokioRuntime$C$_skreaver..a2a..client..PyA2aClient..wait_for_task..$u7b$$u7b$closure$u7d$$u7d$$C$_skreaver..a2a..types..PyTask$GT$..$u7b$$u7b$closure$u7d$$u7d$$GT$17h6308346499182bbbE', symObjAddr: 0x1CB0, symBinAddr: 0xA19C, symSize: 0x1C4 }
  - { offset: 0x34BEA, size: 0x8, addend: 0x0, symName: '__ZN4core3ptr274drop_in_place$LT$pyo3_async_runtimes..generic..future_into_py_with_locals$LT$pyo3_async_runtimes..tokio..TokioRuntime$C$_skreaver..a2a..client..PyA2aClient..get_agent_card..$u7b$$u7b$closure$u7d$$u7d$$C$_skreaver..a2a..types..PyAgentCard$GT$..$u7b$$u7b$closure$u7d$$u7d$$GT$17h7bebb759383aba8aE', symObjAddr: 0x1E74, symBinAddr: 0xA360, symSize: 0x1C4 }
  - { offset: 0x34EBF, size: 0x8, addend: 0x0, symName: '__ZN4core3ptr288drop_in_place$LT$pyo3_async_runtimes..generic..future_into_py_with_locals$LT$pyo3_async_runtimes..tokio..TokioRuntime$C$_skreaver..a2a..client..PyA2aClient..send..$u7b$$u7b$closure$u7d$$u7d$$C$_skreaver..a2a..types..PyTask$GT$..$u7b$$u7b$closure$u7d$$u7d$..$u7b$$u7b$closure$u7d$$u7d$$GT$17h8f9c8c59acc5c1dbE', symObjAddr: 0x2038, symBinAddr: 0xA524, symSize: 0x19C }
  - { offset: 0x35137, size: 0x8, addend: 0x0, symName: '__ZN4core3ptr292drop_in_place$LT$pyo3_async_runtimes..generic..future_into_py_with_locals$LT$pyo3_async_runtimes..tokio..TokioRuntime$C$_skreaver..a2a..client..PyA2aClient..get_task..$u7b$$u7b$closure$u7d$$u7d$$C$_skreaver..a2a..types..PyTask$GT$..$u7b$$u7b$closure$u7d$$u7d$..$u7b$$u7b$closure$u7d$$u7d$$GT$17hd46fa6be90ba50f8E', symObjAddr: 0x21D4, symBinAddr: 0xA6C0, symSize: 0x19C }
  - { offset: 0x353AF, size: 0x8, addend: 0x0, symName: '__ZN4core3ptr295drop_in_place$LT$pyo3_async_runtimes..generic..future_into_py_with_locals$LT$pyo3_async_runtimes..tokio..TokioRuntime$C$_skreaver..a2a..client..PyA2aClient..cancel_task..$u7b$$u7b$closure$u7d$$u7d$$C$_skreaver..a2a..types..PyTask$GT$..$u7b$$u7b$closure$u7d$$u7d$..$u7b$$u7b$closure$u7d$$u7d$$GT$17h266345de04ab795bE', symObjAddr: 0x2370, symBinAddr: 0xA85C, symSize: 0x19C }
  - { offset: 0x35627, size: 0x8, addend: 0x0, symName: '__ZN4core3ptr296drop_in_place$LT$pyo3_async_runtimes..generic..future_into_py_with_locals$LT$pyo3_async_runtimes..tokio..TokioRuntime$C$_skreaver..a2a..client..PyA2aClient..send_message..$u7b$$u7b$closure$u7d$$u7d$$C$_skreaver..a2a..types..PyTask$GT$..$u7b$$u7b$closure$u7d$$u7d$..$u7b$$u7b$closure$u7d$$u7d$$GT$17h24ce77fdca32ccfeE', symObjAddr: 0x250C, symBinAddr: 0xA9F8, symSize: 0x19C }
  - { offset: 0x3589F, size: 0x8, addend: 0x0, symName: '__ZN4core3ptr297drop_in_place$LT$pyo3_async_runtimes..generic..future_into_py_with_locals$LT$pyo3_async_runtimes..tokio..TokioRuntime$C$_skreaver..a2a..client..PyA2aClient..continue_task..$u7b$$u7b$closure$u7d$$u7d$$C$_skreaver..a2a..types..PyTask$GT$..$u7b$$u7b$closure$u7d$$u7d$..$u7b$$u7b$closure$u7d$$u7d$$GT$17h59942c36ded14b8fE', symObjAddr: 0x26A8, symBinAddr: 0xAB94, symSize: 0x19C }
  - { offset: 0x35B17, size: 0x8, addend: 0x0, symName: '__ZN4core3ptr297drop_in_place$LT$pyo3_async_runtimes..generic..future_into_py_with_locals$LT$pyo3_async_runtimes..tokio..TokioRuntime$C$_skreaver..a2a..client..PyA2aClient..wait_for_task..$u7b$$u7b$closure$u7d$$u7d$$C$_skreaver..a2a..types..PyTask$GT$..$u7b$$u7b$closure$u7d$$u7d$..$u7b$$u7b$closure$u7d$$u7d$$GT$17h9e16a26a83c1f3daE', symObjAddr: 0x2844, symBinAddr: 0xAD30, symSize: 0x19C }
  - { offset: 0x35D8F, size: 0x8, addend: 0x0, symName: '__ZN4core3ptr303drop_in_place$LT$pyo3_async_runtimes..generic..future_into_py_with_locals$LT$pyo3_async_runtimes..tokio..TokioRuntime$C$_skreaver..a2a..client..PyA2aClient..get_agent_card..$u7b$$u7b$closure$u7d$$u7d$$C$_skreaver..a2a..types..PyAgentCard$GT$..$u7b$$u7b$closure$u7d$$u7d$..$u7b$$u7b$closure$u7d$$u7d$$GT$17hf371855f60714ac5E', symObjAddr: 0x29E0, symBinAddr: 0xAECC, symSize: 0x19C }
  - { offset: 0x36045, size: 0x8, addend: 0x0, symName: '__ZN4core3ptr37drop_in_place$LT$pyo3..err..PyErr$GT$17heba3ccd4209ed1e7E', symObjAddr: 0x2B80, symBinAddr: 0xB068, symSize: 0x40 }
  - { offset: 0x3624B, size: 0x8, addend: 0x0, symName: '__ZN4core3ptr388drop_in_place$LT$core..iter..adapters..map..Map$LT$alloc..vec..into_iter..IntoIter$LT$core..option..Option$LT$alloc..string..String$GT$$GT$$C$$LT$core..option..Option$LT$alloc..string..String$GT$$u20$as$u20$pyo3..conversion..IntoPyObject$GT$..owned_sequence_into_pyobject$LT$alloc..vec..Vec$LT$core..option..Option$LT$alloc..string..String$GT$$GT$$GT$..$u7b$$u7b$closure$u7d$$u7d$$GT$$GT$17h076ce7b69ed78a5bE', symObjAddr: 0x2BC0, symBinAddr: 0xB0A8, symSize: 0x144 }
  - { offset: 0x36535, size: 0x8, addend: 0x0, symName: '__ZN4core3ptr444drop_in_place$LT$core..iter..adapters..map..Map$LT$alloc..vec..into_iter..IntoIter$LT$pyo3..instance..Bound$LT$pyo3..types..any..PyAny$GT$$GT$$C$pyo3..types..list..PyList..new$LT$pyo3..instance..Bound$LT$pyo3..types..any..PyAny$GT$$C$alloc..vec..into_iter..IntoIter$LT$pyo3..instance..Bound$LT$pyo3..types..any..PyAny$GT$$GT$$C$alloc..vec..Vec$LT$pyo3..instance..Bound$LT$pyo3..types..any..PyAny$GT$$GT$$GT$..$u7b$$u7b$closure$u7d$$u7d$$GT$$GT$17hb0db54d704dfeb76E', symObjAddr: 0x2D08, symBinAddr: 0xB1EC, symSize: 0xC0 }
  - { offset: 0x36890, size: 0x8, addend: 0x0, symName: '__ZN4core3ptr447drop_in_place$LT$core..pin..Pin$LT$alloc..boxed..Box$LT$$LT$pyo3_async_runtimes..tokio..TokioRuntime$u20$as$u20$pyo3_async_runtimes..generic..Runtime$GT$..spawn$LT$pyo3_async_runtimes..generic..future_into_py_with_locals$LT$pyo3_async_runtimes..tokio..TokioRuntime$C$_skreaver..a2a..client..PyA2aClient..send..$u7b$$u7b$closure$u7d$$u7d$$C$_skreaver..a2a..types..PyTask$GT$..$u7b$$u7b$closure$u7d$$u7d$$GT$..$u7b$$u7b$closure$u7d$$u7d$$GT$$GT$$GT$17h05ca19c430f00b69E', symObjAddr: 0x2DC8, symBinAddr: 0xB2AC, symSize: 0xB8 }
  - { offset: 0x36A7F, size: 0x8, addend: 0x0, symName: '__ZN4core3ptr44drop_in_place$LT$reqwest..retry..Builder$GT$17hf9eceb4efcf94192E', symObjAddr: 0x2E80, symBinAddr: 0xB364, symSize: 0xA8 }
  - { offset: 0x36DA5, size: 0x8, addend: 0x0, symName: '__ZN4core3ptr451drop_in_place$LT$core..pin..Pin$LT$alloc..boxed..Box$LT$$LT$pyo3_async_runtimes..tokio..TokioRuntime$u20$as$u20$pyo3_async_runtimes..generic..Runtime$GT$..spawn$LT$pyo3_async_runtimes..generic..future_into_py_with_locals$LT$pyo3_async_runtimes..tokio..TokioRuntime$C$_skreaver..a2a..client..PyA2aClient..get_task..$u7b$$u7b$closure$u7d$$u7d$$C$_skreaver..a2a..types..PyTask$GT$..$u7b$$u7b$closure$u7d$$u7d$$GT$..$u7b$$u7b$closure$u7d$$u7d$$GT$$GT$$GT$17h2b9aeee02415d76cE', symObjAddr: 0x2F28, symBinAddr: 0xB40C, symSize: 0xB4 }
  - { offset: 0x36F82, size: 0x8, addend: 0x0, symName: '__ZN4core3ptr454drop_in_place$LT$core..pin..Pin$LT$alloc..boxed..Box$LT$$LT$pyo3_async_runtimes..tokio..TokioRuntime$u20$as$u20$pyo3_async_runtimes..generic..Runtime$GT$..spawn$LT$pyo3_async_runtimes..generic..future_into_py_with_locals$LT$pyo3_async_runtimes..tokio..TokioRuntime$C$_skreaver..a2a..client..PyA2aClient..cancel_task..$u7b$$u7b$closure$u7d$$u7d$$C$_skreaver..a2a..types..PyTask$GT$..$u7b$$u7b$closure$u7d$$u7d$$GT$..$u7b$$u7b$closure$u7d$$u7d$$GT$$GT$$GT$17ha40cb3f6da198205E', symObjAddr: 0x2FDC, symBinAddr: 0xB4C0, symSize: 0xB4 }
  - { offset: 0x3715F, size: 0x8, addend: 0x0, symName: '__ZN4core3ptr455drop_in_place$LT$core..pin..Pin$LT$alloc..boxed..Box$LT$$LT$pyo3_async_runtimes..tokio..TokioRuntime$u20$as$u20$pyo3_async_runtimes..generic..Runtime$GT$..spawn$LT$pyo3_async_runtimes..generic..future_into_py_with_locals$LT$pyo3_async_runtimes..tokio..TokioRuntime$C$_skreaver..a2a..client..PyA2aClient..send_message..$u7b$$u7b$closure$u7d$$u7d$$C$_skreaver..a2a..types..PyTask$GT$..$u7b$$u7b$closure$u7d$$u7d$$GT$..$u7b$$u7b$closure$u7d$$u7d$$GT$$GT$$GT$17h78e93fe8fa475b78E', symObjAddr: 0x3090, symBinAddr: 0xB574, symSize: 0xB8 }
  - { offset: 0x3733C, size: 0x8, addend: 0x0, symName: '__ZN4core3ptr456drop_in_place$LT$core..pin..Pin$LT$alloc..boxed..Box$LT$$LT$pyo3_async_runtimes..tokio..TokioRuntime$u20$as$u20$pyo3_async_runtimes..generic..Runtime$GT$..spawn$LT$pyo3_async_runtimes..generic..future_into_py_with_locals$LT$pyo3_async_runtimes..tokio..TokioRuntime$C$_skreaver..a2a..client..PyA2aClient..continue_task..$u7b$$u7b$closure$u7d$$u7d$$C$_skreaver..a2a..types..PyTask$GT$..$u7b$$u7b$closure$u7d$$u7d$$GT$..$u7b$$u7b$closure$u7d$$u7d$$GT$$GT$$GT$17h9066caa4cb10f42dE', symObjAddr: 0x3148, symBinAddr: 0xB62C, symSize: 0xB8 }
  - { offset: 0x37519, size: 0x8, addend: 0x0, symName: '__ZN4core3ptr456drop_in_place$LT$core..pin..Pin$LT$alloc..boxed..Box$LT$$LT$pyo3_async_runtimes..tokio..TokioRuntime$u20$as$u20$pyo3_async_runtimes..generic..Runtime$GT$..spawn$LT$pyo3_async_runtimes..generic..future_into_py_with_locals$LT$pyo3_async_runtimes..tokio..TokioRuntime$C$_skreaver..a2a..client..PyA2aClient..wait_for_task..$u7b$$u7b$closure$u7d$$u7d$$C$_skreaver..a2a..types..PyTask$GT$..$u7b$$u7b$closure$u7d$$u7d$$GT$..$u7b$$u7b$closure$u7d$$u7d$$GT$$GT$$GT$17hcb82ccf59a891bd2E', symObjAddr: 0x3200, symBinAddr: 0xB6E4, symSize: 0xB4 }
  - { offset: 0x376F6, size: 0x8, addend: 0x0, symName: '__ZN4core3ptr462drop_in_place$LT$core..pin..Pin$LT$alloc..boxed..Box$LT$$LT$pyo3_async_runtimes..tokio..TokioRuntime$u20$as$u20$pyo3_async_runtimes..generic..Runtime$GT$..spawn$LT$pyo3_async_runtimes..generic..future_into_py_with_locals$LT$pyo3_async_runtimes..tokio..TokioRuntime$C$_skreaver..a2a..client..PyA2aClient..get_agent_card..$u7b$$u7b$closure$u7d$$u7d$$C$_skreaver..a2a..types..PyAgentCard$GT$..$u7b$$u7b$closure$u7d$$u7d$$GT$..$u7b$$u7b$closure$u7d$$u7d$$GT$$GT$$GT$17hf03ab40468572c25E', symObjAddr: 0x32CC, symBinAddr: 0xB798, symSize: 0xB4 }
  - { offset: 0x378A7, size: 0x8, addend: 0x0, symName: '__ZN4core3ptr46drop_in_place$LT$reqwest..redirect..Policy$GT$17h66962b96eb099ce2E', symObjAddr: 0x3384, symBinAddr: 0xB84C, symSize: 0xD8 }
  - { offset: 0x37AAD, size: 0x8, addend: 0x0, symName: '__ZN4core3ptr476drop_in_place$LT$core..pin..Pin$LT$alloc..boxed..Box$LT$$LT$pyo3_async_runtimes..tokio..TokioRuntime$u20$as$u20$pyo3_async_runtimes..generic..Runtime$GT$..spawn$LT$pyo3_async_runtimes..generic..future_into_py_with_locals$LT$pyo3_async_runtimes..tokio..TokioRuntime$C$_skreaver..a2a..client..PyA2aClient..send..$u7b$$u7b$closure$u7d$$u7d$$C$_skreaver..a2a..types..PyTask$GT$..$u7b$$u7b$closure$u7d$$u7d$..$u7b$$u7b$closure$u7d$$u7d$$GT$..$u7b$$u7b$closure$u7d$$u7d$$GT$$GT$$GT$17h39b5db561dbebdbfE', symObjAddr: 0x345C, symBinAddr: 0xB924, symSize: 0xB8 }
  - { offset: 0x37C8A, size: 0x8, addend: 0x0, symName: '__ZN4core3ptr480drop_in_place$LT$core..pin..Pin$LT$alloc..boxed..Box$LT$$LT$pyo3_async_runtimes..tokio..TokioRuntime$u20$as$u20$pyo3_async_runtimes..generic..Runtime$GT$..spawn$LT$pyo3_async_runtimes..generic..future_into_py_with_locals$LT$pyo3_async_runtimes..tokio..TokioRuntime$C$_skreaver..a2a..client..PyA2aClient..get_task..$u7b$$u7b$closure$u7d$$u7d$$C$_skreaver..a2a..types..PyTask$GT$..$u7b$$u7b$closure$u7d$$u7d$..$u7b$$u7b$closure$u7d$$u7d$$GT$..$u7b$$u7b$closure$u7d$$u7d$$GT$$GT$$GT$17hfd4ec0d17a9c40e7E', symObjAddr: 0x3514, symBinAddr: 0xB9DC, symSize: 0xB4 }
  - { offset: 0x37E67, size: 0x8, addend: 0x0, symName: '__ZN4core3ptr483drop_in_place$LT$core..pin..Pin$LT$alloc..boxed..Box$LT$$LT$pyo3_async_runtimes..tokio..TokioRuntime$u20$as$u20$pyo3_async_runtimes..generic..Runtime$GT$..spawn$LT$pyo3_async_runtimes..generic..future_into_py_with_locals$LT$pyo3_async_runtimes..tokio..TokioRuntime$C$_skreaver..a2a..client..PyA2aClient..cancel_task..$u7b$$u7b$closure$u7d$$u7d$$C$_skreaver..a2a..types..PyTask$GT$..$u7b$$u7b$closure$u7d$$u7d$..$u7b$$u7b$closure$u7d$$u7d$$GT$..$u7b$$u7b$closure$u7d$$u7d$$GT$$GT$$GT$17hc0f6522f0f8af426E', symObjAddr: 0x35C8, symBinAddr: 0xBA90, symSize: 0xB4 }
  - { offset: 0x38044, size: 0x8, addend: 0x0, symName: '__ZN4core3ptr484drop_in_place$LT$core..pin..Pin$LT$alloc..boxed..Box$LT$$LT$pyo3_async_runtimes..tokio..TokioRuntime$u20$as$u20$pyo3_async_runtimes..generic..Runtime$GT$..spawn$LT$pyo3_async_runtimes..generic..future_into_py_with_locals$LT$pyo3_async_runtimes..tokio..TokioRuntime$C$_skreaver..a2a..client..PyA2aClient..send_message..$u7b$$u7b$closure$u7d$$u7d$$C$_skreaver..a2a..types..PyTask$GT$..$u7b$$u7b$closure$u7d$$u7d$..$u7b$$u7b$closure$u7d$$u7d$$GT$..$u7b$$u7b$closure$u7d$$u7d$$GT$$GT$$GT$17hdf94490273e46d56E', symObjAddr: 0x367C, symBinAddr: 0xBB44, symSize: 0xB8 }
  - { offset: 0x38221, size: 0x8, addend: 0x0, symName: '__ZN4core3ptr485drop_in_place$LT$core..pin..Pin$LT$alloc..boxed..Box$LT$$LT$pyo3_async_runtimes..tokio..TokioRuntime$u20$as$u20$pyo3_async_runtimes..generic..Runtime$GT$..spawn$LT$pyo3_async_runtimes..generic..future_into_py_with_locals$LT$pyo3_async_runtimes..tokio..TokioRuntime$C$_skreaver..a2a..client..PyA2aClient..continue_task..$u7b$$u7b$closure$u7d$$u7d$$C$_skreaver..a2a..types..PyTask$GT$..$u7b$$u7b$closure$u7d$$u7d$..$u7b$$u7b$closure$u7d$$u7d$$GT$..$u7b$$u7b$closure$u7d$$u7d$$GT$$GT$$GT$17h60996b717618e724E', symObjAddr: 0x3734, symBinAddr: 0xBBFC, symSize: 0xB8 }
  - { offset: 0x383FE, size: 0x8, addend: 0x0, symName: '__ZN4core3ptr485drop_in_place$LT$core..pin..Pin$LT$alloc..boxed..Box$LT$$LT$pyo3_async_runtimes..tokio..TokioRuntime$u20$as$u20$pyo3_async_runtimes..generic..Runtime$GT$..spawn$LT$pyo3_async_runtimes..generic..future_into_py_with_locals$LT$pyo3_async_runtimes..tokio..TokioRuntime$C$_skreaver..a2a..client..PyA2aClient..wait_for_task..$u7b$$u7b$closure$u7d$$u7d$$C$_skreaver..a2a..types..PyTask$GT$..$u7b$$u7b$closure$u7d$$u7d$..$u7b$$u7b$closure$u7d$$u7d$$GT$..$u7b$$u7b$closure$u7d$$u7d$$GT$$GT$$GT$17ha2805b1cd1ecaf63E', symObjAddr: 0x37EC, symBinAddr: 0xBCB4, symSize: 0xB4 }
  - { offset: 0x385DB, size: 0x8, addend: 0x0, symName: '__ZN4core3ptr491drop_in_place$LT$core..pin..Pin$LT$alloc..boxed..Box$LT$$LT$pyo3_async_runtimes..tokio..TokioRuntime$u20$as$u20$pyo3_async_runtimes..generic..Runtime$GT$..spawn$LT$pyo3_async_runtimes..generic..future_into_py_with_locals$LT$pyo3_async_runtimes..tokio..TokioRuntime$C$_skreaver..a2a..client..PyA2aClient..get_agent_card..$u7b$$u7b$closure$u7d$$u7d$$C$_skreaver..a2a..types..PyAgentCard$GT$..$u7b$$u7b$closure$u7d$$u7d$..$u7b$$u7b$closure$u7d$$u7d$$GT$..$u7b$$u7b$closure$u7d$$u7d$$GT$$GT$$GT$17h594246f80831daaeE', symObjAddr: 0x38A0, symBinAddr: 0xBD68, symSize: 0xB4 }
  - { offset: 0x387CA, size: 0x8, addend: 0x0, symName: '__ZN4core3ptr492drop_in_place$LT$tokio..runtime..task..core..CoreStage$LT$core..pin..Pin$LT$alloc..boxed..Box$LT$$LT$pyo3_async_runtimes..tokio..TokioRuntime$u20$as$u20$pyo3_async_runtimes..generic..Runtime$GT$..spawn$LT$pyo3_async_runtimes..generic..future_into_py_with_locals$LT$pyo3_async_runtimes..tokio..TokioRuntime$C$_skreaver..a2a..client..PyA2aClient..send..$u7b$$u7b$closure$u7d$$u7d$$C$_skreaver..a2a..types..PyTask$GT$..$u7b$$u7b$closure$u7d$$u7d$$GT$..$u7b$$u7b$closure$u7d$$u7d$$GT$$GT$$GT$$GT$17h25789d672cd97dd0E', symObjAddr: 0x3954, symBinAddr: 0xBE1C, symSize: 0x28 }
  - { offset: 0x387EA, size: 0x8, addend: 0x0, symName: '__ZN4core3ptr492drop_in_place$LT$tokio..runtime..task..core..CoreStage$LT$core..pin..Pin$LT$alloc..boxed..Box$LT$$LT$pyo3_async_runtimes..tokio..TokioRuntime$u20$as$u20$pyo3_async_runtimes..generic..Runtime$GT$..spawn$LT$pyo3_async_runtimes..generic..future_into_py_with_locals$LT$pyo3_async_runtimes..tokio..TokioRuntime$C$_skreaver..a2a..client..PyA2aClient..send..$u7b$$u7b$closure$u7d$$u7d$$C$_skreaver..a2a..types..PyTask$GT$..$u7b$$u7b$closure$u7d$$u7d$$GT$..$u7b$$u7b$closure$u7d$$u7d$$GT$$GT$$GT$$GT$17h25789d672cd97dd0E', symObjAddr: 0x3954, symBinAddr: 0xBE1C, symSize: 0x28 }
  - { offset: 0x38808, size: 0x8, addend: 0x0, symName: '__ZN4core3ptr492drop_in_place$LT$tokio..runtime..task..core..CoreStage$LT$core..pin..Pin$LT$alloc..boxed..Box$LT$$LT$pyo3_async_runtimes..tokio..TokioRuntime$u20$as$u20$pyo3_async_runtimes..generic..Runtime$GT$..spawn$LT$pyo3_async_runtimes..generic..future_into_py_with_locals$LT$pyo3_async_runtimes..tokio..TokioRuntime$C$_skreaver..a2a..client..PyA2aClient..send..$u7b$$u7b$closure$u7d$$u7d$$C$_skreaver..a2a..types..PyTask$GT$..$u7b$$u7b$closure$u7d$$u7d$$GT$..$u7b$$u7b$closure$u7d$$u7d$$GT$$GT$$GT$$GT$17h25789d672cd97dd0E', symObjAddr: 0x3954, symBinAddr: 0xBE1C, symSize: 0x28 }
  - { offset: 0x38826, size: 0x8, addend: 0x0, symName: '__ZN4core3ptr492drop_in_place$LT$tokio..runtime..task..core..CoreStage$LT$core..pin..Pin$LT$alloc..boxed..Box$LT$$LT$pyo3_async_runtimes..tokio..TokioRuntime$u20$as$u20$pyo3_async_runtimes..generic..Runtime$GT$..spawn$LT$pyo3_async_runtimes..generic..future_into_py_with_locals$LT$pyo3_async_runtimes..tokio..TokioRuntime$C$_skreaver..a2a..client..PyA2aClient..send..$u7b$$u7b$closure$u7d$$u7d$$C$_skreaver..a2a..types..PyTask$GT$..$u7b$$u7b$closure$u7d$$u7d$$GT$..$u7b$$u7b$closure$u7d$$u7d$$GT$$GT$$GT$$GT$17h25789d672cd97dd0E', symObjAddr: 0x3954, symBinAddr: 0xBE1C, symSize: 0x28 }
  - { offset: 0x388C0, size: 0x8, addend: 0x0, symName: '__ZN4core3ptr496drop_in_place$LT$tokio..runtime..task..core..CoreStage$LT$core..pin..Pin$LT$alloc..boxed..Box$LT$$LT$pyo3_async_runtimes..tokio..TokioRuntime$u20$as$u20$pyo3_async_runtimes..generic..Runtime$GT$..spawn$LT$pyo3_async_runtimes..generic..future_into_py_with_locals$LT$pyo3_async_runtimes..tokio..TokioRuntime$C$_skreaver..a2a..client..PyA2aClient..get_task..$u7b$$u7b$closure$u7d$$u7d$$C$_skreaver..a2a..types..PyTask$GT$..$u7b$$u7b$closure$u7d$$u7d$$GT$..$u7b$$u7b$closure$u7d$$u7d$$GT$$GT$$GT$$GT$17h51ecaa41125e4cb2E', symObjAddr: 0x397C, symBinAddr: 0xBE44, symSize: 0x28 }
  - { offset: 0x388E0, size: 0x8, addend: 0x0, symName: '__ZN4core3ptr496drop_in_place$LT$tokio..runtime..task..core..CoreStage$LT$core..pin..Pin$LT$alloc..boxed..Box$LT$$LT$pyo3_async_runtimes..tokio..TokioRuntime$u20$as$u20$pyo3_async_runtimes..generic..Runtime$GT$..spawn$LT$pyo3_async_runtimes..generic..future_into_py_with_locals$LT$pyo3_async_runtimes..tokio..TokioRuntime$C$_skreaver..a2a..client..PyA2aClient..get_task..$u7b$$u7b$closure$u7d$$u7d$$C$_skreaver..a2a..types..PyTask$GT$..$u7b$$u7b$closure$u7d$$u7d$$GT$..$u7b$$u7b$closure$u7d$$u7d$$GT$$GT$$GT$$GT$17h51ecaa41125e4cb2E', symObjAddr: 0x397C, symBinAddr: 0xBE44, symSize: 0x28 }
  - { offset: 0x388FE, size: 0x8, addend: 0x0, symName: '__ZN4core3ptr496drop_in_place$LT$tokio..runtime..task..core..CoreStage$LT$core..pin..Pin$LT$alloc..boxed..Box$LT$$LT$pyo3_async_runtimes..tokio..TokioRuntime$u20$as$u20$pyo3_async_runtimes..generic..Runtime$GT$..spawn$LT$pyo3_async_runtimes..generic..future_into_py_with_locals$LT$pyo3_async_runtimes..tokio..TokioRuntime$C$_skreaver..a2a..client..PyA2aClient..get_task..$u7b$$u7b$closure$u7d$$u7d$$C$_skreaver..a2a..types..PyTask$GT$..$u7b$$u7b$closure$u7d$$u7d$$GT$..$u7b$$u7b$closure$u7d$$u7d$$GT$$GT$$GT$$GT$17h51ecaa41125e4cb2E', symObjAddr: 0x397C, symBinAddr: 0xBE44, symSize: 0x28 }
  - { offset: 0x3891C, size: 0x8, addend: 0x0, symName: '__ZN4core3ptr496drop_in_place$LT$tokio..runtime..task..core..CoreStage$LT$core..pin..Pin$LT$alloc..boxed..Box$LT$$LT$pyo3_async_runtimes..tokio..TokioRuntime$u20$as$u20$pyo3_async_runtimes..generic..Runtime$GT$..spawn$LT$pyo3_async_runtimes..generic..future_into_py_with_locals$LT$pyo3_async_runtimes..tokio..TokioRuntime$C$_skreaver..a2a..client..PyA2aClient..get_task..$u7b$$u7b$closure$u7d$$u7d$$C$_skreaver..a2a..types..PyTask$GT$..$u7b$$u7b$closure$u7d$$u7d$$GT$..$u7b$$u7b$closure$u7d$$u7d$$GT$$GT$$GT$$GT$17h51ecaa41125e4cb2E', symObjAddr: 0x397C, symBinAddr: 0xBE44, symSize: 0x28 }
  - { offset: 0x389B6, size: 0x8, addend: 0x0, symName: '__ZN4core3ptr499drop_in_place$LT$tokio..runtime..task..core..CoreStage$LT$core..pin..Pin$LT$alloc..boxed..Box$LT$$LT$pyo3_async_runtimes..tokio..TokioRuntime$u20$as$u20$pyo3_async_runtimes..generic..Runtime$GT$..spawn$LT$pyo3_async_runtimes..generic..future_into_py_with_locals$LT$pyo3_async_runtimes..tokio..TokioRuntime$C$_skreaver..a2a..client..PyA2aClient..cancel_task..$u7b$$u7b$closure$u7d$$u7d$$C$_skreaver..a2a..types..PyTask$GT$..$u7b$$u7b$closure$u7d$$u7d$$GT$..$u7b$$u7b$closure$u7d$$u7d$$GT$$GT$$GT$$GT$17h6a93672d8c6b1dc9E', symObjAddr: 0x39A4, symBinAddr: 0xBE6C, symSize: 0x28 }
  - { offset: 0x389D6, size: 0x8, addend: 0x0, symName: '__ZN4core3ptr499drop_in_place$LT$tokio..runtime..task..core..CoreStage$LT$core..pin..Pin$LT$alloc..boxed..Box$LT$$LT$pyo3_async_runtimes..tokio..TokioRuntime$u20$as$u20$pyo3_async_runtimes..generic..Runtime$GT$..spawn$LT$pyo3_async_runtimes..generic..future_into_py_with_locals$LT$pyo3_async_runtimes..tokio..TokioRuntime$C$_skreaver..a2a..client..PyA2aClient..cancel_task..$u7b$$u7b$closure$u7d$$u7d$$C$_skreaver..a2a..types..PyTask$GT$..$u7b$$u7b$closure$u7d$$u7d$$GT$..$u7b$$u7b$closure$u7d$$u7d$$GT$$GT$$GT$$GT$17h6a93672d8c6b1dc9E', symObjAddr: 0x39A4, symBinAddr: 0xBE6C, symSize: 0x28 }
  - { offset: 0x389F4, size: 0x8, addend: 0x0, symName: '__ZN4core3ptr499drop_in_place$LT$tokio..runtime..task..core..CoreStage$LT$core..pin..Pin$LT$alloc..boxed..Box$LT$$LT$pyo3_async_runtimes..tokio..TokioRuntime$u20$as$u20$pyo3_async_runtimes..generic..Runtime$GT$..spawn$LT$pyo3_async_runtimes..generic..future_into_py_with_locals$LT$pyo3_async_runtimes..tokio..TokioRuntime$C$_skreaver..a2a..client..PyA2aClient..cancel_task..$u7b$$u7b$closure$u7d$$u7d$$C$_skreaver..a2a..types..PyTask$GT$..$u7b$$u7b$closure$u7d$$u7d$$GT$..$u7b$$u7b$closure$u7d$$u7d$$GT$$GT$$GT$$GT$17h6a93672d8c6b1dc9E', symObjAddr: 0x39A4, symBinAddr: 0xBE6C, symSize: 0x28 }
  - { offset: 0x38A12, size: 0x8, addend: 0x0, symName: '__ZN4core3ptr499drop_in_place$LT$tokio..runtime..task..core..CoreStage$LT$core..pin..Pin$LT$alloc..boxed..Box$LT$$LT$pyo3_async_runtimes..tokio..TokioRuntime$u20$as$u20$pyo3_async_runtimes..generic..Runtime$GT$..spawn$LT$pyo3_async_runtimes..generic..future_into_py_with_locals$LT$pyo3_async_runtimes..tokio..TokioRuntime$C$_skreaver..a2a..client..PyA2aClient..cancel_task..$u7b$$u7b$closure$u7d$$u7d$$C$_skreaver..a2a..types..PyTask$GT$..$u7b$$u7b$closure$u7d$$u7d$$GT$..$u7b$$u7b$closure$u7d$$u7d$$GT$$GT$$GT$$GT$17h6a93672d8c6b1dc9E', symObjAddr: 0x39A4, symBinAddr: 0xBE6C, symSize: 0x28 }
  - { offset: 0x38AAC, size: 0x8, addend: 0x0, symName: '__ZN4core3ptr500drop_in_place$LT$tokio..runtime..task..core..CoreStage$LT$core..pin..Pin$LT$alloc..boxed..Box$LT$$LT$pyo3_async_runtimes..tokio..TokioRuntime$u20$as$u20$pyo3_async_runtimes..generic..Runtime$GT$..spawn$LT$pyo3_async_runtimes..generic..future_into_py_with_locals$LT$pyo3_async_runtimes..tokio..TokioRuntime$C$_skreaver..a2a..client..PyA2aClient..send_message..$u7b$$u7b$closure$u7d$$u7d$$C$_skreaver..a2a..types..PyTask$GT$..$u7b$$u7b$closure$u7d$$u7d$$GT$..$u7b$$u7b$closure$u7d$$u7d$$GT$$GT$$GT$$GT$17h7f2f38d4db97530cE', symObjAddr: 0x39CC, symBinAddr: 0xBE94, symSize: 0x28 }
  - { offset: 0x38ACC, size: 0x8, addend: 0x0, symName: '__ZN4core3ptr500drop_in_place$LT$tokio..runtime..task..core..CoreStage$LT$core..pin..Pin$LT$alloc..boxed..Box$LT$$LT$pyo3_async_runtimes..tokio..TokioRuntime$u20$as$u20$pyo3_async_runtimes..generic..Runtime$GT$..spawn$LT$pyo3_async_runtimes..generic..future_into_py_with_locals$LT$pyo3_async_runtimes..tokio..TokioRuntime$C$_skreaver..a2a..client..PyA2aClient..send_message..$u7b$$u7b$closure$u7d$$u7d$$C$_skreaver..a2a..types..PyTask$GT$..$u7b$$u7b$closure$u7d$$u7d$$GT$..$u7b$$u7b$closure$u7d$$u7d$$GT$$GT$$GT$$GT$17h7f2f38d4db97530cE', symObjAddr: 0x39CC, symBinAddr: 0xBE94, symSize: 0x28 }
  - { offset: 0x38AEA, size: 0x8, addend: 0x0, symName: '__ZN4core3ptr500drop_in_place$LT$tokio..runtime..task..core..CoreStage$LT$core..pin..Pin$LT$alloc..boxed..Box$LT$$LT$pyo3_async_runtimes..tokio..TokioRuntime$u20$as$u20$pyo3_async_runtimes..generic..Runtime$GT$..spawn$LT$pyo3_async_runtimes..generic..future_into_py_with_locals$LT$pyo3_async_runtimes..tokio..TokioRuntime$C$_skreaver..a2a..client..PyA2aClient..send_message..$u7b$$u7b$closure$u7d$$u7d$$C$_skreaver..a2a..types..PyTask$GT$..$u7b$$u7b$closure$u7d$$u7d$$GT$..$u7b$$u7b$closure$u7d$$u7d$$GT$$GT$$GT$$GT$17h7f2f38d4db97530cE', symObjAddr: 0x39CC, symBinAddr: 0xBE94, symSize: 0x28 }
  - { offset: 0x38B08, size: 0x8, addend: 0x0, symName: '__ZN4core3ptr500drop_in_place$LT$tokio..runtime..task..core..CoreStage$LT$core..pin..Pin$LT$alloc..boxed..Box$LT$$LT$pyo3_async_runtimes..tokio..TokioRuntime$u20$as$u20$pyo3_async_runtimes..generic..Runtime$GT$..spawn$LT$pyo3_async_runtimes..generic..future_into_py_with_locals$LT$pyo3_async_runtimes..tokio..TokioRuntime$C$_skreaver..a2a..client..PyA2aClient..send_message..$u7b$$u7b$closure$u7d$$u7d$$C$_skreaver..a2a..types..PyTask$GT$..$u7b$$u7b$closure$u7d$$u7d$$GT$..$u7b$$u7b$closure$u7d$$u7d$$GT$$GT$$GT$$GT$17h7f2f38d4db97530cE', symObjAddr: 0x39CC, symBinAddr: 0xBE94, symSize: 0x28 }
  - { offset: 0x38BA2, size: 0x8, addend: 0x0, symName: '__ZN4core3ptr501drop_in_place$LT$tokio..runtime..task..core..CoreStage$LT$core..pin..Pin$LT$alloc..boxed..Box$LT$$LT$pyo3_async_runtimes..tokio..TokioRuntime$u20$as$u20$pyo3_async_runtimes..generic..Runtime$GT$..spawn$LT$pyo3_async_runtimes..generic..future_into_py_with_locals$LT$pyo3_async_runtimes..tokio..TokioRuntime$C$_skreaver..a2a..client..PyA2aClient..continue_task..$u7b$$u7b$closure$u7d$$u7d$$C$_skreaver..a2a..types..PyTask$GT$..$u7b$$u7b$closure$u7d$$u7d$$GT$..$u7b$$u7b$closure$u7d$$u7d$$GT$$GT$$GT$$GT$17h4e2b64758b43578aE', symObjAddr: 0x39F4, symBinAddr: 0xBEBC, symSize: 0x28 }
  - { offset: 0x38BC2, size: 0x8, addend: 0x0, symName: '__ZN4core3ptr501drop_in_place$LT$tokio..runtime..task..core..CoreStage$LT$core..pin..Pin$LT$alloc..boxed..Box$LT$$LT$pyo3_async_runtimes..tokio..TokioRuntime$u20$as$u20$pyo3_async_runtimes..generic..Runtime$GT$..spawn$LT$pyo3_async_runtimes..generic..future_into_py_with_locals$LT$pyo3_async_runtimes..tokio..TokioRuntime$C$_skreaver..a2a..client..PyA2aClient..continue_task..$u7b$$u7b$closure$u7d$$u7d$$C$_skreaver..a2a..types..PyTask$GT$..$u7b$$u7b$closure$u7d$$u7d$$GT$..$u7b$$u7b$closure$u7d$$u7d$$GT$$GT$$GT$$GT$17h4e2b64758b43578aE', symObjAddr: 0x39F4, symBinAddr: 0xBEBC, symSize: 0x28 }
  - { offset: 0x38BE0, size: 0x8, addend: 0x0, symName: '__ZN4core3ptr501drop_in_place$LT$tokio..runtime..task..core..CoreStage$LT$core..pin..Pin$LT$alloc..boxed..Box$LT$$LT$pyo3_async_runtimes..tokio..TokioRuntime$u20$as$u20$pyo3_async_runtimes..generic..Runtime$GT$..spawn$LT$pyo3_async_runtimes..generic..future_into_py_with_locals$LT$pyo3_async_runtimes..tokio..TokioRuntime$C$_skreaver..a2a..client..PyA2aClient..continue_task..$u7b$$u7b$closure$u7d$$u7d$$C$_skreaver..a2a..types..PyTask$GT$..$u7b$$u7b$closure$u7d$$u7d$$GT$..$u7b$$u7b$closure$u7d$$u7d$$GT$$GT$$GT$$GT$17h4e2b64758b43578aE', symObjAddr: 0x39F4, symBinAddr: 0xBEBC, symSize: 0x28 }
  - { offset: 0x38BFE, size: 0x8, addend: 0x0, symName: '__ZN4core3ptr501drop_in_place$LT$tokio..runtime..task..core..CoreStage$LT$core..pin..Pin$LT$alloc..boxed..Box$LT$$LT$pyo3_async_runtimes..tokio..TokioRuntime$u20$as$u20$pyo3_async_runtimes..generic..Runtime$GT$..spawn$LT$pyo3_async_runtimes..generic..future_into_py_with_locals$LT$pyo3_async_runtimes..tokio..TokioRuntime$C$_skreaver..a2a..client..PyA2aClient..continue_task..$u7b$$u7b$closure$u7d$$u7d$$C$_skreaver..a2a..types..PyTask$GT$..$u7b$$u7b$closure$u7d$$u7d$$GT$..$u7b$$u7b$closure$u7d$$u7d$$GT$$GT$$GT$$GT$17h4e2b64758b43578aE', symObjAddr: 0x39F4, symBinAddr: 0xBEBC, symSize: 0x28 }
  - { offset: 0x38C98, size: 0x8, addend: 0x0, symName: '__ZN4core3ptr501drop_in_place$LT$tokio..runtime..task..core..CoreStage$LT$core..pin..Pin$LT$alloc..boxed..Box$LT$$LT$pyo3_async_runtimes..tokio..TokioRuntime$u20$as$u20$pyo3_async_runtimes..generic..Runtime$GT$..spawn$LT$pyo3_async_runtimes..generic..future_into_py_with_locals$LT$pyo3_async_runtimes..tokio..TokioRuntime$C$_skreaver..a2a..client..PyA2aClient..wait_for_task..$u7b$$u7b$closure$u7d$$u7d$$C$_skreaver..a2a..types..PyTask$GT$..$u7b$$u7b$closure$u7d$$u7d$$GT$..$u7b$$u7b$closure$u7d$$u7d$$GT$$GT$$GT$$GT$17h48c575ddf739a511E', symObjAddr: 0x3A1C, symBinAddr: 0xBEE4, symSize: 0x28 }
  - { offset: 0x38CB8, size: 0x8, addend: 0x0, symName: '__ZN4core3ptr501drop_in_place$LT$tokio..runtime..task..core..CoreStage$LT$core..pin..Pin$LT$alloc..boxed..Box$LT$$LT$pyo3_async_runtimes..tokio..TokioRuntime$u20$as$u20$pyo3_async_runtimes..generic..Runtime$GT$..spawn$LT$pyo3_async_runtimes..generic..future_into_py_with_locals$LT$pyo3_async_runtimes..tokio..TokioRuntime$C$_skreaver..a2a..client..PyA2aClient..wait_for_task..$u7b$$u7b$closure$u7d$$u7d$$C$_skreaver..a2a..types..PyTask$GT$..$u7b$$u7b$closure$u7d$$u7d$$GT$..$u7b$$u7b$closure$u7d$$u7d$$GT$$GT$$GT$$GT$17h48c575ddf739a511E', symObjAddr: 0x3A1C, symBinAddr: 0xBEE4, symSize: 0x28 }
  - { offset: 0x38CD6, size: 0x8, addend: 0x0, symName: '__ZN4core3ptr501drop_in_place$LT$tokio..runtime..task..core..CoreStage$LT$core..pin..Pin$LT$alloc..boxed..Box$LT$$LT$pyo3_async_runtimes..tokio..TokioRuntime$u20$as$u20$pyo3_async_runtimes..generic..Runtime$GT$..spawn$LT$pyo3_async_runtimes..generic..future_into_py_with_locals$LT$pyo3_async_runtimes..tokio..TokioRuntime$C$_skreaver..a2a..client..PyA2aClient..wait_for_task..$u7b$$u7b$closure$u7d$$u7d$$C$_skreaver..a2a..types..PyTask$GT$..$u7b$$u7b$closure$u7d$$u7d$$GT$..$u7b$$u7b$closure$u7d$$u7d$$GT$$GT$$GT$$GT$17h48c575ddf739a511E', symObjAddr: 0x3A1C, symBinAddr: 0xBEE4, symSize: 0x28 }
  - { offset: 0x38CF4, size: 0x8, addend: 0x0, symName: '__ZN4core3ptr501drop_in_place$LT$tokio..runtime..task..core..CoreStage$LT$core..pin..Pin$LT$alloc..boxed..Box$LT$$LT$pyo3_async_runtimes..tokio..TokioRuntime$u20$as$u20$pyo3_async_runtimes..generic..Runtime$GT$..spawn$LT$pyo3_async_runtimes..generic..future_into_py_with_locals$LT$pyo3_async_runtimes..tokio..TokioRuntime$C$_skreaver..a2a..client..PyA2aClient..wait_for_task..$u7b$$u7b$closure$u7d$$u7d$$C$_skreaver..a2a..types..PyTask$GT$..$u7b$$u7b$closure$u7d$$u7d$$GT$..$u7b$$u7b$closure$u7d$$u7d$$GT$$GT$$GT$$GT$17h48c575ddf739a511E', symObjAddr: 0x3A1C, symBinAddr: 0xBEE4, symSize: 0x28 }
  - { offset: 0x38D8E, size: 0x8, addend: 0x0, symName: '__ZN4core3ptr507drop_in_place$LT$tokio..runtime..task..core..CoreStage$LT$core..pin..Pin$LT$alloc..boxed..Box$LT$$LT$pyo3_async_runtimes..tokio..TokioRuntime$u20$as$u20$pyo3_async_runtimes..generic..Runtime$GT$..spawn$LT$pyo3_async_runtimes..generic..future_into_py_with_locals$LT$pyo3_async_runtimes..tokio..TokioRuntime$C$_skreaver..a2a..client..PyA2aClient..get_agent_card..$u7b$$u7b$closure$u7d$$u7d$$C$_skreaver..a2a..types..PyAgentCard$GT$..$u7b$$u7b$closure$u7d$$u7d$$GT$..$u7b$$u7b$closure$u7d$$u7d$$GT$$GT$$GT$$GT$17hb194a9d9d6889374E', symObjAddr: 0x3A44, symBinAddr: 0xBF0C, symSize: 0x28 }
  - { offset: 0x38DAE, size: 0x8, addend: 0x0, symName: '__ZN4core3ptr507drop_in_place$LT$tokio..runtime..task..core..CoreStage$LT$core..pin..Pin$LT$alloc..boxed..Box$LT$$LT$pyo3_async_runtimes..tokio..TokioRuntime$u20$as$u20$pyo3_async_runtimes..generic..Runtime$GT$..spawn$LT$pyo3_async_runtimes..generic..future_into_py_with_locals$LT$pyo3_async_runtimes..tokio..TokioRuntime$C$_skreaver..a2a..client..PyA2aClient..get_agent_card..$u7b$$u7b$closure$u7d$$u7d$$C$_skreaver..a2a..types..PyAgentCard$GT$..$u7b$$u7b$closure$u7d$$u7d$$GT$..$u7b$$u7b$closure$u7d$$u7d$$GT$$GT$$GT$$GT$17hb194a9d9d6889374E', symObjAddr: 0x3A44, symBinAddr: 0xBF0C, symSize: 0x28 }
  - { offset: 0x38DCC, size: 0x8, addend: 0x0, symName: '__ZN4core3ptr507drop_in_place$LT$tokio..runtime..task..core..CoreStage$LT$core..pin..Pin$LT$alloc..boxed..Box$LT$$LT$pyo3_async_runtimes..tokio..TokioRuntime$u20$as$u20$pyo3_async_runtimes..generic..Runtime$GT$..spawn$LT$pyo3_async_runtimes..generic..future_into_py_with_locals$LT$pyo3_async_runtimes..tokio..TokioRuntime$C$_skreaver..a2a..client..PyA2aClient..get_agent_card..$u7b$$u7b$closure$u7d$$u7d$$C$_skreaver..a2a..types..PyAgentCard$GT$..$u7b$$u7b$closure$u7d$$u7d$$GT$..$u7b$$u7b$closure$u7d$$u7d$$GT$$GT$$GT$$GT$17hb194a9d9d6889374E', symObjAddr: 0x3A44, symBinAddr: 0xBF0C, symSize: 0x28 }
  - { offset: 0x38DEA, size: 0x8, addend: 0x0, symName: '__ZN4core3ptr507drop_in_place$LT$tokio..runtime..task..core..CoreStage$LT$core..pin..Pin$LT$alloc..boxed..Box$LT$$LT$pyo3_async_runtimes..tokio..TokioRuntime$u20$as$u20$pyo3_async_runtimes..generic..Runtime$GT$..spawn$LT$pyo3_async_runtimes..generic..future_into_py_with_locals$LT$pyo3_async_runtimes..tokio..TokioRuntime$C$_skreaver..a2a..client..PyA2aClient..get_agent_card..$u7b$$u7b$closure$u7d$$u7d$$C$_skreaver..a2a..types..PyAgentCard$GT$..$u7b$$u7b$closure$u7d$$u7d$$GT$..$u7b$$u7b$closure$u7d$$u7d$$GT$$GT$$GT$$GT$17hb194a9d9d6889374E', symObjAddr: 0x3A44, symBinAddr: 0xBF0C, symSize: 0x28 }
  - { offset: 0x38E46, size: 0x8, addend: 0x0, symName: '__ZN4core3ptr50drop_in_place$LT$_skreaver..a2a..types..PyPart$GT$17h1b3d151176c07685E', symObjAddr: 0x3A6C, symBinAddr: 0xBF34, symSize: 0x30 }
  - { offset: 0x38E66, size: 0x8, addend: 0x0, symName: '__ZN4core3ptr50drop_in_place$LT$_skreaver..a2a..types..PyPart$GT$17h1b3d151176c07685E', symObjAddr: 0x3A6C, symBinAddr: 0xBF34, symSize: 0x30 }
  - { offset: 0x38E82, size: 0x8, addend: 0x0, symName: '__ZN4core3ptr50drop_in_place$LT$pyo3..impl_..panic..PanicTrap$GT$17hdd895f12f6004207E', symObjAddr: 0x3AA0, symBinAddr: 0xBF64, symSize: 0x4 }
  - { offset: 0x38ECF, size: 0x8, addend: 0x0, symName: '__ZN4core3ptr513drop_in_place$LT$alloc..vec..Vec$LT$tower..util..boxed..layer_clone_sync..BoxCloneSyncServiceLayer$LT$tower..util..boxed_clone_sync..BoxCloneSyncService$LT$reqwest..connect..sealed..Unnameable$C$reqwest..connect..sealed..Conn$C$alloc..boxed..Box$LT$dyn$u20$core..error..Error$u2b$core..marker..Sync$u2b$core..marker..Send$GT$$GT$$C$reqwest..connect..sealed..Unnameable$C$reqwest..connect..sealed..Conn$C$alloc..boxed..Box$LT$dyn$u20$core..error..Error$u2b$core..marker..Sync$u2b$core..marker..Send$GT$$GT$$GT$$GT$17hb7416c2d2ae8ce63E', symObjAddr: 0x3AA4, symBinAddr: 0xBF68, symSize: 0x3C }
  - { offset: 0x38F47, size: 0x8, addend: 0x0, symName: '__ZN4core3ptr51drop_in_place$LT$pythonize..de..PyMappingAccess$GT$17h2f19e24c4f04f5bdE', symObjAddr: 0x3AE0, symBinAddr: 0xBFA4, symSize: 0xC0 }
  - { offset: 0x39129, size: 0x8, addend: 0x0, symName: '__ZN4core3ptr51drop_in_place$LT$pythonize..de..PySetAsSequence$GT$17hd1da2a53c993de15E', symObjAddr: 0x3BA0, symBinAddr: 0xC064, symSize: 0x5C }
  - { offset: 0x3924C, size: 0x8, addend: 0x0, symName: '__ZN4core3ptr521drop_in_place$LT$tokio..runtime..task..core..CoreStage$LT$core..pin..Pin$LT$alloc..boxed..Box$LT$$LT$pyo3_async_runtimes..tokio..TokioRuntime$u20$as$u20$pyo3_async_runtimes..generic..Runtime$GT$..spawn$LT$pyo3_async_runtimes..generic..future_into_py_with_locals$LT$pyo3_async_runtimes..tokio..TokioRuntime$C$_skreaver..a2a..client..PyA2aClient..send..$u7b$$u7b$closure$u7d$$u7d$$C$_skreaver..a2a..types..PyTask$GT$..$u7b$$u7b$closure$u7d$$u7d$..$u7b$$u7b$closure$u7d$$u7d$$GT$..$u7b$$u7b$closure$u7d$$u7d$$GT$$GT$$GT$$GT$17h8c507d42c662c204E', symObjAddr: 0x3BFC, symBinAddr: 0xC0C0, symSize: 0x28 }
  - { offset: 0x3926C, size: 0x8, addend: 0x0, symName: '__ZN4core3ptr521drop_in_place$LT$tokio..runtime..task..core..CoreStage$LT$core..pin..Pin$LT$alloc..boxed..Box$LT$$LT$pyo3_async_runtimes..tokio..TokioRuntime$u20$as$u20$pyo3_async_runtimes..generic..Runtime$GT$..spawn$LT$pyo3_async_runtimes..generic..future_into_py_with_locals$LT$pyo3_async_runtimes..tokio..TokioRuntime$C$_skreaver..a2a..client..PyA2aClient..send..$u7b$$u7b$closure$u7d$$u7d$$C$_skreaver..a2a..types..PyTask$GT$..$u7b$$u7b$closure$u7d$$u7d$..$u7b$$u7b$closure$u7d$$u7d$$GT$..$u7b$$u7b$closure$u7d$$u7d$$GT$$GT$$GT$$GT$17h8c507d42c662c204E', symObjAddr: 0x3BFC, symBinAddr: 0xC0C0, symSize: 0x28 }
  - { offset: 0x3928A, size: 0x8, addend: 0x0, symName: '__ZN4core3ptr521drop_in_place$LT$tokio..runtime..task..core..CoreStage$LT$core..pin..Pin$LT$alloc..boxed..Box$LT$$LT$pyo3_async_runtimes..tokio..TokioRuntime$u20$as$u20$pyo3_async_runtimes..generic..Runtime$GT$..spawn$LT$pyo3_async_runtimes..generic..future_into_py_with_locals$LT$pyo3_async_runtimes..tokio..TokioRuntime$C$_skreaver..a2a..client..PyA2aClient..send..$u7b$$u7b$closure$u7d$$u7d$$C$_skreaver..a2a..types..PyTask$GT$..$u7b$$u7b$closure$u7d$$u7d$..$u7b$$u7b$closure$u7d$$u7d$$GT$..$u7b$$u7b$closure$u7d$$u7d$$GT$$GT$$GT$$GT$17h8c507d42c662c204E', symObjAddr: 0x3BFC, symBinAddr: 0xC0C0, symSize: 0x28 }
  - { offset: 0x392A8, size: 0x8, addend: 0x0, symName: '__ZN4core3ptr521drop_in_place$LT$tokio..runtime..task..core..CoreStage$LT$core..pin..Pin$LT$alloc..boxed..Box$LT$$LT$pyo3_async_runtimes..tokio..TokioRuntime$u20$as$u20$pyo3_async_runtimes..generic..Runtime$GT$..spawn$LT$pyo3_async_runtimes..generic..future_into_py_with_locals$LT$pyo3_async_runtimes..tokio..TokioRuntime$C$_skreaver..a2a..client..PyA2aClient..send..$u7b$$u7b$closure$u7d$$u7d$$C$_skreaver..a2a..types..PyTask$GT$..$u7b$$u7b$closure$u7d$$u7d$..$u7b$$u7b$closure$u7d$$u7d$$GT$..$u7b$$u7b$closure$u7d$$u7d$$GT$$GT$$GT$$GT$17h8c507d42c662c204E', symObjAddr: 0x3BFC, symBinAddr: 0xC0C0, symSize: 0x28 }
  - { offset: 0x39342, size: 0x8, addend: 0x0, symName: '__ZN4core3ptr525drop_in_place$LT$tokio..runtime..task..core..CoreStage$LT$core..pin..Pin$LT$alloc..boxed..Box$LT$$LT$pyo3_async_runtimes..tokio..TokioRuntime$u20$as$u20$pyo3_async_runtimes..generic..Runtime$GT$..spawn$LT$pyo3_async_runtimes..generic..future_into_py_with_locals$LT$pyo3_async_runtimes..tokio..TokioRuntime$C$_skreaver..a2a..client..PyA2aClient..get_task..$u7b$$u7b$closure$u7d$$u7d$$C$_skreaver..a2a..types..PyTask$GT$..$u7b$$u7b$closure$u7d$$u7d$..$u7b$$u7b$closure$u7d$$u7d$$GT$..$u7b$$u7b$closure$u7d$$u7d$$GT$$GT$$GT$$GT$17h94b967038836515eE', symObjAddr: 0x3C24, symBinAddr: 0xC0E8, symSize: 0x28 }
  - { offset: 0x39362, size: 0x8, addend: 0x0, symName: '__ZN4core3ptr525drop_in_place$LT$tokio..runtime..task..core..CoreStage$LT$core..pin..Pin$LT$alloc..boxed..Box$LT$$LT$pyo3_async_runtimes..tokio..TokioRuntime$u20$as$u20$pyo3_async_runtimes..generic..Runtime$GT$..spawn$LT$pyo3_async_runtimes..generic..future_into_py_with_locals$LT$pyo3_async_runtimes..tokio..TokioRuntime$C$_skreaver..a2a..client..PyA2aClient..get_task..$u7b$$u7b$closure$u7d$$u7d$$C$_skreaver..a2a..types..PyTask$GT$..$u7b$$u7b$closure$u7d$$u7d$..$u7b$$u7b$closure$u7d$$u7d$$GT$..$u7b$$u7b$closure$u7d$$u7d$$GT$$GT$$GT$$GT$17h94b967038836515eE', symObjAddr: 0x3C24, symBinAddr: 0xC0E8, symSize: 0x28 }
  - { offset: 0x39380, size: 0x8, addend: 0x0, symName: '__ZN4core3ptr525drop_in_place$LT$tokio..runtime..task..core..CoreStage$LT$core..pin..Pin$LT$alloc..boxed..Box$LT$$LT$pyo3_async_runtimes..tokio..TokioRuntime$u20$as$u20$pyo3_async_runtimes..generic..Runtime$GT$..spawn$LT$pyo3_async_runtimes..generic..future_into_py_with_locals$LT$pyo3_async_runtimes..tokio..TokioRuntime$C$_skreaver..a2a..client..PyA2aClient..get_task..$u7b$$u7b$closure$u7d$$u7d$$C$_skreaver..a2a..types..PyTask$GT$..$u7b$$u7b$closure$u7d$$u7d$..$u7b$$u7b$closure$u7d$$u7d$$GT$..$u7b$$u7b$closure$u7d$$u7d$$GT$$GT$$GT$$GT$17h94b967038836515eE', symObjAddr: 0x3C24, symBinAddr: 0xC0E8, symSize: 0x28 }
  - { offset: 0x3939E, size: 0x8, addend: 0x0, symName: '__ZN4core3ptr525drop_in_place$LT$tokio..runtime..task..core..CoreStage$LT$core..pin..Pin$LT$alloc..boxed..Box$LT$$LT$pyo3_async_runtimes..tokio..TokioRuntime$u20$as$u20$pyo3_async_runtimes..generic..Runtime$GT$..spawn$LT$pyo3_async_runtimes..generic..future_into_py_with_locals$LT$pyo3_async_runtimes..tokio..TokioRuntime$C$_skreaver..a2a..client..PyA2aClient..get_task..$u7b$$u7b$closure$u7d$$u7d$$C$_skreaver..a2a..types..PyTask$GT$..$u7b$$u7b$closure$u7d$$u7d$..$u7b$$u7b$closure$u7d$$u7d$$GT$..$u7b$$u7b$closure$u7d$$u7d$$GT$$GT$$GT$$GT$17h94b967038836515eE', symObjAddr: 0x3C24, symBinAddr: 0xC0E8, symSize: 0x28 }
  - { offset: 0x39438, size: 0x8, addend: 0x0, symName: '__ZN4core3ptr528drop_in_place$LT$tokio..runtime..task..core..CoreStage$LT$core..pin..Pin$LT$alloc..boxed..Box$LT$$LT$pyo3_async_runtimes..tokio..TokioRuntime$u20$as$u20$pyo3_async_runtimes..generic..Runtime$GT$..spawn$LT$pyo3_async_runtimes..generic..future_into_py_with_locals$LT$pyo3_async_runtimes..tokio..TokioRuntime$C$_skreaver..a2a..client..PyA2aClient..cancel_task..$u7b$$u7b$closure$u7d$$u7d$$C$_skreaver..a2a..types..PyTask$GT$..$u7b$$u7b$closure$u7d$$u7d$..$u7b$$u7b$closure$u7d$$u7d$$GT$..$u7b$$u7b$closure$u7d$$u7d$$GT$$GT$$GT$$GT$17h1207ddd06db126c4E', symObjAddr: 0x3C4C, symBinAddr: 0xC110, symSize: 0x28 }
  - { offset: 0x39458, size: 0x8, addend: 0x0, symName: '__ZN4core3ptr528drop_in_place$LT$tokio..runtime..task..core..CoreStage$LT$core..pin..Pin$LT$alloc..boxed..Box$LT$$LT$pyo3_async_runtimes..tokio..TokioRuntime$u20$as$u20$pyo3_async_runtimes..generic..Runtime$GT$..spawn$LT$pyo3_async_runtimes..generic..future_into_py_with_locals$LT$pyo3_async_runtimes..tokio..TokioRuntime$C$_skreaver..a2a..client..PyA2aClient..cancel_task..$u7b$$u7b$closure$u7d$$u7d$$C$_skreaver..a2a..types..PyTask$GT$..$u7b$$u7b$closure$u7d$$u7d$..$u7b$$u7b$closure$u7d$$u7d$$GT$..$u7b$$u7b$closure$u7d$$u7d$$GT$$GT$$GT$$GT$17h1207ddd06db126c4E', symObjAddr: 0x3C4C, symBinAddr: 0xC110, symSize: 0x28 }
  - { offset: 0x39476, size: 0x8, addend: 0x0, symName: '__ZN4core3ptr528drop_in_place$LT$tokio..runtime..task..core..CoreStage$LT$core..pin..Pin$LT$alloc..boxed..Box$LT$$LT$pyo3_async_runtimes..tokio..TokioRuntime$u20$as$u20$pyo3_async_runtimes..generic..Runtime$GT$..spawn$LT$pyo3_async_runtimes..generic..future_into_py_with_locals$LT$pyo3_async_runtimes..tokio..TokioRuntime$C$_skreaver..a2a..client..PyA2aClient..cancel_task..$u7b$$u7b$closure$u7d$$u7d$$C$_skreaver..a2a..types..PyTask$GT$..$u7b$$u7b$closure$u7d$$u7d$..$u7b$$u7b$closure$u7d$$u7d$$GT$..$u7b$$u7b$closure$u7d$$u7d$$GT$$GT$$GT$$GT$17h1207ddd06db126c4E', symObjAddr: 0x3C4C, symBinAddr: 0xC110, symSize: 0x28 }
  - { offset: 0x39494, size: 0x8, addend: 0x0, symName: '__ZN4core3ptr528drop_in_place$LT$tokio..runtime..task..core..CoreStage$LT$core..pin..Pin$LT$alloc..boxed..Box$LT$$LT$pyo3_async_runtimes..tokio..TokioRuntime$u20$as$u20$pyo3_async_runtimes..generic..Runtime$GT$..spawn$LT$pyo3_async_runtimes..generic..future_into_py_with_locals$LT$pyo3_async_runtimes..tokio..TokioRuntime$C$_skreaver..a2a..client..PyA2aClient..cancel_task..$u7b$$u7b$closure$u7d$$u7d$$C$_skreaver..a2a..types..PyTask$GT$..$u7b$$u7b$closure$u7d$$u7d$..$u7b$$u7b$closure$u7d$$u7d$$GT$..$u7b$$u7b$closure$u7d$$u7d$$GT$$GT$$GT$$GT$17h1207ddd06db126c4E', symObjAddr: 0x3C4C, symBinAddr: 0xC110, symSize: 0x28 }
  - { offset: 0x3952E, size: 0x8, addend: 0x0, symName: '__ZN4core3ptr529drop_in_place$LT$tokio..runtime..task..core..CoreStage$LT$core..pin..Pin$LT$alloc..boxed..Box$LT$$LT$pyo3_async_runtimes..tokio..TokioRuntime$u20$as$u20$pyo3_async_runtimes..generic..Runtime$GT$..spawn$LT$pyo3_async_runtimes..generic..future_into_py_with_locals$LT$pyo3_async_runtimes..tokio..TokioRuntime$C$_skreaver..a2a..client..PyA2aClient..send_message..$u7b$$u7b$closure$u7d$$u7d$$C$_skreaver..a2a..types..PyTask$GT$..$u7b$$u7b$closure$u7d$$u7d$..$u7b$$u7b$closure$u7d$$u7d$$GT$..$u7b$$u7b$closure$u7d$$u7d$$GT$$GT$$GT$$GT$17h31cbc347aa48d375E', symObjAddr: 0x3C74, symBinAddr: 0xC138, symSize: 0x28 }
  - { offset: 0x3954E, size: 0x8, addend: 0x0, symName: '__ZN4core3ptr529drop_in_place$LT$tokio..runtime..task..core..CoreStage$LT$core..pin..Pin$LT$alloc..boxed..Box$LT$$LT$pyo3_async_runtimes..tokio..TokioRuntime$u20$as$u20$pyo3_async_runtimes..generic..Runtime$GT$..spawn$LT$pyo3_async_runtimes..generic..future_into_py_with_locals$LT$pyo3_async_runtimes..tokio..TokioRuntime$C$_skreaver..a2a..client..PyA2aClient..send_message..$u7b$$u7b$closure$u7d$$u7d$$C$_skreaver..a2a..types..PyTask$GT$..$u7b$$u7b$closure$u7d$$u7d$..$u7b$$u7b$closure$u7d$$u7d$$GT$..$u7b$$u7b$closure$u7d$$u7d$$GT$$GT$$GT$$GT$17h31cbc347aa48d375E', symObjAddr: 0x3C74, symBinAddr: 0xC138, symSize: 0x28 }
  - { offset: 0x3956C, size: 0x8, addend: 0x0, symName: '__ZN4core3ptr529drop_in_place$LT$tokio..runtime..task..core..CoreStage$LT$core..pin..Pin$LT$alloc..boxed..Box$LT$$LT$pyo3_async_runtimes..tokio..TokioRuntime$u20$as$u20$pyo3_async_runtimes..generic..Runtime$GT$..spawn$LT$pyo3_async_runtimes..generic..future_into_py_with_locals$LT$pyo3_async_runtimes..tokio..TokioRuntime$C$_skreaver..a2a..client..PyA2aClient..send_message..$u7b$$u7b$closure$u7d$$u7d$$C$_skreaver..a2a..types..PyTask$GT$..$u7b$$u7b$closure$u7d$$u7d$..$u7b$$u7b$closure$u7d$$u7d$$GT$..$u7b$$u7b$closure$u7d$$u7d$$GT$$GT$$GT$$GT$17h31cbc347aa48d375E', symObjAddr: 0x3C74, symBinAddr: 0xC138, symSize: 0x28 }
  - { offset: 0x3958A, size: 0x8, addend: 0x0, symName: '__ZN4core3ptr529drop_in_place$LT$tokio..runtime..task..core..CoreStage$LT$core..pin..Pin$LT$alloc..boxed..Box$LT$$LT$pyo3_async_runtimes..tokio..TokioRuntime$u20$as$u20$pyo3_async_runtimes..generic..Runtime$GT$..spawn$LT$pyo3_async_runtimes..generic..future_into_py_with_locals$LT$pyo3_async_runtimes..tokio..TokioRuntime$C$_skreaver..a2a..client..PyA2aClient..send_message..$u7b$$u7b$closure$u7d$$u7d$$C$_skreaver..a2a..types..PyTask$GT$..$u7b$$u7b$closure$u7d$$u7d$..$u7b$$u7b$closure$u7d$$u7d$$GT$..$u7b$$u7b$closure$u7d$$u7d$$GT$$GT$$GT$$GT$17h31cbc347aa48d375E', symObjAddr: 0x3C74, symBinAddr: 0xC138, symSize: 0x28 }
  - { offset: 0x39624, size: 0x8, addend: 0x0, symName: '__ZN4core3ptr52drop_in_place$LT$_skreaver..memory..PyFileMemory$GT$17h05fd413588def9a9E', symObjAddr: 0x3C9C, symBinAddr: 0xC160, symSize: 0x78 }
  - { offset: 0x3967D, size: 0x8, addend: 0x0, symName: '__ZN4core3ptr52drop_in_place$LT$pyo3_async_runtimes..TaskLocals$GT$17h9438801eded8434cE', symObjAddr: 0x3D14, symBinAddr: 0xC1D8, symSize: 0x54 }
  - { offset: 0x3972E, size: 0x8, addend: 0x0, symName: '__ZN4core3ptr530drop_in_place$LT$tokio..runtime..task..core..CoreStage$LT$core..pin..Pin$LT$alloc..boxed..Box$LT$$LT$pyo3_async_runtimes..tokio..TokioRuntime$u20$as$u20$pyo3_async_runtimes..generic..Runtime$GT$..spawn$LT$pyo3_async_runtimes..generic..future_into_py_with_locals$LT$pyo3_async_runtimes..tokio..TokioRuntime$C$_skreaver..a2a..client..PyA2aClient..continue_task..$u7b$$u7b$closure$u7d$$u7d$$C$_skreaver..a2a..types..PyTask$GT$..$u7b$$u7b$closure$u7d$$u7d$..$u7b$$u7b$closure$u7d$$u7d$$GT$..$u7b$$u7b$closure$u7d$$u7d$$GT$$GT$$GT$$GT$17h5b28b6baf5c549eaE', symObjAddr: 0x3D68, symBinAddr: 0xC22C, symSize: 0x28 }
  - { offset: 0x3974E, size: 0x8, addend: 0x0, symName: '__ZN4core3ptr530drop_in_place$LT$tokio..runtime..task..core..CoreStage$LT$core..pin..Pin$LT$alloc..boxed..Box$LT$$LT$pyo3_async_runtimes..tokio..TokioRuntime$u20$as$u20$pyo3_async_runtimes..generic..Runtime$GT$..spawn$LT$pyo3_async_runtimes..generic..future_into_py_with_locals$LT$pyo3_async_runtimes..tokio..TokioRuntime$C$_skreaver..a2a..client..PyA2aClient..continue_task..$u7b$$u7b$closure$u7d$$u7d$$C$_skreaver..a2a..types..PyTask$GT$..$u7b$$u7b$closure$u7d$$u7d$..$u7b$$u7b$closure$u7d$$u7d$$GT$..$u7b$$u7b$closure$u7d$$u7d$$GT$$GT$$GT$$GT$17h5b28b6baf5c549eaE', symObjAddr: 0x3D68, symBinAddr: 0xC22C, symSize: 0x28 }
  - { offset: 0x3976C, size: 0x8, addend: 0x0, symName: '__ZN4core3ptr530drop_in_place$LT$tokio..runtime..task..core..CoreStage$LT$core..pin..Pin$LT$alloc..boxed..Box$LT$$LT$pyo3_async_runtimes..tokio..TokioRuntime$u20$as$u20$pyo3_async_runtimes..generic..Runtime$GT$..spawn$LT$pyo3_async_runtimes..generic..future_into_py_with_locals$LT$pyo3_async_runtimes..tokio..TokioRuntime$C$_skreaver..a2a..client..PyA2aClient..continue_task..$u7b$$u7b$closure$u7d$$u7d$$C$_skreaver..a2a..types..PyTask$GT$..$u7b$$u7b$closure$u7d$$u7d$..$u7b$$u7b$closure$u7d$$u7d$$GT$..$u7b$$u7b$closure$u7d$$u7d$$GT$$GT$$GT$$GT$17h5b28b6baf5c549eaE', symObjAddr: 0x3D68, symBinAddr: 0xC22C, symSize: 0x28 }
  - { offset: 0x3978A, size: 0x8, addend: 0x0, symName: '__ZN4core3ptr530drop_in_place$LT$tokio..runtime..task..core..CoreStage$LT$core..pin..Pin$LT$alloc..boxed..Box$LT$$LT$pyo3_async_runtimes..tokio..TokioRuntime$u20$as$u20$pyo3_async_runtimes..generic..Runtime$GT$..spawn$LT$pyo3_async_runtimes..generic..future_into_py_with_locals$LT$pyo3_async_runtimes..tokio..TokioRuntime$C$_skreaver..a2a..client..PyA2aClient..continue_task..$u7b$$u7b$closure$u7d$$u7d$$C$_skreaver..a2a..types..PyTask$GT$..$u7b$$u7b$closure$u7d$$u7d$..$u7b$$u7b$closure$u7d$$u7d$$GT$..$u7b$$u7b$closure$u7d$$u7d$$GT$$GT$$GT$$GT$17h5b28b6baf5c549eaE', symObjAddr: 0x3D68, symBinAddr: 0xC22C, symSize: 0x28 }
  - { offset: 0x39824, size: 0x8, addend: 0x0, symName: '__ZN4core3ptr530drop_in_place$LT$tokio..runtime..task..core..CoreStage$LT$core..pin..Pin$LT$alloc..boxed..Box$LT$$LT$pyo3_async_runtimes..tokio..TokioRuntime$u20$as$u20$pyo3_async_runtimes..generic..Runtime$GT$..spawn$LT$pyo3_async_runtimes..generic..future_into_py_with_locals$LT$pyo3_async_runtimes..tokio..TokioRuntime$C$_skreaver..a2a..client..PyA2aClient..wait_for_task..$u7b$$u7b$closure$u7d$$u7d$$C$_skreaver..a2a..types..PyTask$GT$..$u7b$$u7b$closure$u7d$$u7d$..$u7b$$u7b$closure$u7d$$u7d$$GT$..$u7b$$u7b$closure$u7d$$u7d$$GT$$GT$$GT$$GT$17h29647e7f84f61379E', symObjAddr: 0x3D90, symBinAddr: 0xC254, symSize: 0x28 }
  - { offset: 0x39844, size: 0x8, addend: 0x0, symName: '__ZN4core3ptr530drop_in_place$LT$tokio..runtime..task..core..CoreStage$LT$core..pin..Pin$LT$alloc..boxed..Box$LT$$LT$pyo3_async_runtimes..tokio..TokioRuntime$u20$as$u20$pyo3_async_runtimes..generic..Runtime$GT$..spawn$LT$pyo3_async_runtimes..generic..future_into_py_with_locals$LT$pyo3_async_runtimes..tokio..TokioRuntime$C$_skreaver..a2a..client..PyA2aClient..wait_for_task..$u7b$$u7b$closure$u7d$$u7d$$C$_skreaver..a2a..types..PyTask$GT$..$u7b$$u7b$closure$u7d$$u7d$..$u7b$$u7b$closure$u7d$$u7d$$GT$..$u7b$$u7b$closure$u7d$$u7d$$GT$$GT$$GT$$GT$17h29647e7f84f61379E', symObjAddr: 0x3D90, symBinAddr: 0xC254, symSize: 0x28 }
  - { offset: 0x39862, size: 0x8, addend: 0x0, symName: '__ZN4core3ptr530drop_in_place$LT$tokio..runtime..task..core..CoreStage$LT$core..pin..Pin$LT$alloc..boxed..Box$LT$$LT$pyo3_async_runtimes..tokio..TokioRuntime$u20$as$u20$pyo3_async_runtimes..generic..Runtime$GT$..spawn$LT$pyo3_async_runtimes..generic..future_into_py_with_locals$LT$pyo3_async_runtimes..tokio..TokioRuntime$C$_skreaver..a2a..client..PyA2aClient..wait_for_task..$u7b$$u7b$closure$u7d$$u7d$$C$_skreaver..a2a..types..PyTask$GT$..$u7b$$u7b$closure$u7d$$u7d$..$u7b$$u7b$closure$u7d$$u7d$$GT$..$u7b$$u7b$closure$u7d$$u7d$$GT$$GT$$GT$$GT$17h29647e7f84f61379E', symObjAddr: 0x3D90, symBinAddr: 0xC254, symSize: 0x28 }
  - { offset: 0x39880, size: 0x8, addend: 0x0, symName: '__ZN4core3ptr530drop_in_place$LT$tokio..runtime..task..core..CoreStage$LT$core..pin..Pin$LT$alloc..boxed..Box$LT$$LT$pyo3_async_runtimes..tokio..TokioRuntime$u20$as$u20$pyo3_async_runtimes..generic..Runtime$GT$..spawn$LT$pyo3_async_runtimes..generic..future_into_py_with_locals$LT$pyo3_async_runtimes..tokio..TokioRuntime$C$_skreaver..a2a..client..PyA2aClient..wait_for_task..$u7b$$u7b$closure$u7d$$u7d$$C$_skreaver..a2a..types..PyTask$GT$..$u7b$$u7b$closure$u7d$$u7d$..$u7b$$u7b$closure$u7d$$u7d$$GT$..$u7b$$u7b$closure$u7d$$u7d$$GT$$GT$$GT$$GT$17h29647e7f84f61379E', symObjAddr: 0x3D90, symBinAddr: 0xC254, symSize: 0x28 }
  - { offset: 0x3991A, size: 0x8, addend: 0x0, symName: '__ZN4core3ptr536drop_in_place$LT$tokio..runtime..task..core..CoreStage$LT$core..pin..Pin$LT$alloc..boxed..Box$LT$$LT$pyo3_async_runtimes..tokio..TokioRuntime$u20$as$u20$pyo3_async_runtimes..generic..Runtime$GT$..spawn$LT$pyo3_async_runtimes..generic..future_into_py_with_locals$LT$pyo3_async_runtimes..tokio..TokioRuntime$C$_skreaver..a2a..client..PyA2aClient..get_agent_card..$u7b$$u7b$closure$u7d$$u7d$$C$_skreaver..a2a..types..PyAgentCard$GT$..$u7b$$u7b$closure$u7d$$u7d$..$u7b$$u7b$closure$u7d$$u7d$$GT$..$u7b$$u7b$closure$u7d$$u7d$$GT$$GT$$GT$$GT$17h80b799f5bed9b7eeE', symObjAddr: 0x3DB8, symBinAddr: 0xC27C, symSize: 0x28 }
  - { offset: 0x3993A, size: 0x8, addend: 0x0, symName: '__ZN4core3ptr536drop_in_place$LT$tokio..runtime..task..core..CoreStage$LT$core..pin..Pin$LT$alloc..boxed..Box$LT$$LT$pyo3_async_runtimes..tokio..TokioRuntime$u20$as$u20$pyo3_async_runtimes..generic..Runtime$GT$..spawn$LT$pyo3_async_runtimes..generic..future_into_py_with_locals$LT$pyo3_async_runtimes..tokio..TokioRuntime$C$_skreaver..a2a..client..PyA2aClient..get_agent_card..$u7b$$u7b$closure$u7d$$u7d$$C$_skreaver..a2a..types..PyAgentCard$GT$..$u7b$$u7b$closure$u7d$$u7d$..$u7b$$u7b$closure$u7d$$u7d$$GT$..$u7b$$u7b$closure$u7d$$u7d$$GT$$GT$$GT$$GT$17h80b799f5bed9b7eeE', symObjAddr: 0x3DB8, symBinAddr: 0xC27C, symSize: 0x28 }
  - { offset: 0x39958, size: 0x8, addend: 0x0, symName: '__ZN4core3ptr536drop_in_place$LT$tokio..runtime..task..core..CoreStage$LT$core..pin..Pin$LT$alloc..boxed..Box$LT$$LT$pyo3_async_runtimes..tokio..TokioRuntime$u20$as$u20$pyo3_async_runtimes..generic..Runtime$GT$..spawn$LT$pyo3_async_runtimes..generic..future_into_py_with_locals$LT$pyo3_async_runtimes..tokio..TokioRuntime$C$_skreaver..a2a..client..PyA2aClient..get_agent_card..$u7b$$u7b$closure$u7d$$u7d$$C$_skreaver..a2a..types..PyAgentCard$GT$..$u7b$$u7b$closure$u7d$$u7d$..$u7b$$u7b$closure$u7d$$u7d$$GT$..$u7b$$u7b$closure$u7d$$u7d$$GT$$GT$$GT$$GT$17h80b799f5bed9b7eeE', symObjAddr: 0x3DB8, symBinAddr: 0xC27C, symSize: 0x28 }
  - { offset: 0x39976, size: 0x8, addend: 0x0, symName: '__ZN4core3ptr536drop_in_place$LT$tokio..runtime..task..core..CoreStage$LT$core..pin..Pin$LT$alloc..boxed..Box$LT$$LT$pyo3_async_runtimes..tokio..TokioRuntime$u20$as$u20$pyo3_async_runtimes..generic..Runtime$GT$..spawn$LT$pyo3_async_runtimes..generic..future_into_py_with_locals$LT$pyo3_async_runtimes..tokio..TokioRuntime$C$_skreaver..a2a..client..PyA2aClient..get_agent_card..$u7b$$u7b$closure$u7d$$u7d$$C$_skreaver..a2a..types..PyAgentCard$GT$..$u7b$$u7b$closure$u7d$$u7d$..$u7b$$u7b$closure$u7d$$u7d$$GT$..$u7b$$u7b$closure$u7d$$u7d$$GT$$GT$$GT$$GT$17h80b799f5bed9b7eeE', symObjAddr: 0x3DB8, symBinAddr: 0xC27C, symSize: 0x28 }
  - { offset: 0x39A10, size: 0x8, addend: 0x0, symName: '__ZN4core3ptr53drop_in_place$LT$pythonize..error..PythonizeError$GT$17hd059bfa179a9a615E', symObjAddr: 0x3DE4, symBinAddr: 0xC2A4, symSize: 0xE4 }
  - { offset: 0x39BC8, size: 0x8, addend: 0x0, symName: '__ZN4core3ptr54drop_in_place$LT$alloc..boxed..Box$LT$url..Url$GT$$GT$17h33c498e1cc9d028cE', symObjAddr: 0x3ECC, symBinAddr: 0xC388, symSize: 0xA0 }
  - { offset: 0x39D74, size: 0x8, addend: 0x0, symName: '__ZN4core3ptr563drop_in_place$LT$tokio..runtime..task..core..Cell$LT$core..pin..Pin$LT$alloc..boxed..Box$LT$$LT$pyo3_async_runtimes..tokio..TokioRuntime$u20$as$u20$pyo3_async_runtimes..generic..Runtime$GT$..spawn$LT$pyo3_async_runtimes..generic..future_into_py_with_locals$LT$pyo3_async_runtimes..tokio..TokioRuntime$C$_skreaver..a2a..client..PyA2aClient..send..$u7b$$u7b$closure$u7d$$u7d$$C$_skreaver..a2a..types..PyTask$GT$..$u7b$$u7b$closure$u7d$$u7d$$GT$..$u7b$$u7b$closure$u7d$$u7d$$GT$$GT$$C$alloc..sync..Arc$LT$tokio..runtime..scheduler..current_thread..Handle$GT$$GT$$GT$17hd2c3b9f86a5cd619E', symObjAddr: 0x3F70, symBinAddr: 0xC428, symSize: 0x94 }
  - { offset: 0x39F73, size: 0x8, addend: 0x0, symName: '__ZN4core3ptr567drop_in_place$LT$tokio..runtime..task..core..Cell$LT$core..pin..Pin$LT$alloc..boxed..Box$LT$$LT$pyo3_async_runtimes..tokio..TokioRuntime$u20$as$u20$pyo3_async_runtimes..generic..Runtime$GT$..spawn$LT$pyo3_async_runtimes..generic..future_into_py_with_locals$LT$pyo3_async_runtimes..tokio..TokioRuntime$C$_skreaver..a2a..client..PyA2aClient..get_task..$u7b$$u7b$closure$u7d$$u7d$$C$_skreaver..a2a..types..PyTask$GT$..$u7b$$u7b$closure$u7d$$u7d$$GT$..$u7b$$u7b$closure$u7d$$u7d$$GT$$GT$$C$alloc..sync..Arc$LT$tokio..runtime..scheduler..current_thread..Handle$GT$$GT$$GT$17he70883ee57723a76E', symObjAddr: 0x4004, symBinAddr: 0xC4BC, symSize: 0x94 }
  - { offset: 0x3A172, size: 0x8, addend: 0x0, symName: '__ZN4core3ptr569drop_in_place$LT$tokio..runtime..task..core..Cell$LT$core..pin..Pin$LT$alloc..boxed..Box$LT$$LT$pyo3_async_runtimes..tokio..TokioRuntime$u20$as$u20$pyo3_async_runtimes..generic..Runtime$GT$..spawn$LT$pyo3_async_runtimes..generic..future_into_py_with_locals$LT$pyo3_async_runtimes..tokio..TokioRuntime$C$_skreaver..a2a..client..PyA2aClient..send..$u7b$$u7b$closure$u7d$$u7d$$C$_skreaver..a2a..types..PyTask$GT$..$u7b$$u7b$closure$u7d$$u7d$$GT$..$u7b$$u7b$closure$u7d$$u7d$$GT$$GT$$C$alloc..sync..Arc$LT$tokio..runtime..scheduler..multi_thread..handle..Handle$GT$$GT$$GT$17h6d942677472b3f60E', symObjAddr: 0x4098, symBinAddr: 0xC550, symSize: 0x94 }
  - { offset: 0x3A371, size: 0x8, addend: 0x0, symName: '__ZN4core3ptr570drop_in_place$LT$tokio..runtime..task..core..Cell$LT$core..pin..Pin$LT$alloc..boxed..Box$LT$$LT$pyo3_async_runtimes..tokio..TokioRuntime$u20$as$u20$pyo3_async_runtimes..generic..Runtime$GT$..spawn$LT$pyo3_async_runtimes..generic..future_into_py_with_locals$LT$pyo3_async_runtimes..tokio..TokioRuntime$C$_skreaver..a2a..client..PyA2aClient..cancel_task..$u7b$$u7b$closure$u7d$$u7d$$C$_skreaver..a2a..types..PyTask$GT$..$u7b$$u7b$closure$u7d$$u7d$$GT$..$u7b$$u7b$closure$u7d$$u7d$$GT$$GT$$C$alloc..sync..Arc$LT$tokio..runtime..scheduler..current_thread..Handle$GT$$GT$$GT$17h8ada239539c627e3E', symObjAddr: 0x4138, symBinAddr: 0xC5E4, symSize: 0x94 }
  - { offset: 0x3A570, size: 0x8, addend: 0x0, symName: '__ZN4core3ptr571drop_in_place$LT$tokio..runtime..task..core..Cell$LT$core..pin..Pin$LT$alloc..boxed..Box$LT$$LT$pyo3_async_runtimes..tokio..TokioRuntime$u20$as$u20$pyo3_async_runtimes..generic..Runtime$GT$..spawn$LT$pyo3_async_runtimes..generic..future_into_py_with_locals$LT$pyo3_async_runtimes..tokio..TokioRuntime$C$_skreaver..a2a..client..PyA2aClient..send_message..$u7b$$u7b$closure$u7d$$u7d$$C$_skreaver..a2a..types..PyTask$GT$..$u7b$$u7b$closure$u7d$$u7d$$GT$..$u7b$$u7b$closure$u7d$$u7d$$GT$$GT$$C$alloc..sync..Arc$LT$tokio..runtime..scheduler..current_thread..Handle$GT$$GT$$GT$17h2812ee55f372415bE', symObjAddr: 0x41CC, symBinAddr: 0xC678, symSize: 0x94 }
  - { offset: 0x3A76F, size: 0x8, addend: 0x0, symName: '__ZN4core3ptr572drop_in_place$LT$tokio..runtime..task..core..Cell$LT$core..pin..Pin$LT$alloc..boxed..Box$LT$$LT$pyo3_async_runtimes..tokio..TokioRuntime$u20$as$u20$pyo3_async_runtimes..generic..Runtime$GT$..spawn$LT$pyo3_async_runtimes..generic..future_into_py_with_locals$LT$pyo3_async_runtimes..tokio..TokioRuntime$C$_skreaver..a2a..client..PyA2aClient..continue_task..$u7b$$u7b$closure$u7d$$u7d$$C$_skreaver..a2a..types..PyTask$GT$..$u7b$$u7b$closure$u7d$$u7d$$GT$..$u7b$$u7b$closure$u7d$$u7d$$GT$$GT$$C$alloc..sync..Arc$LT$tokio..runtime..scheduler..current_thread..Handle$GT$$GT$$GT$17h2a48427912668781E', symObjAddr: 0x4260, symBinAddr: 0xC70C, symSize: 0x94 }
  - { offset: 0x3A96E, size: 0x8, addend: 0x0, symName: '__ZN4core3ptr572drop_in_place$LT$tokio..runtime..task..core..Cell$LT$core..pin..Pin$LT$alloc..boxed..Box$LT$$LT$pyo3_async_runtimes..tokio..TokioRuntime$u20$as$u20$pyo3_async_runtimes..generic..Runtime$GT$..spawn$LT$pyo3_async_runtimes..generic..future_into_py_with_locals$LT$pyo3_async_runtimes..tokio..TokioRuntime$C$_skreaver..a2a..client..PyA2aClient..wait_for_task..$u7b$$u7b$closure$u7d$$u7d$$C$_skreaver..a2a..types..PyTask$GT$..$u7b$$u7b$closure$u7d$$u7d$$GT$..$u7b$$u7b$closure$u7d$$u7d$$GT$$GT$$C$alloc..sync..Arc$LT$tokio..runtime..scheduler..current_thread..Handle$GT$$GT$$GT$17hd5925ad2ad245597E', symObjAddr: 0x42F4, symBinAddr: 0xC7A0, symSize: 0x94 }
  - { offset: 0x3AB4E, size: 0x8, addend: 0x0, symName: '__ZN4core3ptr573drop_in_place$LT$tokio..runtime..task..core..Cell$LT$core..pin..Pin$LT$alloc..boxed..Box$LT$$LT$pyo3_async_runtimes..tokio..TokioRuntime$u20$as$u20$pyo3_async_runtimes..generic..Runtime$GT$..spawn$LT$pyo3_async_runtimes..generic..future_into_py_with_locals$LT$pyo3_async_runtimes..tokio..TokioRuntime$C$_skreaver..a2a..client..PyA2aClient..get_task..$u7b$$u7b$closure$u7d$$u7d$$C$_skreaver..a2a..types..PyTask$GT$..$u7b$$u7b$closure$u7d$$u7d$$GT$..$u7b$$u7b$closure$u7d$$u7d$$GT$$GT$$C$alloc..sync..Arc$LT$tokio..runtime..scheduler..multi_thread..handle..Handle$GT$$GT$$GT$17hdaf9ae4a708d2874E', symObjAddr: 0x4388, symBinAddr: 0xC834, symSize: 0x94 }
  - { offset: 0x3AD2E, size: 0x8, addend: 0x0, symName: '__ZN4core3ptr576drop_in_place$LT$tokio..runtime..task..core..Cell$LT$core..pin..Pin$LT$alloc..boxed..Box$LT$$LT$pyo3_async_runtimes..tokio..TokioRuntime$u20$as$u20$pyo3_async_runtimes..generic..Runtime$GT$..spawn$LT$pyo3_async_runtimes..generic..future_into_py_with_locals$LT$pyo3_async_runtimes..tokio..TokioRuntime$C$_skreaver..a2a..client..PyA2aClient..cancel_task..$u7b$$u7b$closure$u7d$$u7d$$C$_skreaver..a2a..types..PyTask$GT$..$u7b$$u7b$closure$u7d$$u7d$$GT$..$u7b$$u7b$closure$u7d$$u7d$$GT$$GT$$C$alloc..sync..Arc$LT$tokio..runtime..scheduler..multi_thread..handle..Handle$GT$$GT$$GT$17hbf605403e8ec1a05E', symObjAddr: 0x441C, symBinAddr: 0xC8C8, symSize: 0x94 }
  - { offset: 0x3AF0E, size: 0x8, addend: 0x0, symName: '__ZN4core3ptr577drop_in_place$LT$tokio..runtime..task..core..Cell$LT$core..pin..Pin$LT$alloc..boxed..Box$LT$$LT$pyo3_async_runtimes..tokio..TokioRuntime$u20$as$u20$pyo3_async_runtimes..generic..Runtime$GT$..spawn$LT$pyo3_async_runtimes..generic..future_into_py_with_locals$LT$pyo3_async_runtimes..tokio..TokioRuntime$C$_skreaver..a2a..client..PyA2aClient..send_message..$u7b$$u7b$closure$u7d$$u7d$$C$_skreaver..a2a..types..PyTask$GT$..$u7b$$u7b$closure$u7d$$u7d$$GT$..$u7b$$u7b$closure$u7d$$u7d$$GT$$GT$$C$alloc..sync..Arc$LT$tokio..runtime..scheduler..multi_thread..handle..Handle$GT$$GT$$GT$17h82b43939f49328f6E', symObjAddr: 0x44B0, symBinAddr: 0xC95C, symSize: 0x94 }
  - { offset: 0x3B0EE, size: 0x8, addend: 0x0, symName: '__ZN4core3ptr578drop_in_place$LT$tokio..runtime..task..core..Cell$LT$core..pin..Pin$LT$alloc..boxed..Box$LT$$LT$pyo3_async_runtimes..tokio..TokioRuntime$u20$as$u20$pyo3_async_runtimes..generic..Runtime$GT$..spawn$LT$pyo3_async_runtimes..generic..future_into_py_with_locals$LT$pyo3_async_runtimes..tokio..TokioRuntime$C$_skreaver..a2a..client..PyA2aClient..continue_task..$u7b$$u7b$closure$u7d$$u7d$$C$_skreaver..a2a..types..PyTask$GT$..$u7b$$u7b$closure$u7d$$u7d$$GT$..$u7b$$u7b$closure$u7d$$u7d$$GT$$GT$$C$alloc..sync..Arc$LT$tokio..runtime..scheduler..multi_thread..handle..Handle$GT$$GT$$GT$17h680ee508111e41e6E', symObjAddr: 0x4544, symBinAddr: 0xC9F0, symSize: 0x94 }
  - { offset: 0x3B2ED, size: 0x8, addend: 0x0, symName: '__ZN4core3ptr578drop_in_place$LT$tokio..runtime..task..core..Cell$LT$core..pin..Pin$LT$alloc..boxed..Box$LT$$LT$pyo3_async_runtimes..tokio..TokioRuntime$u20$as$u20$pyo3_async_runtimes..generic..Runtime$GT$..spawn$LT$pyo3_async_runtimes..generic..future_into_py_with_locals$LT$pyo3_async_runtimes..tokio..TokioRuntime$C$_skreaver..a2a..client..PyA2aClient..get_agent_card..$u7b$$u7b$closure$u7d$$u7d$$C$_skreaver..a2a..types..PyAgentCard$GT$..$u7b$$u7b$closure$u7d$$u7d$$GT$..$u7b$$u7b$closure$u7d$$u7d$$GT$$GT$$C$alloc..sync..Arc$LT$tokio..runtime..scheduler..current_thread..Handle$GT$$GT$$GT$17hb70b76cc8c4575efE', symObjAddr: 0x45D8, symBinAddr: 0xCA84, symSize: 0x94 }
  - { offset: 0x3B4CD, size: 0x8, addend: 0x0, symName: '__ZN4core3ptr578drop_in_place$LT$tokio..runtime..task..core..Cell$LT$core..pin..Pin$LT$alloc..boxed..Box$LT$$LT$pyo3_async_runtimes..tokio..TokioRuntime$u20$as$u20$pyo3_async_runtimes..generic..Runtime$GT$..spawn$LT$pyo3_async_runtimes..generic..future_into_py_with_locals$LT$pyo3_async_runtimes..tokio..TokioRuntime$C$_skreaver..a2a..client..PyA2aClient..wait_for_task..$u7b$$u7b$closure$u7d$$u7d$$C$_skreaver..a2a..types..PyTask$GT$..$u7b$$u7b$closure$u7d$$u7d$$GT$..$u7b$$u7b$closure$u7d$$u7d$$GT$$GT$$C$alloc..sync..Arc$LT$tokio..runtime..scheduler..multi_thread..handle..Handle$GT$$GT$$GT$17hcb854f95f8eb7b41E', symObjAddr: 0x466C, symBinAddr: 0xCB18, symSize: 0x94 }
  - { offset: 0x3B6AD, size: 0x8, addend: 0x0, symName: '__ZN4core3ptr57drop_in_place$LT$pyo3..types..dict..BoundDictIterator$GT$17hc8dc3e6c5e13a909E', symObjAddr: 0x4700, symBinAddr: 0xCBAC, symSize: 0x5C }
  - { offset: 0x3B792, size: 0x8, addend: 0x0, symName: '__ZN4core3ptr584drop_in_place$LT$tokio..runtime..task..core..Cell$LT$core..pin..Pin$LT$alloc..boxed..Box$LT$$LT$pyo3_async_runtimes..tokio..TokioRuntime$u20$as$u20$pyo3_async_runtimes..generic..Runtime$GT$..spawn$LT$pyo3_async_runtimes..generic..future_into_py_with_locals$LT$pyo3_async_runtimes..tokio..TokioRuntime$C$_skreaver..a2a..client..PyA2aClient..get_agent_card..$u7b$$u7b$closure$u7d$$u7d$$C$_skreaver..a2a..types..PyAgentCard$GT$..$u7b$$u7b$closure$u7d$$u7d$$GT$..$u7b$$u7b$closure$u7d$$u7d$$GT$$GT$$C$alloc..sync..Arc$LT$tokio..runtime..scheduler..multi_thread..handle..Handle$GT$$GT$$GT$17hee770f0118aa67c4E', symObjAddr: 0x475C, symBinAddr: 0xCC08, symSize: 0x94 }
  - { offset: 0x3B9CF, size: 0x8, addend: 0x0, symName: '__ZN4core3ptr58drop_in_place$LT$_skreaver..gateway..PyProtocolGateway$GT$17h9c1b84efcae992c1E', symObjAddr: 0x47F0, symBinAddr: 0xCC9C, symSize: 0xA8 }
  - { offset: 0x3BCFF, size: 0x8, addend: 0x0, symName: '__ZN4core3ptr592drop_in_place$LT$tokio..runtime..task..core..Cell$LT$core..pin..Pin$LT$alloc..boxed..Box$LT$$LT$pyo3_async_runtimes..tokio..TokioRuntime$u20$as$u20$pyo3_async_runtimes..generic..Runtime$GT$..spawn$LT$pyo3_async_runtimes..generic..future_into_py_with_locals$LT$pyo3_async_runtimes..tokio..TokioRuntime$C$_skreaver..a2a..client..PyA2aClient..send..$u7b$$u7b$closure$u7d$$u7d$$C$_skreaver..a2a..types..PyTask$GT$..$u7b$$u7b$closure$u7d$$u7d$..$u7b$$u7b$closure$u7d$$u7d$$GT$..$u7b$$u7b$closure$u7d$$u7d$$GT$$GT$$C$alloc..sync..Arc$LT$tokio..runtime..scheduler..current_thread..Handle$GT$$GT$$GT$17hdc2f20caa759c1f1E', symObjAddr: 0x4898, symBinAddr: 0xCD44, symSize: 0x94 }
  - { offset: 0x3BEFE, size: 0x8, addend: 0x0, symName: '__ZN4core3ptr596drop_in_place$LT$tokio..runtime..task..core..Cell$LT$core..pin..Pin$LT$alloc..boxed..Box$LT$$LT$pyo3_async_runtimes..tokio..TokioRuntime$u20$as$u20$pyo3_async_runtimes..generic..Runtime$GT$..spawn$LT$pyo3_async_runtimes..generic..future_into_py_with_locals$LT$pyo3_async_runtimes..tokio..TokioRuntime$C$_skreaver..a2a..client..PyA2aClient..get_task..$u7b$$u7b$closure$u7d$$u7d$$C$_skreaver..a2a..types..PyTask$GT$..$u7b$$u7b$closure$u7d$$u7d$..$u7b$$u7b$closure$u7d$$u7d$$GT$..$u7b$$u7b$closure$u7d$$u7d$$GT$$GT$$C$alloc..sync..Arc$LT$tokio..runtime..scheduler..current_thread..Handle$GT$$GT$$GT$17h43a622d73f9549f7E', symObjAddr: 0x492C, symBinAddr: 0xCDD8, symSize: 0x94 }
  - { offset: 0x3C0DE, size: 0x8, addend: 0x0, symName: '__ZN4core3ptr598drop_in_place$LT$tokio..runtime..task..core..Cell$LT$core..pin..Pin$LT$alloc..boxed..Box$LT$$LT$pyo3_async_runtimes..tokio..TokioRuntime$u20$as$u20$pyo3_async_runtimes..generic..Runtime$GT$..spawn$LT$pyo3_async_runtimes..generic..future_into_py_with_locals$LT$pyo3_async_runtimes..tokio..TokioRuntime$C$_skreaver..a2a..client..PyA2aClient..send..$u7b$$u7b$closure$u7d$$u7d$$C$_skreaver..a2a..types..PyTask$GT$..$u7b$$u7b$closure$u7d$$u7d$..$u7b$$u7b$closure$u7d$$u7d$$GT$..$u7b$$u7b$closure$u7d$$u7d$$GT$$GT$$C$alloc..sync..Arc$LT$tokio..runtime..scheduler..multi_thread..handle..Handle$GT$$GT$$GT$17h8f16b4ac9e34eaa9E', symObjAddr: 0x49C0, symBinAddr: 0xCE6C, symSize: 0x94 }
  - { offset: 0x3C2DD, size: 0x8, addend: 0x0, symName: '__ZN4core3ptr599drop_in_place$LT$tokio..runtime..task..core..Cell$LT$core..pin..Pin$LT$alloc..boxed..Box$LT$$LT$pyo3_async_runtimes..tokio..TokioRuntime$u20$as$u20$pyo3_async_runtimes..generic..Runtime$GT$..spawn$LT$pyo3_async_runtimes..generic..future_into_py_with_locals$LT$pyo3_async_runtimes..tokio..TokioRuntime$C$_skreaver..a2a..client..PyA2aClient..cancel_task..$u7b$$u7b$closure$u7d$$u7d$$C$_skreaver..a2a..types..PyTask$GT$..$u7b$$u7b$closure$u7d$$u7d$..$u7b$$u7b$closure$u7d$$u7d$$GT$..$u7b$$u7b$closure$u7d$$u7d$$GT$$GT$$C$alloc..sync..Arc$LT$tokio..runtime..scheduler..current_thread..Handle$GT$$GT$$GT$17h27e3283817c180d5E', symObjAddr: 0x4A54, symBinAddr: 0xCF00, symSize: 0x94 }
  - { offset: 0x3C4DC, size: 0x8, addend: 0x0, symName: '__ZN4core3ptr600drop_in_place$LT$tokio..runtime..task..core..Cell$LT$core..pin..Pin$LT$alloc..boxed..Box$LT$$LT$pyo3_async_runtimes..tokio..TokioRuntime$u20$as$u20$pyo3_async_runtimes..generic..Runtime$GT$..spawn$LT$pyo3_async_runtimes..generic..future_into_py_with_locals$LT$pyo3_async_runtimes..tokio..TokioRuntime$C$_skreaver..a2a..client..PyA2aClient..send_message..$u7b$$u7b$closure$u7d$$u7d$$C$_skreaver..a2a..types..PyTask$GT$..$u7b$$u7b$closure$u7d$$u7d$..$u7b$$u7b$closure$u7d$$u7d$$GT$..$u7b$$u7b$closure$u7d$$u7d$$GT$$GT$$C$alloc..sync..Arc$LT$tokio..runtime..scheduler..current_thread..Handle$GT$$GT$$GT$17he04378ce6a60a416E', symObjAddr: 0x4AE8, symBinAddr: 0xCF94, symSize: 0x94 }
  - { offset: 0x3C6DB, size: 0x8, addend: 0x0, symName: '__ZN4core3ptr601drop_in_place$LT$tokio..runtime..task..core..Cell$LT$core..pin..Pin$LT$alloc..boxed..Box$LT$$LT$pyo3_async_runtimes..tokio..TokioRuntime$u20$as$u20$pyo3_async_runtimes..generic..Runtime$GT$..spawn$LT$pyo3_async_runtimes..generic..future_into_py_with_locals$LT$pyo3_async_runtimes..tokio..TokioRuntime$C$_skreaver..a2a..client..PyA2aClient..continue_task..$u7b$$u7b$closure$u7d$$u7d$$C$_skreaver..a2a..types..PyTask$GT$..$u7b$$u7b$closure$u7d$$u7d$..$u7b$$u7b$closure$u7d$$u7d$$GT$..$u7b$$u7b$closure$u7d$$u7d$$GT$$GT$$C$alloc..sync..Arc$LT$tokio..runtime..scheduler..current_thread..Handle$GT$$GT$$GT$17h9a7abb70c12459e8E', symObjAddr: 0x4B7C, symBinAddr: 0xD028, symSize: 0x94 }
  - { offset: 0x3C8DA, size: 0x8, addend: 0x0, symName: '__ZN4core3ptr601drop_in_place$LT$tokio..runtime..task..core..Cell$LT$core..pin..Pin$LT$alloc..boxed..Box$LT$$LT$pyo3_async_runtimes..tokio..TokioRuntime$u20$as$u20$pyo3_async_runtimes..generic..Runtime$GT$..spawn$LT$pyo3_async_runtimes..generic..future_into_py_with_locals$LT$pyo3_async_runtimes..tokio..TokioRuntime$C$_skreaver..a2a..client..PyA2aClient..wait_for_task..$u7b$$u7b$closure$u7d$$u7d$$C$_skreaver..a2a..types..PyTask$GT$..$u7b$$u7b$closure$u7d$$u7d$..$u7b$$u7b$closure$u7d$$u7d$$GT$..$u7b$$u7b$closure$u7d$$u7d$$GT$$GT$$C$alloc..sync..Arc$LT$tokio..runtime..scheduler..current_thread..Handle$GT$$GT$$GT$17h782484085fa19652E', symObjAddr: 0x4C10, symBinAddr: 0xD0BC, symSize: 0x94 }
  - { offset: 0x3CABA, size: 0x8, addend: 0x0, symName: '__ZN4core3ptr602drop_in_place$LT$tokio..runtime..task..core..Cell$LT$core..pin..Pin$LT$alloc..boxed..Box$LT$$LT$pyo3_async_runtimes..tokio..TokioRuntime$u20$as$u20$pyo3_async_runtimes..generic..Runtime$GT$..spawn$LT$pyo3_async_runtimes..generic..future_into_py_with_locals$LT$pyo3_async_runtimes..tokio..TokioRuntime$C$_skreaver..a2a..client..PyA2aClient..get_task..$u7b$$u7b$closure$u7d$$u7d$$C$_skreaver..a2a..types..PyTask$GT$..$u7b$$u7b$closure$u7d$$u7d$..$u7b$$u7b$closure$u7d$$u7d$$GT$..$u7b$$u7b$closure$u7d$$u7d$$GT$$GT$$C$alloc..sync..Arc$LT$tokio..runtime..scheduler..multi_thread..handle..Handle$GT$$GT$$GT$17hacac111b9f7f3badE', symObjAddr: 0x4CA4, symBinAddr: 0xD150, symSize: 0x94 }
  - { offset: 0x3CC9A, size: 0x8, addend: 0x0, symName: '__ZN4core3ptr605drop_in_place$LT$tokio..runtime..task..core..Cell$LT$core..pin..Pin$LT$alloc..boxed..Box$LT$$LT$pyo3_async_runtimes..tokio..TokioRuntime$u20$as$u20$pyo3_async_runtimes..generic..Runtime$GT$..spawn$LT$pyo3_async_runtimes..generic..future_into_py_with_locals$LT$pyo3_async_runtimes..tokio..TokioRuntime$C$_skreaver..a2a..client..PyA2aClient..cancel_task..$u7b$$u7b$closure$u7d$$u7d$$C$_skreaver..a2a..types..PyTask$GT$..$u7b$$u7b$closure$u7d$$u7d$..$u7b$$u7b$closure$u7d$$u7d$$GT$..$u7b$$u7b$closure$u7d$$u7d$$GT$$GT$$C$alloc..sync..Arc$LT$tokio..runtime..scheduler..multi_thread..handle..Handle$GT$$GT$$GT$17hc043aed59502d309E', symObjAddr: 0x4D38, symBinAddr: 0xD1E4, symSize: 0x94 }
  - { offset: 0x3CE7A, size: 0x8, addend: 0x0, symName: '__ZN4core3ptr606drop_in_place$LT$tokio..runtime..task..core..Cell$LT$core..pin..Pin$LT$alloc..boxed..Box$LT$$LT$pyo3_async_runtimes..tokio..TokioRuntime$u20$as$u20$pyo3_async_runtimes..generic..Runtime$GT$..spawn$LT$pyo3_async_runtimes..generic..future_into_py_with_locals$LT$pyo3_async_runtimes..tokio..TokioRuntime$C$_skreaver..a2a..client..PyA2aClient..send_message..$u7b$$u7b$closure$u7d$$u7d$$C$_skreaver..a2a..types..PyTask$GT$..$u7b$$u7b$closure$u7d$$u7d$..$u7b$$u7b$closure$u7d$$u7d$$GT$..$u7b$$u7b$closure$u7d$$u7d$$GT$$GT$$C$alloc..sync..Arc$LT$tokio..runtime..scheduler..multi_thread..handle..Handle$GT$$GT$$GT$17h652b413d5b18a98eE', symObjAddr: 0x4DCC, symBinAddr: 0xD278, symSize: 0x94 }
  - { offset: 0x3D05A, size: 0x8, addend: 0x0, symName: '__ZN4core3ptr607drop_in_place$LT$tokio..runtime..task..core..Cell$LT$core..pin..Pin$LT$alloc..boxed..Box$LT$$LT$pyo3_async_runtimes..tokio..TokioRuntime$u20$as$u20$pyo3_async_runtimes..generic..Runtime$GT$..spawn$LT$pyo3_async_runtimes..generic..future_into_py_with_locals$LT$pyo3_async_runtimes..tokio..TokioRuntime$C$_skreaver..a2a..client..PyA2aClient..continue_task..$u7b$$u7b$closure$u7d$$u7d$$C$_skreaver..a2a..types..PyTask$GT$..$u7b$$u7b$closure$u7d$$u7d$..$u7b$$u7b$closure$u7d$$u7d$$GT$..$u7b$$u7b$closure$u7d$$u7d$$GT$$GT$$C$alloc..sync..Arc$LT$tokio..runtime..scheduler..multi_thread..handle..Handle$GT$$GT$$GT$17h73c4828a301772a5E', symObjAddr: 0x4E60, symBinAddr: 0xD30C, symSize: 0x94 }
  - { offset: 0x3D259, size: 0x8, addend: 0x0, symName: '__ZN4core3ptr607drop_in_place$LT$tokio..runtime..task..core..Cell$LT$core..pin..Pin$LT$alloc..boxed..Box$LT$$LT$pyo3_async_runtimes..tokio..TokioRuntime$u20$as$u20$pyo3_async_runtimes..generic..Runtime$GT$..spawn$LT$pyo3_async_runtimes..generic..future_into_py_with_locals$LT$pyo3_async_runtimes..tokio..TokioRuntime$C$_skreaver..a2a..client..PyA2aClient..get_agent_card..$u7b$$u7b$closure$u7d$$u7d$$C$_skreaver..a2a..types..PyAgentCard$GT$..$u7b$$u7b$closure$u7d$$u7d$..$u7b$$u7b$closure$u7d$$u7d$$GT$..$u7b$$u7b$closure$u7d$$u7d$$GT$$GT$$C$alloc..sync..Arc$LT$tokio..runtime..scheduler..current_thread..Handle$GT$$GT$$GT$17h16022f4584a2d2c9E', symObjAddr: 0x4EF4, symBinAddr: 0xD3A0, symSize: 0x94 }
  - { offset: 0x3D439, size: 0x8, addend: 0x0, symName: '__ZN4core3ptr607drop_in_place$LT$tokio..runtime..task..core..Cell$LT$core..pin..Pin$LT$alloc..boxed..Box$LT$$LT$pyo3_async_runtimes..tokio..TokioRuntime$u20$as$u20$pyo3_async_runtimes..generic..Runtime$GT$..spawn$LT$pyo3_async_runtimes..generic..future_into_py_with_locals$LT$pyo3_async_runtimes..tokio..TokioRuntime$C$_skreaver..a2a..client..PyA2aClient..wait_for_task..$u7b$$u7b$closure$u7d$$u7d$$C$_skreaver..a2a..types..PyTask$GT$..$u7b$$u7b$closure$u7d$$u7d$..$u7b$$u7b$closure$u7d$$u7d$$GT$..$u7b$$u7b$closure$u7d$$u7d$$GT$$GT$$C$alloc..sync..Arc$LT$tokio..runtime..scheduler..multi_thread..handle..Handle$GT$$GT$$GT$17h5602b34f393e6da3E', symObjAddr: 0x4F88, symBinAddr: 0xD434, symSize: 0x94 }
  - { offset: 0x3D619, size: 0x8, addend: 0x0, symName: '__ZN4core3ptr613drop_in_place$LT$tokio..runtime..task..core..Cell$LT$core..pin..Pin$LT$alloc..boxed..Box$LT$$LT$pyo3_async_runtimes..tokio..TokioRuntime$u20$as$u20$pyo3_async_runtimes..generic..Runtime$GT$..spawn$LT$pyo3_async_runtimes..generic..future_into_py_with_locals$LT$pyo3_async_runtimes..tokio..TokioRuntime$C$_skreaver..a2a..client..PyA2aClient..get_agent_card..$u7b$$u7b$closure$u7d$$u7d$$C$_skreaver..a2a..types..PyAgentCard$GT$..$u7b$$u7b$closure$u7d$$u7d$..$u7b$$u7b$closure$u7d$$u7d$$GT$..$u7b$$u7b$closure$u7d$$u7d$$GT$$GT$$C$alloc..sync..Arc$LT$tokio..runtime..scheduler..multi_thread..handle..Handle$GT$$GT$$GT$17h04a2def03e11e89eE', symObjAddr: 0x5048, symBinAddr: 0xD4C8, symSize: 0x94 }
  - { offset: 0x3D7DA, size: 0x8, addend: 0x0, symName: '__ZN4core3ptr61drop_in_place$LT$skreaver_memory..file_memory..FileMemory$GT$17hcffec8124877c047E', symObjAddr: 0x5210, symBinAddr: 0xD55C, symSize: 0x3C }
  - { offset: 0x3D9A9, size: 0x8, addend: 0x0, symName: '__ZN4core3ptr63drop_in_place$LT$reqwest..async_impl..client..ClientBuilder$GT$17h0eb76eb684b24162E', symObjAddr: 0x5380, symBinAddr: 0xD598, symSize: 0x214 }
  - { offset: 0x3DE0C, size: 0x8, addend: 0x0, symName: '__ZN4core3ptr63drop_in_place$LT$serde_json..value..de..VariantDeserializer$GT$17h5987fc03d9712fe2E', symObjAddr: 0x5594, symBinAddr: 0xD7AC, symSize: 0x48 }
  - { offset: 0x3DEA6, size: 0x8, addend: 0x0, symName: '__ZN4core3ptr65drop_in_place$LT$pyo3_async_runtimes..generic..PyDoneCallback$GT$17hf3a851bdcd0c2575E', symObjAddr: 0x5818, symBinAddr: 0xD7F4, symSize: 0x80 }
  - { offset: 0x3E0BA, size: 0x8, addend: 0x0, symName: '__ZN4core3ptr67drop_in_place$LT$alloc..vec..Vec$LT$reqwest..proxy..Matcher$GT$$GT$17he74bac12bd12ecadE', symObjAddr: 0x5898, symBinAddr: 0xD874, symSize: 0x3C }
  - { offset: 0x3E113, size: 0x8, addend: 0x0, symName: '__ZN4core3ptr67drop_in_place$LT$skreaver_gateway..registry..ConnectionRegistry$GT$17h406e57b8faa82242E', symObjAddr: 0x58D4, symBinAddr: 0xD8B0, symSize: 0x90 }
  - { offset: 0x3E3BE, size: 0x8, addend: 0x0, symName: '__ZN4core3ptr68drop_in_place$LT$skreaver_a2a..types..request..CancelTaskRequest$GT$17h866758302c990cb9E', symObjAddr: 0x5964, symBinAddr: 0xD940, symSize: 0x68 }
  - { offset: 0x3E411, size: 0x8, addend: 0x0, symName: '__ZN4core3ptr69drop_in_place$LT$alloc..vec..Vec$LT$reqwest..tls..Certificate$GT$$GT$17h7c47dc95841097c1E', symObjAddr: 0x59CC, symBinAddr: 0xD9A8, symSize: 0x3C }
  - { offset: 0x3E46A, size: 0x8, addend: 0x0, symName: '__ZN4core3ptr69drop_in_place$LT$futures_channel..oneshot..Sender$LT$$LP$$RP$$GT$$GT$17h9da21c24ff1f40c7E', symObjAddr: 0x5A08, symBinAddr: 0xD9E4, symSize: 0x78 }
  - { offset: 0x3E63D, size: 0x8, addend: 0x0, symName: '__ZN4core3ptr69drop_in_place$LT$skreaver_a2a..types..request..SendMessageRequest$GT$17h816ac4bb1da5e59bE', symObjAddr: 0x5A80, symBinAddr: 0xDA5C, symSize: 0xA8 }
  - { offset: 0x3E6E9, size: 0x8, addend: 0x0, symName: '__ZN4core3ptr71drop_in_place$LT$futures_channel..oneshot..Receiver$LT$$LP$$RP$$GT$$GT$17h843dec9ffb8b6d49E', symObjAddr: 0x5B38, symBinAddr: 0xDB04, symSize: 0x80 }
  - { offset: 0x3E928, size: 0x8, addend: 0x0, symName: '__ZN4core3ptr73drop_in_place$LT$pyo3..instance..Bound$LT$pyo3..types..any..PyAny$GT$$GT$17h9618b511440d036eE', symObjAddr: 0x5BB8, symBinAddr: 0xDB84, symSize: 0x5C }
  - { offset: 0x3E9E3, size: 0x8, addend: 0x0, symName: '__ZN4core3ptr73drop_in_place$LT$pyo3..pycell..PyRef$LT$_skreaver..mcp..PyMcpTask$GT$$GT$17h7bca938ff5026e4cE', symObjAddr: 0x5C14, symBinAddr: 0xDBE0, symSize: 0x90 }
  - { offset: 0x3EB0E, size: 0x8, addend: 0x0, symName: '__ZN4core3ptr75drop_in_place$LT$pyo3..instance..Bound$LT$_skreaver..mcp..PyMcpTask$GT$$GT$17h955a23c484c3f587E', symObjAddr: 0x5CA4, symBinAddr: 0xDC70, symSize: 0x5C }
  - { offset: 0x3EBAA, size: 0x8, addend: 0x0, symName: '__ZN4core3ptr75drop_in_place$LT$pyo3..instance..Bound$LT$pyo3..types..list..PyList$GT$$GT$17h4d4f4af634b468a6E', symObjAddr: 0x5D00, symBinAddr: 0xDCCC, symSize: 0x5C }
  - { offset: 0x3EC84, size: 0x8, addend: 0x0, symName: '__ZN4core3ptr76drop_in_place$LT$alloc..vec..Vec$LT$skreaver_core..memory..MemoryKey$GT$$GT$17hbc79c3ca67c440c6E', symObjAddr: 0x5D5C, symBinAddr: 0xDD28, symSize: 0x9C }
  - { offset: 0x3EDD7, size: 0x8, addend: 0x0, symName: '__ZN4core3ptr77drop_in_place$LT$pyo3..pycell..PyRef$LT$_skreaver..a2a..types..PyPart$GT$$GT$17h1fae16de7afede5fE', symObjAddr: 0x5DFC, symBinAddr: 0xDDC4, symSize: 0x90 }
  - { offset: 0x3EF21, size: 0x8, addend: 0x0, symName: '__ZN4core3ptr77drop_in_place$LT$pyo3..pycell..PyRef$LT$_skreaver..a2a..types..PyTask$GT$$GT$17h60dfba0bbbf6ebc3E', symObjAddr: 0x5E8C, symBinAddr: 0xDE54, symSize: 0x90 }
  - { offset: 0x3F06B, size: 0x8, addend: 0x0, symName: '__ZN4core3ptr78drop_in_place$LT$pyo3..pycell..PyRef$LT$_skreaver..gateway..PyProtocol$GT$$GT$17hc6fe5ad3cf6573a7E', symObjAddr: 0x5F28, symBinAddr: 0xDEE4, symSize: 0x90 }
  - { offset: 0x3F196, size: 0x8, addend: 0x0, symName: '__ZN4core3ptr79drop_in_place$LT$pyo3..instance..Bound$LT$_skreaver..a2a..types..PyPart$GT$$GT$17ha39ddb3e42d5ad2eE', symObjAddr: 0x5FB8, symBinAddr: 0xDF74, symSize: 0x5C }
  - { offset: 0x3F232, size: 0x8, addend: 0x0, symName: '__ZN4core3ptr79drop_in_place$LT$pyo3..instance..Bound$LT$_skreaver..a2a..types..PyTask$GT$$GT$17h96ef49ef4ddfee7dE', symObjAddr: 0x6014, symBinAddr: 0xDFD0, symSize: 0x5C }
  - { offset: 0x3F2ED, size: 0x8, addend: 0x0, symName: '__ZN4core3ptr79drop_in_place$LT$pyo3..pycell..PyRef$LT$_skreaver..mcp..PyMcpTaskStatus$GT$$GT$17h71c5973ce352c735E', symObjAddr: 0x6070, symBinAddr: 0xE02C, symSize: 0x90 }
  - { offset: 0x3F437, size: 0x8, addend: 0x0, symName: '__ZN4core3ptr79drop_in_place$LT$pyo3..pycell..PyRef$LT$_skreaver..memory..PyFileMemory$GT$$GT$17hb992d2f30a27c5d0E', symObjAddr: 0x6100, symBinAddr: 0xE0BC, symSize: 0x90 }
  - { offset: 0x3F5A0, size: 0x8, addend: 0x0, symName: '__ZN4core3ptr80drop_in_place$LT$pyo3..instance..Bound$LT$_skreaver..gateway..PyProtocol$GT$$GT$17h0e6c194a26ce931fE', symObjAddr: 0x61C4, symBinAddr: 0xE14C, symSize: 0x5C }
  - { offset: 0x3F65B, size: 0x8, addend: 0x0, symName: '__ZN4core3ptr80drop_in_place$LT$pyo3..pycell..PyRef$LT$_skreaver..a2a..types..PyMessage$GT$$GT$17h8e2e56de6be2324fE', symObjAddr: 0x6220, symBinAddr: 0xE1A8, symSize: 0x90 }
  - { offset: 0x3F786, size: 0x8, addend: 0x0, symName: '__ZN4core3ptr80drop_in_place$LT$pyo3..pycell..PyRefMut$LT$_skreaver..a2a..types..PyTask$GT$$GT$17he244c51f40a21171E', symObjAddr: 0x62B0, symBinAddr: 0xE238, symSize: 0x90 }
  - { offset: 0x3F8B1, size: 0x8, addend: 0x0, symName: '__ZN4core3ptr81drop_in_place$LT$pyo3..instance..Bound$LT$_skreaver..mcp..PyMcpTaskStatus$GT$$GT$17h3ef040e1db735f39E', symObjAddr: 0x6340, symBinAddr: 0xE2C8, symSize: 0x5C }
  - { offset: 0x3F94D, size: 0x8, addend: 0x0, symName: '__ZN4core3ptr81drop_in_place$LT$pyo3..instance..Bound$LT$_skreaver..memory..PyFileMemory$GT$$GT$17h2d9a6c1030f103baE', symObjAddr: 0x639C, symBinAddr: 0xE324, symSize: 0x5C }
  - { offset: 0x3FA08, size: 0x8, addend: 0x0, symName: '__ZN4core3ptr81drop_in_place$LT$pyo3..pycell..PyRef$LT$_skreaver..a2a..types..PyArtifact$GT$$GT$17h5b73bc5e4c56a1beE', symObjAddr: 0x63F8, symBinAddr: 0xE380, symSize: 0x90 }
  - { offset: 0x3FB33, size: 0x8, addend: 0x0, symName: '__ZN4core3ptr82drop_in_place$LT$pyo3..instance..Bound$LT$_skreaver..a2a..types..PyMessage$GT$$GT$17h9a47eaab62418eecE', symObjAddr: 0x648C, symBinAddr: 0xE410, symSize: 0x5C }
  - { offset: 0x3FBEE, size: 0x8, addend: 0x0, symName: '__ZN4core3ptr82drop_in_place$LT$pyo3..pycell..PyRef$LT$_skreaver..a2a..types..PyAgentCard$GT$$GT$17h917ba60ea7a12820E', symObjAddr: 0x64E8, symBinAddr: 0xE46C, symSize: 0x90 }
  - { offset: 0x3FD19, size: 0x8, addend: 0x0, symName: '__ZN4core3ptr83drop_in_place$LT$$u5b$pyo3..instance..Bound$LT$pyo3..types..any..PyAny$GT$$u5d$$GT$17h6a3141498b379d20E', symObjAddr: 0x6578, symBinAddr: 0xE4FC, symSize: 0xB8 }
  - { offset: 0x3FDDD, size: 0x8, addend: 0x0, symName: '__ZN4core3ptr83drop_in_place$LT$pyo3..instance..Bound$LT$_skreaver..a2a..types..PyArtifact$GT$$GT$17h3aef84127c948491E', symObjAddr: 0x6634, symBinAddr: 0xE5B4, symSize: 0x5C }
  - { offset: 0x3FE98, size: 0x8, addend: 0x0, symName: '__ZN4core3ptr83drop_in_place$LT$pyo3..pycell..PyRef$LT$_skreaver..a2a..client..PyA2aClient$GT$$GT$17h3268203c6079badbE', symObjAddr: 0x6690, symBinAddr: 0xE610, symSize: 0x90 }
  - { offset: 0x3FFE2, size: 0x8, addend: 0x0, symName: '__ZN4core3ptr83drop_in_place$LT$pyo3..pycell..PyRef$LT$_skreaver..a2a..types..PyAgentSkill$GT$$GT$17h3d18dfc04da25b6cE', symObjAddr: 0x6720, symBinAddr: 0xE6A0, symSize: 0x90 }
  - { offset: 0x4012C, size: 0x8, addend: 0x0, symName: '__ZN4core3ptr83drop_in_place$LT$pyo3..pycell..PyRef$LT$_skreaver..a2a..types..PyTaskStatus$GT$$GT$17h7988c137d39d0a0fE', symObjAddr: 0x67B0, symBinAddr: 0xE730, symSize: 0x90 }
  - { offset: 0x40276, size: 0x8, addend: 0x0, symName: '__ZN4core3ptr83drop_in_place$LT$pyo3..pycell..PyRef$LT$_skreaver..mcp..PyMcpToolDefinition$GT$$GT$17h2374546bda31136eE', symObjAddr: 0x6840, symBinAddr: 0xE7C0, symSize: 0x90 }
  - { offset: 0x403A1, size: 0x8, addend: 0x0, symName: '__ZN4core3ptr84drop_in_place$LT$pyo3..instance..Bound$LT$_skreaver..a2a..types..PyAgentCard$GT$$GT$17hc904ae5ea0aa4da8E', symObjAddr: 0x68D4, symBinAddr: 0xE850, symSize: 0x5C }
  - { offset: 0x4045C, size: 0x8, addend: 0x0, symName: '__ZN4core3ptr84drop_in_place$LT$pyo3..pycell..PyRef$LT$_skreaver..mcp..PyMcpToolAnnotations$GT$$GT$17hd5b34ac286022c1aE', symObjAddr: 0x6930, symBinAddr: 0xE8AC, symSize: 0x90 }
  - { offset: 0x40587, size: 0x8, addend: 0x0, symName: '__ZN4core3ptr85drop_in_place$LT$pyo3..instance..Bound$LT$_skreaver..a2a..client..PyA2aClient$GT$$GT$17hc79f34554cb236b7E', symObjAddr: 0x69C4, symBinAddr: 0xE93C, symSize: 0x5C }
  - { offset: 0x40623, size: 0x8, addend: 0x0, symName: '__ZN4core3ptr85drop_in_place$LT$pyo3..instance..Bound$LT$_skreaver..a2a..types..PyAgentSkill$GT$$GT$17h955c303cf8ed4a04E', symObjAddr: 0x6A20, symBinAddr: 0xE998, symSize: 0x5C }
  - { offset: 0x406BF, size: 0x8, addend: 0x0, symName: '__ZN4core3ptr85drop_in_place$LT$pyo3..instance..Bound$LT$_skreaver..a2a..types..PyTaskStatus$GT$$GT$17h2e69d9504744ff39E', symObjAddr: 0x6A7C, symBinAddr: 0xE9F4, symSize: 0x5C }
  - { offset: 0x4075B, size: 0x8, addend: 0x0, symName: '__ZN4core3ptr85drop_in_place$LT$pyo3..instance..Bound$LT$_skreaver..mcp..PyMcpToolDefinition$GT$$GT$17hbccf900965b300edE', symObjAddr: 0x6AD8, symBinAddr: 0xEA50, symSize: 0x5C }
  - { offset: 0x40816, size: 0x8, addend: 0x0, symName: '__ZN4core3ptr85drop_in_place$LT$pyo3..pycell..PyRef$LT$_skreaver..gateway..PyProtocolGateway$GT$$GT$17hbed1795c3ef846a9E', symObjAddr: 0x6B34, symBinAddr: 0xEAAC, symSize: 0x90 }
  - { offset: 0x40941, size: 0x8, addend: 0x0, symName: '__ZN4core3ptr86drop_in_place$LT$pyo3..instance..Bound$LT$_skreaver..mcp..PyMcpToolAnnotations$GT$$GT$17h224aa4ff7fed00b1E', symObjAddr: 0x6BD0, symBinAddr: 0xEB3C, symSize: 0x5C }
  - { offset: 0x409FC, size: 0x8, addend: 0x0, symName: '__ZN4core3ptr86drop_in_place$LT$pyo3..pycell..PyRef$LT$_skreaver..gateway..PyProtocolDetector$GT$$GT$17h0c7a0733de22e3caE', symObjAddr: 0x6C2C, symBinAddr: 0xEB98, symSize: 0x90 }
  - { offset: 0x40B27, size: 0x8, addend: 0x0, symName: '__ZN4core3ptr87drop_in_place$LT$pyo3..instance..Bound$LT$_skreaver..gateway..PyProtocolGateway$GT$$GT$17h2af349393cccea6bE', symObjAddr: 0x6D24, symBinAddr: 0xEC28, symSize: 0x5C }
  - { offset: 0x40C4E, size: 0x8, addend: 0x0, symName: '__ZN4core3ptr87drop_in_place$LT$skreaver_a2a..client..A2aClient..send..$u7b$$u7b$closure$u7d$$u7d$$GT$17ha05d40302da99723E', symObjAddr: 0x6D80, symBinAddr: 0xEC84, symSize: 0x19C }
  - { offset: 0x40DF5, size: 0x8, addend: 0x0, symName: '__ZN4core3ptr88drop_in_place$LT$pyo3..instance..Bound$LT$_skreaver..gateway..PyProtocolDetector$GT$$GT$17hf41d7d90f90e7d97E', symObjAddr: 0x6F20, symBinAddr: 0xEE20, symSize: 0x5C }
  - { offset: 0x40E91, size: 0x8, addend: 0x0, symName: '__ZN4core3ptr91drop_in_place$LT$_skreaver..a2a..client..PyA2aClient..send..$u7b$$u7b$closure$u7d$$u7d$$GT$17h69f189449a5cc56cE', symObjAddr: 0x6F7C, symBinAddr: 0xEE7C, symSize: 0xF0 }
  - { offset: 0x40F2A, size: 0x8, addend: 0x0, symName: '__ZN4core3ptr91drop_in_place$LT$core..cell..UnsafeCell$LT$skreaver_memory..file_memory..FileMemory$GT$$GT$17hc1e7c965493a43bbE', symObjAddr: 0x706C, symBinAddr: 0xEF6C, symSize: 0x3C }
  - { offset: 0x41157, size: 0x8, addend: 0x0, symName: '__ZN4core3ptr95drop_in_place$LT$_skreaver..a2a..client..PyA2aClient..get_task..$u7b$$u7b$closure$u7d$$u7d$$GT$17h3c20477a76cac2a8E', symObjAddr: 0x70A8, symBinAddr: 0xEFA8, symSize: 0xF8 }
  - { offset: 0x411E9, size: 0x8, addend: 0x0, symName: '__ZN4core3ptr96drop_in_place$LT$pyo3..pyclass_init..PyClassInitializer$LT$_skreaver..a2a..types..PyPart$GT$$GT$17h3a977e8d65f8207bE', symObjAddr: 0x71A4, symBinAddr: 0xF0A0, symSize: 0x4C }
  - { offset: 0x41213, size: 0x8, addend: 0x0, symName: '__ZN4core3ptr96drop_in_place$LT$pyo3..pyclass_init..PyClassInitializer$LT$_skreaver..a2a..types..PyPart$GT$$GT$17h3a977e8d65f8207bE', symObjAddr: 0x71A4, symBinAddr: 0xF0A0, symSize: 0x4C }
  - { offset: 0x412F2, size: 0x8, addend: 0x0, symName: '__ZN4core3ptr96drop_in_place$LT$pyo3..pyclass_init..PyClassInitializer$LT$_skreaver..a2a..types..PyTask$GT$$GT$17h027eba7148208d0eE', symObjAddr: 0x71F0, symBinAddr: 0xF0EC, symSize: 0x24 }
  - { offset: 0x4131C, size: 0x8, addend: 0x0, symName: '__ZN4core3ptr96drop_in_place$LT$pyo3..pyclass_init..PyClassInitializer$LT$_skreaver..a2a..types..PyTask$GT$$GT$17h027eba7148208d0eE', symObjAddr: 0x71F0, symBinAddr: 0xF0EC, symSize: 0x24 }
  - { offset: 0x413BB, size: 0x8, addend: 0x0, symName: '__ZN4core3ptr96drop_in_place$LT$pythonize..ser..PythonMapSerializer$LT$pythonize..ser..PythonizeDefault$GT$$GT$17h12bdefc93afd90ccE', symObjAddr: 0x7214, symBinAddr: 0xF110, symSize: 0xCC }
  - { offset: 0x4152C, size: 0x8, addend: 0x0, symName: '__ZN4core3ptr97drop_in_place$LT$alloc..sync..ArcInner$LT$futures_channel..oneshot..Inner$LT$$LP$$RP$$GT$$GT$$GT$17ha3cb1f26d0436305E', symObjAddr: 0x72E0, symBinAddr: 0xF1DC, symSize: 0x40 }
  - { offset: 0x41864, size: 0x8, addend: 0x0, symName: '__ZN4core3ptr98drop_in_place$LT$_skreaver..a2a..client..PyA2aClient..cancel_task..$u7b$$u7b$closure$u7d$$u7d$$GT$17h5b978f7c36ac2cb8E', symObjAddr: 0x733C, symBinAddr: 0xF21C, symSize: 0x1E8 }
  - { offset: 0x4199D, size: 0x8, addend: 0x0, symName: '__ZN4core3ptr98drop_in_place$LT$pyo3..pyclass_init..PyClassInitializer$LT$_skreaver..memory..PyFileMemory$GT$$GT$17h6aed5f88e8540c65E', symObjAddr: 0x7540, symBinAddr: 0xF404, symSize: 0x24 }
  - { offset: 0x419C7, size: 0x8, addend: 0x0, symName: '__ZN4core3ptr98drop_in_place$LT$pyo3..pyclass_init..PyClassInitializer$LT$_skreaver..memory..PyFileMemory$GT$$GT$17h6aed5f88e8540c65E', symObjAddr: 0x7540, symBinAddr: 0xF404, symSize: 0x24 }
  - { offset: 0x41AB3, size: 0x8, addend: 0x0, symName: '__ZN4core3ptr99drop_in_place$LT$_skreaver..a2a..client..PyA2aClient..send_message..$u7b$$u7b$closure$u7d$$u7d$$GT$17h68c6c51163d5a323E', symObjAddr: 0x7564, symBinAddr: 0xF428, symSize: 0xA4 }
  - { offset: 0x41B59, size: 0x8, addend: 0x0, symName: '__ZN4core3ptr99drop_in_place$LT$pyo3..pyclass_init..PyClassInitializer$LT$_skreaver..a2a..types..PyMessage$GT$$GT$17h03c00ee897c3e30fE', symObjAddr: 0x7608, symBinAddr: 0xF4CC, symSize: 0x24 }
  - { offset: 0x41B83, size: 0x8, addend: 0x0, symName: '__ZN4core3ptr99drop_in_place$LT$pyo3..pyclass_init..PyClassInitializer$LT$_skreaver..a2a..types..PyMessage$GT$$GT$17h03c00ee897c3e30fE', symObjAddr: 0x7608, symBinAddr: 0xF4CC, symSize: 0x24 }
  - { offset: 0x56363, size: 0x8, addend: 0x0, symName: '__ZN72_$LT$alloc..boxed..Box$LT$T$C$A$GT$$u20$as$u20$core..ops..drop..Drop$GT$4drop17h1804d9eafc80fc51E', symObjAddr: 0x762C, symBinAddr: 0xF4F0, symSize: 0xA4 }
  - { offset: 0x5649F, size: 0x8, addend: 0x0, symName: '__ZN72_$LT$alloc..boxed..Box$LT$T$C$A$GT$$u20$as$u20$core..ops..drop..Drop$GT$4drop17h1af8c489d9fddc5aE', symObjAddr: 0x76D0, symBinAddr: 0xF594, symSize: 0x80 }
  - { offset: 0x565C5, size: 0x8, addend: 0x0, symName: '__ZN72_$LT$alloc..boxed..Box$LT$T$C$A$GT$$u20$as$u20$core..ops..drop..Drop$GT$4drop17h37e95a483e325d5bE', symObjAddr: 0x7750, symBinAddr: 0xF614, symSize: 0x80 }
  - { offset: 0x566EB, size: 0x8, addend: 0x0, symName: '__ZN72_$LT$alloc..boxed..Box$LT$T$C$A$GT$$u20$as$u20$core..ops..drop..Drop$GT$4drop17h4e29f917f841cd6fE', symObjAddr: 0x77D0, symBinAddr: 0xF694, symSize: 0x80 }
  - { offset: 0x56811, size: 0x8, addend: 0x0, symName: '__ZN72_$LT$alloc..boxed..Box$LT$T$C$A$GT$$u20$as$u20$core..ops..drop..Drop$GT$4drop17h4f0a6b31ad719c5fE', symObjAddr: 0x7850, symBinAddr: 0xF714, symSize: 0xA4 }
  - { offset: 0x5694D, size: 0x8, addend: 0x0, symName: '__ZN72_$LT$alloc..boxed..Box$LT$T$C$A$GT$$u20$as$u20$core..ops..drop..Drop$GT$4drop17h61612e19387e30e8E', symObjAddr: 0x78F4, symBinAddr: 0xF7B8, symSize: 0x80 }
  - { offset: 0x56A73, size: 0x8, addend: 0x0, symName: '__ZN72_$LT$alloc..boxed..Box$LT$T$C$A$GT$$u20$as$u20$core..ops..drop..Drop$GT$4drop17h636c3c6080496f84E', symObjAddr: 0x7974, symBinAddr: 0xF838, symSize: 0xA4 }
  - { offset: 0x56BAF, size: 0x8, addend: 0x0, symName: '__ZN72_$LT$alloc..boxed..Box$LT$T$C$A$GT$$u20$as$u20$core..ops..drop..Drop$GT$4drop17h6627ab489a85c0d2E', symObjAddr: 0x7A18, symBinAddr: 0xF8DC, symSize: 0x80 }
  - { offset: 0x56CD5, size: 0x8, addend: 0x0, symName: '__ZN72_$LT$alloc..boxed..Box$LT$T$C$A$GT$$u20$as$u20$core..ops..drop..Drop$GT$4drop17h7d1243e68a922da4E', symObjAddr: 0x7A98, symBinAddr: 0xF95C, symSize: 0x80 }
  - { offset: 0x56DFB, size: 0x8, addend: 0x0, symName: '__ZN72_$LT$alloc..boxed..Box$LT$T$C$A$GT$$u20$as$u20$core..ops..drop..Drop$GT$4drop17h82da808e9fb9842fE', symObjAddr: 0x7B18, symBinAddr: 0xF9DC, symSize: 0x80 }
  - { offset: 0x56F21, size: 0x8, addend: 0x0, symName: '__ZN72_$LT$alloc..boxed..Box$LT$T$C$A$GT$$u20$as$u20$core..ops..drop..Drop$GT$4drop17h82efd36ff67a0455E', symObjAddr: 0x7B98, symBinAddr: 0xFA5C, symSize: 0x80 }
  - { offset: 0x57047, size: 0x8, addend: 0x0, symName: '__ZN72_$LT$alloc..boxed..Box$LT$T$C$A$GT$$u20$as$u20$core..ops..drop..Drop$GT$4drop17h94cda2d2851786a3E', symObjAddr: 0x7C18, symBinAddr: 0xFADC, symSize: 0x80 }
  - { offset: 0x5716D, size: 0x8, addend: 0x0, symName: '__ZN72_$LT$alloc..boxed..Box$LT$T$C$A$GT$$u20$as$u20$core..ops..drop..Drop$GT$4drop17h99d343ba1191e0a1E', symObjAddr: 0x7C98, symBinAddr: 0xFB5C, symSize: 0x80 }
  - { offset: 0x57293, size: 0x8, addend: 0x0, symName: '__ZN72_$LT$alloc..boxed..Box$LT$T$C$A$GT$$u20$as$u20$core..ops..drop..Drop$GT$4drop17h9d11ea4930b05807E', symObjAddr: 0x7D18, symBinAddr: 0xFBDC, symSize: 0x80 }
  - { offset: 0x573B9, size: 0x8, addend: 0x0, symName: '__ZN72_$LT$alloc..boxed..Box$LT$T$C$A$GT$$u20$as$u20$core..ops..drop..Drop$GT$4drop17haed5b409b526872aE', symObjAddr: 0x7D98, symBinAddr: 0xFC5C, symSize: 0x80 }
  - { offset: 0x574DF, size: 0x8, addend: 0x0, symName: '__ZN72_$LT$alloc..boxed..Box$LT$T$C$A$GT$$u20$as$u20$core..ops..drop..Drop$GT$4drop17hb3163713cb8d016eE', symObjAddr: 0x7E18, symBinAddr: 0xFCDC, symSize: 0x80 }
  - { offset: 0x57605, size: 0x8, addend: 0x0, symName: '__ZN72_$LT$alloc..boxed..Box$LT$T$C$A$GT$$u20$as$u20$core..ops..drop..Drop$GT$4drop17hb5a9e2e5bac7b73cE', symObjAddr: 0x7E98, symBinAddr: 0xFD5C, symSize: 0x80 }
  - { offset: 0x5772B, size: 0x8, addend: 0x0, symName: '__ZN72_$LT$alloc..boxed..Box$LT$T$C$A$GT$$u20$as$u20$core..ops..drop..Drop$GT$4drop17hb68c53836238e048E', symObjAddr: 0x7F18, symBinAddr: 0xFDDC, symSize: 0xA4 }
  - { offset: 0x57867, size: 0x8, addend: 0x0, symName: '__ZN72_$LT$alloc..boxed..Box$LT$T$C$A$GT$$u20$as$u20$core..ops..drop..Drop$GT$4drop17hc68ca62efa547a65E', symObjAddr: 0x7FBC, symBinAddr: 0xFE80, symSize: 0x80 }
  - { offset: 0x5798D, size: 0x8, addend: 0x0, symName: '__ZN72_$LT$alloc..boxed..Box$LT$T$C$A$GT$$u20$as$u20$core..ops..drop..Drop$GT$4drop17heba8625f80d778cbE', symObjAddr: 0x803C, symBinAddr: 0xFF00, symSize: 0x80 }
  - { offset: 0x63C53, size: 0x8, addend: 0x0, symName: __ZN4pyo37pyclass18create_type_object18create_type_object17h032dd381ce0fb0eeE, symObjAddr: 0x0, symBinAddr: 0xFF80, symSize: 0x144 }
  - { offset: 0x69C52, size: 0x8, addend: 0x0, symName: __ZN4pyo37pyclass18create_type_object18create_type_object17h032dd381ce0fb0eeE, symObjAddr: 0x0, symBinAddr: 0xFF80, symSize: 0x144 }
  - { offset: 0x69E81, size: 0x8, addend: 0x0, symName: __ZN4pyo37pyclass18create_type_object18create_type_object17h03acd8e18d991f8dE, symObjAddr: 0x144, symBinAddr: 0x100C4, symSize: 0x144 }
  - { offset: 0x6A0AD, size: 0x8, addend: 0x0, symName: __ZN4pyo37pyclass18create_type_object18create_type_object17h20142ad1397c9f90E, symObjAddr: 0x288, symBinAddr: 0x10208, symSize: 0x144 }
  - { offset: 0x6A2D9, size: 0x8, addend: 0x0, symName: __ZN4pyo37pyclass18create_type_object18create_type_object17h2cc433ad8f24dfbfE, symObjAddr: 0x3CC, symBinAddr: 0x1034C, symSize: 0x144 }
  - { offset: 0x6A508, size: 0x8, addend: 0x0, symName: __ZN4pyo37pyclass18create_type_object18create_type_object17h3c21faff5eb2de93E, symObjAddr: 0x510, symBinAddr: 0x10490, symSize: 0x144 }
  - { offset: 0x6A734, size: 0x8, addend: 0x0, symName: __ZN4pyo37pyclass18create_type_object18create_type_object17h40922e6dff0028c4E, symObjAddr: 0x654, symBinAddr: 0x105D4, symSize: 0x144 }
  - { offset: 0x6A960, size: 0x8, addend: 0x0, symName: __ZN4pyo37pyclass18create_type_object18create_type_object17h56e209fcbc2748c7E, symObjAddr: 0x798, symBinAddr: 0x10718, symSize: 0x144 }
  - { offset: 0x6AB8C, size: 0x8, addend: 0x0, symName: __ZN4pyo37pyclass18create_type_object18create_type_object17h6b3bed279ad058cbE, symObjAddr: 0x8DC, symBinAddr: 0x1085C, symSize: 0x144 }
  - { offset: 0x6ADBB, size: 0x8, addend: 0x0, symName: __ZN4pyo37pyclass18create_type_object18create_type_object17h758ffd343c806e51E, symObjAddr: 0xA20, symBinAddr: 0x109A0, symSize: 0x144 }
  - { offset: 0x6AFE7, size: 0x8, addend: 0x0, symName: __ZN4pyo37pyclass18create_type_object18create_type_object17h75bc6339a922f263E, symObjAddr: 0xB64, symBinAddr: 0x10AE4, symSize: 0x144 }
  - { offset: 0x6B213, size: 0x8, addend: 0x0, symName: __ZN4pyo37pyclass18create_type_object18create_type_object17h75c56f9182f8d6daE, symObjAddr: 0xCA8, symBinAddr: 0x10C28, symSize: 0x144 }
  - { offset: 0x6B43F, size: 0x8, addend: 0x0, symName: __ZN4pyo37pyclass18create_type_object18create_type_object17h9075c7ab623203ffE, symObjAddr: 0xDEC, symBinAddr: 0x10D6C, symSize: 0x144 }
  - { offset: 0x6B66B, size: 0x8, addend: 0x0, symName: __ZN4pyo37pyclass18create_type_object18create_type_object17hcca5bfc3558577dbE, symObjAddr: 0xF30, symBinAddr: 0x10EB0, symSize: 0x144 }
  - { offset: 0x6B897, size: 0x8, addend: 0x0, symName: __ZN4pyo37pyclass18create_type_object18create_type_object17hcf3a1425f79b0195E, symObjAddr: 0x1074, symBinAddr: 0x10FF4, symSize: 0x144 }
  - { offset: 0x6BAC3, size: 0x8, addend: 0x0, symName: __ZN4pyo37pyclass18create_type_object18create_type_object17he89e012d1093c907E, symObjAddr: 0x11B8, symBinAddr: 0x11138, symSize: 0x144 }
  - { offset: 0x6BCEF, size: 0x8, addend: 0x0, symName: __ZN4pyo37pyclass18create_type_object18create_type_object17hf900b691757de79fE, symObjAddr: 0x12FC, symBinAddr: 0x1127C, symSize: 0x144 }
  - { offset: 0x73564, size: 0x8, addend: 0x0, symName: __ZN4pyo35impl_10trampoline7dealloc17h4028983fdd9f111cE, symObjAddr: 0x0, symBinAddr: 0x113C0, symSize: 0x104 }
  - { offset: 0x7A77C, size: 0x8, addend: 0x0, symName: __ZN4pyo35impl_10trampoline7dealloc17h4028983fdd9f111cE, symObjAddr: 0x0, symBinAddr: 0x113C0, symSize: 0x104 }
  - { offset: 0x7A920, size: 0x8, addend: 0x0, symName: __ZN4pyo35impl_7pyclass10tp_dealloc17h0789b9e4f8274720E, symObjAddr: 0x104, symBinAddr: 0x114C4, symSize: 0x20 }
  - { offset: 0x7A954, size: 0x8, addend: 0x0, symName: __ZN4pyo35impl_7pyclass10tp_dealloc17h2c14ce5983d10b4fE, symObjAddr: 0x124, symBinAddr: 0x114E4, symSize: 0x20 }
  - { offset: 0x7A988, size: 0x8, addend: 0x0, symName: __ZN4pyo35impl_7pyclass10tp_dealloc17h40b86227f4dfce6aE, symObjAddr: 0x144, symBinAddr: 0x11504, symSize: 0x20 }
  - { offset: 0x7A9BC, size: 0x8, addend: 0x0, symName: __ZN4pyo35impl_7pyclass10tp_dealloc17h49532e6544e4ecbfE, symObjAddr: 0x164, symBinAddr: 0x11524, symSize: 0x20 }
  - { offset: 0x7A9F0, size: 0x8, addend: 0x0, symName: __ZN4pyo35impl_7pyclass10tp_dealloc17h5151564ec2c1f4d3E, symObjAddr: 0x184, symBinAddr: 0x11544, symSize: 0x20 }
  - { offset: 0x7AA24, size: 0x8, addend: 0x0, symName: __ZN4pyo35impl_7pyclass10tp_dealloc17h53fda15b5a519fc1E, symObjAddr: 0x1A4, symBinAddr: 0x11564, symSize: 0x20 }
  - { offset: 0x7AA58, size: 0x8, addend: 0x0, symName: __ZN4pyo35impl_7pyclass10tp_dealloc17h8af9aef54daab975E, symObjAddr: 0x1C4, symBinAddr: 0x11584, symSize: 0x20 }
  - { offset: 0x7AA8C, size: 0x8, addend: 0x0, symName: __ZN4pyo35impl_7pyclass10tp_dealloc17h98c642ffce2104a0E, symObjAddr: 0x1E4, symBinAddr: 0x115A4, symSize: 0x20 }
  - { offset: 0x7AAC0, size: 0x8, addend: 0x0, symName: __ZN4pyo35impl_7pyclass10tp_dealloc17ha445498753ec07e1E, symObjAddr: 0x204, symBinAddr: 0x115C4, symSize: 0x20 }
  - { offset: 0x7AAF4, size: 0x8, addend: 0x0, symName: __ZN4pyo35impl_7pyclass10tp_dealloc17hb19eed32865bd055E, symObjAddr: 0x224, symBinAddr: 0x115E4, symSize: 0x20 }
  - { offset: 0x7AB28, size: 0x8, addend: 0x0, symName: __ZN4pyo35impl_7pyclass10tp_dealloc17hb3bf6c00b684d3eaE, symObjAddr: 0x244, symBinAddr: 0x11604, symSize: 0x20 }
  - { offset: 0x7AB5C, size: 0x8, addend: 0x0, symName: __ZN4pyo35impl_7pyclass10tp_dealloc17hc0464510197f8602E, symObjAddr: 0x264, symBinAddr: 0x11624, symSize: 0x20 }
  - { offset: 0x7AB90, size: 0x8, addend: 0x0, symName: __ZN4pyo35impl_7pyclass10tp_dealloc17hcf93cfca40a3cc4eE, symObjAddr: 0x284, symBinAddr: 0x11644, symSize: 0x20 }
  - { offset: 0x7ABC4, size: 0x8, addend: 0x0, symName: __ZN4pyo35impl_7pyclass10tp_dealloc17hd33472e305fd379cE, symObjAddr: 0x2A4, symBinAddr: 0x11664, symSize: 0x20 }
  - { offset: 0x7ABF8, size: 0x8, addend: 0x0, symName: __ZN4pyo35impl_7pyclass10tp_dealloc17hd8d82dd68290780bE, symObjAddr: 0x2C4, symBinAddr: 0x11684, symSize: 0x20 }
  - { offset: 0x7AC2C, size: 0x8, addend: 0x0, symName: __ZN4pyo35impl_7pyclass10tp_dealloc17hf71546d19e30ab9cE, symObjAddr: 0x2E4, symBinAddr: 0x116A4, symSize: 0x20 }
  - { offset: 0x7AC60, size: 0x8, addend: 0x0, symName: __ZN4pyo35impl_7pyclass18tp_dealloc_with_gc17h04fe7604c1f7e64aE, symObjAddr: 0x304, symBinAddr: 0x116C4, symSize: 0x34 }
  - { offset: 0x7AC94, size: 0x8, addend: 0x0, symName: __ZN4pyo35impl_7pyclass18tp_dealloc_with_gc17h0824b26ec8dc95a5E, symObjAddr: 0x338, symBinAddr: 0x116F8, symSize: 0x34 }
  - { offset: 0x7ACC8, size: 0x8, addend: 0x0, symName: __ZN4pyo35impl_7pyclass18tp_dealloc_with_gc17h20d2b88b39453930E, symObjAddr: 0x36C, symBinAddr: 0x1172C, symSize: 0x34 }
  - { offset: 0x7ACFC, size: 0x8, addend: 0x0, symName: __ZN4pyo35impl_7pyclass18tp_dealloc_with_gc17h27b4d555ae83af86E, symObjAddr: 0x3A0, symBinAddr: 0x11760, symSize: 0x34 }
  - { offset: 0x7AD30, size: 0x8, addend: 0x0, symName: __ZN4pyo35impl_7pyclass18tp_dealloc_with_gc17h39b729039f94c091E, symObjAddr: 0x3D4, symBinAddr: 0x11794, symSize: 0x34 }
  - { offset: 0x7AD64, size: 0x8, addend: 0x0, symName: __ZN4pyo35impl_7pyclass18tp_dealloc_with_gc17h596dcb00a8a700eeE, symObjAddr: 0x408, symBinAddr: 0x117C8, symSize: 0x34 }
  - { offset: 0x7AD98, size: 0x8, addend: 0x0, symName: __ZN4pyo35impl_7pyclass18tp_dealloc_with_gc17h59924739d12af4afE, symObjAddr: 0x43C, symBinAddr: 0x117FC, symSize: 0x34 }
  - { offset: 0x7ADCC, size: 0x8, addend: 0x0, symName: __ZN4pyo35impl_7pyclass18tp_dealloc_with_gc17h645467afad707b34E, symObjAddr: 0x470, symBinAddr: 0x11830, symSize: 0x34 }
  - { offset: 0x7AE00, size: 0x8, addend: 0x0, symName: __ZN4pyo35impl_7pyclass18tp_dealloc_with_gc17h6c0dd3aadb975585E, symObjAddr: 0x4A4, symBinAddr: 0x11864, symSize: 0x34 }
  - { offset: 0x7AE34, size: 0x8, addend: 0x0, symName: __ZN4pyo35impl_7pyclass18tp_dealloc_with_gc17h6cb30cdf656487ccE, symObjAddr: 0x4D8, symBinAddr: 0x11898, symSize: 0x34 }
  - { offset: 0x7AE68, size: 0x8, addend: 0x0, symName: __ZN4pyo35impl_7pyclass18tp_dealloc_with_gc17h78766258f144afd5E, symObjAddr: 0x50C, symBinAddr: 0x118CC, symSize: 0x34 }
  - { offset: 0x7AE9C, size: 0x8, addend: 0x0, symName: __ZN4pyo35impl_7pyclass18tp_dealloc_with_gc17h840114a8c4c40a03E, symObjAddr: 0x540, symBinAddr: 0x11900, symSize: 0x34 }
  - { offset: 0x7AED0, size: 0x8, addend: 0x0, symName: __ZN4pyo35impl_7pyclass18tp_dealloc_with_gc17ha2a62a3b0db8c981E, symObjAddr: 0x574, symBinAddr: 0x11934, symSize: 0x34 }
  - { offset: 0x7AF04, size: 0x8, addend: 0x0, symName: __ZN4pyo35impl_7pyclass18tp_dealloc_with_gc17ha2f0c35e908dc9e1E, symObjAddr: 0x5A8, symBinAddr: 0x11968, symSize: 0x34 }
  - { offset: 0x7AF38, size: 0x8, addend: 0x0, symName: __ZN4pyo35impl_7pyclass18tp_dealloc_with_gc17ha6be544e96f98d17E, symObjAddr: 0x5DC, symBinAddr: 0x1199C, symSize: 0x34 }
  - { offset: 0x7AF6C, size: 0x8, addend: 0x0, symName: __ZN4pyo35impl_7pyclass18tp_dealloc_with_gc17hb729b2d9173cadcfE, symObjAddr: 0x610, symBinAddr: 0x119D0, symSize: 0x34 }
  - { offset: 0x7F8A2, size: 0x8, addend: 0x0, symName: '__ZN57_$LT$T$u20$as$u20$pyo3..conversion..FromPyObjectBound$GT$20from_py_object_bound17h4ce83bacc1794ea3E', symObjAddr: 0x0, symBinAddr: 0x11A04, symSize: 0x1B8 }
  - { offset: 0x8055E, size: 0x8, addend: 0x0, symName: '__ZN57_$LT$T$u20$as$u20$pyo3..conversion..FromPyObjectBound$GT$20from_py_object_bound17h4ce83bacc1794ea3E', symObjAddr: 0x0, symBinAddr: 0x11A04, symSize: 0x1B8 }
  - { offset: 0x82B6E, size: 0x8, addend: 0x0, symName: __ZN10serde_core2de5Error12invalid_type17h610ec4c01abb1e8dE, symObjAddr: 0x0, symBinAddr: 0x3239B8, symSize: 0x110 }
  - { offset: 0x82B86, size: 0x8, addend: 0x0, symName: _anon.10892d05247d88e11be27af979170b82.3, symObjAddr: 0xE68, symBinAddr: 0x510B90, symSize: 0x0 }
  - { offset: 0x82D5E, size: 0x8, addend: 0x0, symName: '__ZN58_$LT$alloc..string..String$u20$as$u20$core..fmt..Write$GT$10write_char17h5afa657ba1086fe6E', symObjAddr: 0x208, symBinAddr: 0x11CB4, symSize: 0x108 }
  - { offset: 0x82F6B, size: 0x8, addend: 0x0, symName: '__ZN58_$LT$alloc..string..String$u20$as$u20$core..fmt..Write$GT$9write_str17hba5566b7261b3df3E', symObjAddr: 0x310, symBinAddr: 0x11DBC, symSize: 0x24 }
  - { offset: 0x839FF, size: 0x8, addend: 0x0, symName: '__ZN4core3ptr48drop_in_place$LT$pythonize..error..ErrorImpl$GT$17hfdc064eaed7c36d0E', symObjAddr: 0x110, symBinAddr: 0x11BBC, symSize: 0x88 }
  - { offset: 0x83A83, size: 0x8, addend: 0x0, symName: '__ZN4core3ptr79drop_in_place$LT$pyo3..instance..Bound$LT$pyo3..types..string..PyString$GT$$GT$17hdda10c0f784d5a22E', symObjAddr: 0x198, symBinAddr: 0x11C44, symSize: 0x5C }
  - { offset: 0x83FB1, size: 0x8, addend: 0x0, symName: '__ZN53_$LT$core..fmt..Error$u20$as$u20$core..fmt..Debug$GT$3fmt17haea4712e43834251E', symObjAddr: 0x1F4, symBinAddr: 0x11CA0, symSize: 0x14 }
  - { offset: 0x850C2, size: 0x8, addend: 0x0, symName: _anon.10892d05247d88e11be27af979170b82.10, symObjAddr: 0xEB0, symBinAddr: 0x510BD8, symSize: 0x0 }
  - { offset: 0x85E71, size: 0x8, addend: 0x0, symName: '__ZN74_$LT$pythonize..error..PythonizeError$u20$as$u20$serde_core..de..Error$GT$6custom17h2755dc1f56b2a56eE', symObjAddr: 0x334, symBinAddr: 0x11DE0, symSize: 0x170 }
  - { offset: 0x86082, size: 0x8, addend: 0x0, symName: '__ZN74_$LT$pythonize..error..PythonizeError$u20$as$u20$serde_core..de..Error$GT$6custom17h8ad49315cc2a5f81E', symObjAddr: 0x4A4, symBinAddr: 0x11F50, symSize: 0x1B4 }
  - { offset: 0x86EFD, size: 0x8, addend: 0x0, symName: __ZN10serde_core2de5Error12invalid_type17h610ec4c01abb1e8dE, symObjAddr: 0x0, symBinAddr: 0x3239B8, symSize: 0x110 }
  - { offset: 0x87A4F, size: 0x8, addend: 0x0, symName: __ZN9pythonize5error14PythonizeError16unsupported_type17h0b62e9ebbede8f1bE, symObjAddr: 0x658, symBinAddr: 0x12104, symSize: 0x1B4 }
  - { offset: 0x87EAB, size: 0x8, addend: 0x0, symName: __ZN9pythonize5error14PythonizeError16unsupported_type17h60154638fb397749E, symObjAddr: 0x80C, symBinAddr: 0x122B8, symSize: 0x1B0 }
  - { offset: 0x882B3, size: 0x8, addend: 0x0, symName: _anon.a79478d941c5a0461b4afbe06ac1b7ad.16, symObjAddr: 0x1F58, symBinAddr: 0x510CA0, symSize: 0x0 }
  - { offset: 0x8B78D, size: 0x8, addend: 0x0, symName: '__ZN57_$LT$T$u20$as$u20$pyo3..conversion..FromPyObjectBound$GT$20from_py_object_bound17h18f5483ad4cfc439E', symObjAddr: 0x270, symBinAddr: 0x12468, symSize: 0x1A8 }
  - { offset: 0x8BB78, size: 0x8, addend: 0x0, symName: '__ZN57_$LT$T$u20$as$u20$pyo3..conversion..FromPyObjectBound$GT$20from_py_object_bound17h23e97611869950c9E', symObjAddr: 0x418, symBinAddr: 0x12610, symSize: 0x1A8 }
  - { offset: 0x8BF63, size: 0x8, addend: 0x0, symName: '__ZN57_$LT$T$u20$as$u20$pyo3..conversion..FromPyObjectBound$GT$20from_py_object_bound17h26296a26eee1cbe3E', symObjAddr: 0x5C0, symBinAddr: 0x127B8, symSize: 0x1A8 }
  - { offset: 0x8C34E, size: 0x8, addend: 0x0, symName: '__ZN57_$LT$T$u20$as$u20$pyo3..conversion..FromPyObjectBound$GT$20from_py_object_bound17h26b8e425bfab52cdE', symObjAddr: 0x768, symBinAddr: 0x12960, symSize: 0x1A8 }
  - { offset: 0x8C739, size: 0x8, addend: 0x0, symName: '__ZN57_$LT$T$u20$as$u20$pyo3..conversion..FromPyObjectBound$GT$20from_py_object_bound17h2aa93de4c678b1deE', symObjAddr: 0x910, symBinAddr: 0x12B08, symSize: 0x1A8 }
  - { offset: 0x8CB24, size: 0x8, addend: 0x0, symName: '__ZN57_$LT$T$u20$as$u20$pyo3..conversion..FromPyObjectBound$GT$20from_py_object_bound17h35990637c9254058E', symObjAddr: 0xAB8, symBinAddr: 0x12CB0, symSize: 0x1A8 }
  - { offset: 0x8CF0F, size: 0x8, addend: 0x0, symName: '__ZN57_$LT$T$u20$as$u20$pyo3..conversion..FromPyObjectBound$GT$20from_py_object_bound17h37d8b9ad4e68118bE', symObjAddr: 0xC60, symBinAddr: 0x12E58, symSize: 0x1A8 }
  - { offset: 0x8D2FA, size: 0x8, addend: 0x0, symName: '__ZN57_$LT$T$u20$as$u20$pyo3..conversion..FromPyObjectBound$GT$20from_py_object_bound17h3d4fadd1f912f68dE', symObjAddr: 0xE08, symBinAddr: 0x13000, symSize: 0x1A8 }
  - { offset: 0x8D6E5, size: 0x8, addend: 0x0, symName: '__ZN57_$LT$T$u20$as$u20$pyo3..conversion..FromPyObjectBound$GT$20from_py_object_bound17h66d1ea2c1ee49989E', symObjAddr: 0xFB0, symBinAddr: 0x131A8, symSize: 0x1A8 }
  - { offset: 0x8DAD2, size: 0x8, addend: 0x0, symName: '__ZN57_$LT$T$u20$as$u20$pyo3..conversion..FromPyObjectBound$GT$20from_py_object_bound17h69442d9650978d7fE', symObjAddr: 0x1158, symBinAddr: 0x13350, symSize: 0x1A8 }
  - { offset: 0x8DEBD, size: 0x8, addend: 0x0, symName: '__ZN57_$LT$T$u20$as$u20$pyo3..conversion..FromPyObjectBound$GT$20from_py_object_bound17h6f6579724eb02344E', symObjAddr: 0x1300, symBinAddr: 0x134F8, symSize: 0x1A8 }
  - { offset: 0x8E2A8, size: 0x8, addend: 0x0, symName: '__ZN57_$LT$T$u20$as$u20$pyo3..conversion..FromPyObjectBound$GT$20from_py_object_bound17h7c3e442dd760602fE', symObjAddr: 0x14A8, symBinAddr: 0x136A0, symSize: 0x1A8 }
  - { offset: 0x8E695, size: 0x8, addend: 0x0, symName: '__ZN57_$LT$T$u20$as$u20$pyo3..conversion..FromPyObjectBound$GT$20from_py_object_bound17ha88985fadda2afedE', symObjAddr: 0x1650, symBinAddr: 0x13848, symSize: 0x1A8 }
  - { offset: 0x8EA80, size: 0x8, addend: 0x0, symName: '__ZN57_$LT$T$u20$as$u20$pyo3..conversion..FromPyObjectBound$GT$20from_py_object_bound17haec0f9afce490e4dE', symObjAddr: 0x17F8, symBinAddr: 0x139F0, symSize: 0x1A8 }
  - { offset: 0x8EE6B, size: 0x8, addend: 0x0, symName: '__ZN57_$LT$T$u20$as$u20$pyo3..conversion..FromPyObjectBound$GT$20from_py_object_bound17hbc073d5356ae33ceE', symObjAddr: 0x19A0, symBinAddr: 0x13B98, symSize: 0x1A8 }
  - { offset: 0x8F258, size: 0x8, addend: 0x0, symName: '__ZN57_$LT$T$u20$as$u20$pyo3..conversion..FromPyObjectBound$GT$20from_py_object_bound17he0a01fcb6fa8d6abE', symObjAddr: 0x1B48, symBinAddr: 0x13D40, symSize: 0x1A8 }
  - { offset: 0x8F643, size: 0x8, addend: 0x0, symName: '__ZN57_$LT$T$u20$as$u20$pyo3..conversion..FromPyObjectBound$GT$20from_py_object_bound17hea7fab554fb97344E', symObjAddr: 0x1CF0, symBinAddr: 0x13EE8, symSize: 0x1A8 }
  - { offset: 0xA337E, size: 0x8, addend: 0x0, symName: '__ZN12skreaver_a2a6client9A2aClient11cancel_task28_$u7b$$u7b$closure$u7d$$u7d$28_$u7b$$u7b$closure$u7d$$u7d$17h007239d5f218b4abE', symObjAddr: 0x0, symBinAddr: 0x14090, symSize: 0xBC }
  - { offset: 0xA3621, size: 0x8, addend: 0x0, symName: '__ZN4core3fmt3num52_$LT$impl$u20$core..fmt..Debug$u20$for$u20$usize$GT$3fmt17hd9a44c73645affdaE', symObjAddr: 0x458C, symBinAddr: 0x1861C, symSize: 0x18 }
  - { offset: 0xA365C, size: 0x8, addend: 0x0, symName: '__ZN4core3fmt3num52_$LT$impl$u20$core..fmt..Debug$u20$for$u20$usize$GT$3fmt17hd9a44c73645affdaE', symObjAddr: 0x458C, symBinAddr: 0x1861C, symSize: 0x18 }
  - { offset: 0xA367D, size: 0x8, addend: 0x0, symName: '__ZN53_$LT$core..fmt..Error$u20$as$u20$core..fmt..Debug$GT$3fmt17haea4712e43834251E', symObjAddr: 0x5924, symBinAddr: 0x199B4, symSize: 0x14 }
  - { offset: 0xA62E6, size: 0x8, addend: 0x0, symName: '__ZN4core3ptr100drop_in_place$LT$_skreaver..a2a..client..PyA2aClient..continue_task..$u7b$$u7b$closure$u7d$$u7d$$GT$17hb8bd7c48dfea49e7E', symObjAddr: 0x4744, symBinAddr: 0x187D4, symSize: 0xDC }
  - { offset: 0xA6461, size: 0x8, addend: 0x0, symName: '__ZN4core3ptr100drop_in_place$LT$_skreaver..a2a..client..PyA2aClient..wait_for_task..$u7b$$u7b$closure$u7d$$u7d$$GT$17h42c76a5ad820f21bE', symObjAddr: 0x4820, symBinAddr: 0x188B0, symSize: 0xD4 }
  - { offset: 0xA64CD, size: 0x8, addend: 0x0, symName: '__ZN4core3ptr101drop_in_place$LT$_skreaver..a2a..client..PyA2aClient..get_agent_card..$u7b$$u7b$closure$u7d$$u7d$$GT$17hb30f2347b02d9a8fE', symObjAddr: 0x48F4, symBinAddr: 0x18984, symSize: 0x5C }
  - { offset: 0xA64ED, size: 0x8, addend: 0x0, symName: '__ZN4core3ptr104drop_in_place$LT$skreaver_a2a..client..A2aClient..handle_error_response..$u7b$$u7b$closure$u7d$$u7d$$GT$17h478d008dde96428eE', symObjAddr: 0x4950, symBinAddr: 0x189E0, symSize: 0x38 }
  - { offset: 0xA654A, size: 0x8, addend: 0x0, symName: '__ZN4core3ptr106drop_in_place$LT$skreaver_a2a..client..A2aClient..get_task$LT$$RF$str$GT$..$u7b$$u7b$closure$u7d$$u7d$$GT$17h497c737989fe49c8E', symObjAddr: 0x4988, symBinAddr: 0x18A18, symSize: 0xC8 }
  - { offset: 0xA6635, size: 0x8, addend: 0x0, symName: '__ZN4core3ptr108drop_in_place$LT$reqwest..async_impl..response..Response..text_with_charset..$u7b$$u7b$closure$u7d$$u7d$$GT$17h4d4622aa9285c8beE', symObjAddr: 0x4A50, symBinAddr: 0x18AE0, symSize: 0xC4 }
  - { offset: 0xA66FB, size: 0x8, addend: 0x0, symName: '__ZN4core3ptr123drop_in_place$LT$skreaver_a2a..client..A2aClient..cancel_task$LT$alloc..string..String$GT$..$u7b$$u7b$closure$u7d$$u7d$$GT$17h333a9913a9187d3eE', symObjAddr: 0x4B14, symBinAddr: 0x18BA4, symSize: 0x190 }
  - { offset: 0xA68A3, size: 0x8, addend: 0x0, symName: '__ZN4core3ptr124drop_in_place$LT$skreaver_a2a..client..A2aClient..get_task$LT$$RF$alloc..string..String$GT$..$u7b$$u7b$closure$u7d$$u7d$$GT$17hac2f53bb3fd58edbE', symObjAddr: 0x4CA4, symBinAddr: 0x18D34, symSize: 0xC8 }
  - { offset: 0xA698E, size: 0x8, addend: 0x0, symName: '__ZN4core3ptr129drop_in_place$LT$skreaver_a2a..client..A2aClient..wait_for_task$LT$$RF$alloc..string..String$GT$..$u7b$$u7b$closure$u7d$$u7d$$GT$17h6e48a88021545831E', symObjAddr: 0x4D6C, symBinAddr: 0x18DFC, symSize: 0x70 }
  - { offset: 0xA6A1C, size: 0x8, addend: 0x0, symName: '__ZN4core3ptr130drop_in_place$LT$pyo3..err..PyErr..new$LT$_skreaver..errors..A2aError$C$alloc..string..String$GT$..$u7b$$u7b$closure$u7d$$u7d$$GT$17heb7bcee14f00d45fE', symObjAddr: 0x4DDC, symBinAddr: 0x18E6C, symSize: 0x4 }
  - { offset: 0xA6A37, size: 0x8, addend: 0x0, symName: '__ZN4core3ptr134drop_in_place$LT$reqwest..async_impl..response..Response..json$LT$skreaver_a2a..types..task..Task$GT$..$u7b$$u7b$closure$u7d$$u7d$$GT$17h9f7823f99a0e2560E', symObjAddr: 0x4DE0, symBinAddr: 0x18E70, symSize: 0x80 }
  - { offset: 0xA6A95, size: 0x8, addend: 0x0, symName: '__ZN4core3ptr145drop_in_place$LT$reqwest..async_impl..response..Response..json$LT$skreaver_a2a..types..agent_card..AgentCard$GT$..$u7b$$u7b$closure$u7d$$u7d$$GT$17hf088ded19f3ee687E', symObjAddr: 0x4E60, symBinAddr: 0x18EF0, symSize: 0x80 }
  - { offset: 0xA6AF3, size: 0x8, addend: 0x0, symName: '__ZN4core3ptr152drop_in_place$LT$reqwest..async_impl..response..Response..json$LT$skreaver_a2a..types..request..SendMessageResponse$GT$..$u7b$$u7b$closure$u7d$$u7d$$GT$17h0c35674fd63eefc4E', symObjAddr: 0x4EE0, symBinAddr: 0x18F70, symSize: 0x80 }
  - { offset: 0xA6B51, size: 0x8, addend: 0x0, symName: '__ZN4core3ptr153drop_in_place$LT$skreaver_a2a..client..A2aClient..continue_task$LT$alloc..string..String$C$$RF$alloc..string..String$GT$..$u7b$$u7b$closure$u7d$$u7d$$GT$17h946892d8110f0b36E', symObjAddr: 0x4F60, symBinAddr: 0x18FF0, symSize: 0x4C }
  - { offset: 0xA6BC5, size: 0x8, addend: 0x0, symName: '__ZN4core3ptr50drop_in_place$LT$skreaver_a2a..error..A2aError$GT$17h203553bafc4b745aE', symObjAddr: 0x4FAC, symBinAddr: 0x1903C, symSize: 0xE0 }
  - { offset: 0xA6BF5, size: 0x8, addend: 0x0, symName: '__ZN4core3ptr54drop_in_place$LT$alloc..boxed..Box$LT$url..Url$GT$$GT$17h33c498e1cc9d028cE', symObjAddr: 0x508C, symBinAddr: 0x1911C, symSize: 0xA0 }
  - { offset: 0xA6D44, size: 0x8, addend: 0x0, symName: '__ZN4core3ptr73drop_in_place$LT$pyo3..instance..Bound$LT$pyo3..types..any..PyAny$GT$$GT$17h9618b511440d036eE', symObjAddr: 0x512C, symBinAddr: 0x191BC, symSize: 0x5C }
  - { offset: 0xA6DE0, size: 0x8, addend: 0x0, symName: '__ZN4core3ptr87drop_in_place$LT$skreaver_a2a..client..A2aClient..send..$u7b$$u7b$closure$u7d$$u7d$$GT$17ha05d40302da99723E', symObjAddr: 0x5188, symBinAddr: 0x19218, symSize: 0x180 }
  - { offset: 0xA6F87, size: 0x8, addend: 0x0, symName: '__ZN4core3ptr91drop_in_place$LT$_skreaver..a2a..client..PyA2aClient..send..$u7b$$u7b$closure$u7d$$u7d$$GT$17h69f189449a5cc56cE', symObjAddr: 0x5308, symBinAddr: 0x19398, symSize: 0xF0 }
  - { offset: 0xA7020, size: 0x8, addend: 0x0, symName: '__ZN4core3ptr94drop_in_place$LT$$u5b$pyo3..instance..Bound$LT$pyo3..types..any..PyAny$GT$$u3b$$u20$1$u5d$$GT$17h6ab533b71034316eE', symObjAddr: 0x53F8, symBinAddr: 0x19488, symSize: 0x5C }
  - { offset: 0xA70D3, size: 0x8, addend: 0x0, symName: '__ZN4core3ptr95drop_in_place$LT$_skreaver..a2a..client..PyA2aClient..get_task..$u7b$$u7b$closure$u7d$$u7d$$GT$17h3c20477a76cac2a8E', symObjAddr: 0x5454, symBinAddr: 0x194E4, symSize: 0x98 }
  - { offset: 0xA711B, size: 0x8, addend: 0x0, symName: '__ZN4core3ptr95drop_in_place$LT$reqwest..async_impl..response..Response..text..$u7b$$u7b$closure$u7d$$u7d$$GT$17hdc74a95aba7f7efbE', symObjAddr: 0x54EC, symBinAddr: 0x1957C, symSize: 0x20 }
  - { offset: 0xA714F, size: 0x8, addend: 0x0, symName: '__ZN4core3ptr96drop_in_place$LT$reqwest..async_impl..response..Response..bytes..$u7b$$u7b$closure$u7d$$u7d$$GT$17h9a13a5f6593aa616E', symObjAddr: 0x550C, symBinAddr: 0x1959C, symSize: 0x68 }
  - { offset: 0xA7183, size: 0x8, addend: 0x0, symName: '__ZN4core3ptr97drop_in_place$LT$skreaver_a2a..client..A2aClient..get_agent_card..$u7b$$u7b$closure$u7d$$u7d$$GT$17ha7bf0fd9320c9b7cE', symObjAddr: 0x5574, symBinAddr: 0x19604, symSize: 0xC8 }
  - { offset: 0xA7240, size: 0x8, addend: 0x0, symName: '__ZN4core3ptr98drop_in_place$LT$_skreaver..a2a..client..PyA2aClient..cancel_task..$u7b$$u7b$closure$u7d$$u7d$$GT$17h5b978f7c36ac2cb8E', symObjAddr: 0x563C, symBinAddr: 0x196CC, symSize: 0xBC }
  - { offset: 0xA7351, size: 0x8, addend: 0x0, symName: '__ZN4core3ptr99drop_in_place$LT$_skreaver..a2a..client..PyA2aClient..send_message..$u7b$$u7b$closure$u7d$$u7d$$GT$17h68c6c51163d5a323E', symObjAddr: 0x56F8, symBinAddr: 0x19788, symSize: 0xA4 }
  - { offset: 0xAAC6F, size: 0x8, addend: 0x0, symName: '__ZN4core3ops8function6FnOnce40call_once$u7b$$u7b$vtable.shim$u7d$$u7d$17h101f4b172117b07eE', symObjAddr: 0x45A4, symBinAddr: 0x18634, symSize: 0xBC }
  - { offset: 0xAADF6, size: 0x8, addend: 0x0, symName: '__ZN4core3ops8function6FnOnce40call_once$u7b$$u7b$vtable.shim$u7d$$u7d$17h14eee29189f8972dE', symObjAddr: 0x4660, symBinAddr: 0x186F0, symSize: 0xB0 }
  - { offset: 0xAAF3B, size: 0x8, addend: 0x0, symName: __ZN4core3ops8function6FnOnce9call_once17h8621167faccf7d06E, symObjAddr: 0x4710, symBinAddr: 0x187A0, symSize: 0x34 }
  - { offset: 0xABFB3, size: 0x8, addend: 0x0, symName: '__ZN60_$LT$alloc..string..String$u20$as$u20$core..fmt..Display$GT$3fmt17h55315b95f551f900E', symObjAddr: 0x5BE0, symBinAddr: 0x19C70, symSize: 0x5C }
  - { offset: 0xAC13E, size: 0x8, addend: 0x0, symName: '__ZN58_$LT$alloc..string..String$u20$as$u20$core..fmt..Write$GT$10write_char17h5afa657ba1086fe6E', symObjAddr: 0x5938, symBinAddr: 0x199C8, symSize: 0x108 }
  - { offset: 0xAC34B, size: 0x8, addend: 0x0, symName: '__ZN58_$LT$alloc..string..String$u20$as$u20$core..fmt..Write$GT$9write_str17hba5566b7261b3df3E', symObjAddr: 0x5A40, symBinAddr: 0x19AD0, symSize: 0x24 }
  - { offset: 0xADAA1, size: 0x8, addend: 0x0, symName: '__ZN72_$LT$alloc..boxed..Box$LT$T$C$A$GT$$u20$as$u20$core..ops..drop..Drop$GT$4drop17h6627ab489a85c0d2E', symObjAddr: 0x5C3C, symBinAddr: 0x19CCC, symSize: 0x80 }
  - { offset: 0xADC5A, size: 0x8, addend: 0x0, symName: __ZN5alloc3fmt6format17h71d6c2af60a0c6e3E, symObjAddr: 0x5A64, symBinAddr: 0x19AF4, symSize: 0x17C }
  - { offset: 0xAE8FD, size: 0x8, addend: 0x0, symName: '__ZN12skreaver_a2a6client9A2aClient11cancel_task28_$u7b$$u7b$closure$u7d$$u7d$28_$u7b$$u7b$closure$u7d$$u7d$17h007239d5f218b4abE', symObjAddr: 0x0, symBinAddr: 0x14090, symSize: 0xBC }
  - { offset: 0xAEB17, size: 0x8, addend: 0x0, symName: '__ZN12skreaver_a2a6client9A2aClient11cancel_task28_$u7b$$u7b$closure$u7d$$u7d$28_$u7b$$u7b$closure$u7d$$u7d$17hdd28000f467d9532E', symObjAddr: 0xBC, symBinAddr: 0x1414C, symSize: 0xBC }
  - { offset: 0xAF2EE, size: 0x8, addend: 0x0, symName: '__ZN12skreaver_a2a6client9A2aClient14get_agent_card28_$u7b$$u7b$closure$u7d$$u7d$28_$u7b$$u7b$closure$u7d$$u7d$17h467929a7600bdae3E', symObjAddr: 0x178, symBinAddr: 0x14208, symSize: 0xBC }
  - { offset: 0xAF4FF, size: 0x8, addend: 0x0, symName: '__ZN12skreaver_a2a6client9A2aClient14get_agent_card28_$u7b$$u7b$closure$u7d$$u7d$28_$u7b$$u7b$closure$u7d$$u7d$17hc4c65abb4ae1fedbE', symObjAddr: 0x234, symBinAddr: 0x142C4, symSize: 0xBC }
  - { offset: 0xAFB55, size: 0x8, addend: 0x0, symName: '__ZN12skreaver_a2a6client9A2aClient21handle_error_response28_$u7b$$u7b$closure$u7d$$u7d$17h472bd2b832029c0bE', symObjAddr: 0x2F0, symBinAddr: 0x14380, symSize: 0x8F0 }
  - { offset: 0xB063D, size: 0x8, addend: 0x0, symName: '__ZN12skreaver_a2a6client9A2aClient4send28_$u7b$$u7b$closure$u7d$$u7d$28_$u7b$$u7b$closure$u7d$$u7d$17h79dc5cc88008dc6eE', symObjAddr: 0x2114, symBinAddr: 0x161A4, symSize: 0xBC }
  - { offset: 0xB084E, size: 0x8, addend: 0x0, symName: '__ZN12skreaver_a2a6client9A2aClient4send28_$u7b$$u7b$closure$u7d$$u7d$28_$u7b$$u7b$closure$u7d$$u7d$17hb7c1ccd03a98f195E', symObjAddr: 0x21D0, symBinAddr: 0x16260, symSize: 0xBC }
  - { offset: 0xB0A6D, size: 0x8, addend: 0x0, symName: '__ZN12skreaver_a2a6client9A2aClient4send28_$u7b$$u7b$closure$u7d$$u7d$17hc622280b8df20caaE', symObjAddr: 0xBE0, symBinAddr: 0x14C70, symSize: 0x1534 }
  - { offset: 0xB20D6, size: 0x8, addend: 0x0, symName: '__ZN12skreaver_a2a6client9A2aClient8get_task28_$u7b$$u7b$closure$u7d$$u7d$28_$u7b$$u7b$closure$u7d$$u7d$17h2e67522179e7c127E', symObjAddr: 0x228C, symBinAddr: 0x1631C, symSize: 0xBC }
  - { offset: 0xB3C7E, size: 0x8, addend: 0x0, symName: '__ZN4pyo35types5tuple66_$LT$impl$u20$pyo3..call..PyCallArgs$u20$for$u20$$LP$T0$C$$RP$$GT$22call_method_positional17h2b735b3a6f643ad9E', symObjAddr: 0x579C, symBinAddr: 0x1982C, symSize: 0x188 }
  - { offset: 0xB792D, size: 0x8, addend: 0x0, symName: '__ZN7reqwest10async_impl8response8Response5bytes28_$u7b$$u7b$closure$u7d$$u7d$17h75113878332b19bcE', symObjAddr: 0x5F44, symBinAddr: 0x19FD4, symSize: 0x230 }
  - { offset: 0xB7D18, size: 0x8, addend: 0x0, symName: '__ZN7reqwest10async_impl8response8Response4json28_$u7b$$u7b$closure$u7d$$u7d$17h3f6fe9f8f4a9f29fE', symObjAddr: 0x5CBC, symBinAddr: 0x19D4C, symSize: 0x288 }
  - { offset: 0xB9EEF, size: 0x8, addend: 0x0, symName: __ZN19pyo3_async_runtimes7generic14future_into_py17h2c3879c909f6eec0E, symObjAddr: 0x2348, symBinAddr: 0x163D8, symSize: 0x4C8 }
  - { offset: 0xBA93E, size: 0x8, addend: 0x0, symName: __ZN19pyo3_async_runtimes7generic14future_into_py17h49e54d170f6ed010E, symObjAddr: 0x2810, symBinAddr: 0x168A0, symSize: 0x4CC }
  - { offset: 0xBB38D, size: 0x8, addend: 0x0, symName: __ZN19pyo3_async_runtimes7generic14future_into_py17h6f518e3a8b2fd96fE, symObjAddr: 0x2CDC, symBinAddr: 0x16D6C, symSize: 0x4E8 }
  - { offset: 0xBBDDC, size: 0x8, addend: 0x0, symName: __ZN19pyo3_async_runtimes7generic14future_into_py17h8d81bdfde9ec086dE, symObjAddr: 0x31C4, symBinAddr: 0x17254, symSize: 0x4F0 }
  - { offset: 0xBC82B, size: 0x8, addend: 0x0, symName: __ZN19pyo3_async_runtimes7generic14future_into_py17had4e690ce1f25691E, symObjAddr: 0x36B4, symBinAddr: 0x17744, symSize: 0x4CC }
  - { offset: 0xBD27A, size: 0x8, addend: 0x0, symName: __ZN19pyo3_async_runtimes7generic14future_into_py17hcffac0d274c5d2bcE, symObjAddr: 0x3B80, symBinAddr: 0x17C10, symSize: 0x4E8 }
  - { offset: 0xBDCC9, size: 0x8, addend: 0x0, symName: __ZN19pyo3_async_runtimes7generic14future_into_py17hf838949e8b3de671E, symObjAddr: 0x4068, symBinAddr: 0x180F8, symSize: 0x524 }
  - { offset: 0xBE844, size: 0x8, addend: 0x0, symName: '__ZN99_$LT$pyo3_async_runtimes..generic..Cancellable$LT$F$GT$$u20$as$u20$core..future..future..Future$GT$4poll17h0fb30f5ce324e110E', symObjAddr: 0x6174, symBinAddr: 0x1A204, symSize: 0x688 }
  - { offset: 0xBEC20, size: 0x8, addend: 0x0, symName: '__ZN99_$LT$pyo3_async_runtimes..generic..Cancellable$LT$F$GT$$u20$as$u20$core..future..future..Future$GT$4poll17h17b3ffa8b92d3c5cE', symObjAddr: 0x67FC, symBinAddr: 0x1A88C, symSize: 0x1BB0 }
  - { offset: 0xC00B3, size: 0x8, addend: 0x0, symName: '__ZN99_$LT$pyo3_async_runtimes..generic..Cancellable$LT$F$GT$$u20$as$u20$core..future..future..Future$GT$4poll17h2c27e2737358d9d9E', symObjAddr: 0x83AC, symBinAddr: 0x1C43C, symSize: 0x170C }
  - { offset: 0xC1356, size: 0x8, addend: 0x0, symName: '__ZN99_$LT$pyo3_async_runtimes..generic..Cancellable$LT$F$GT$$u20$as$u20$core..future..future..Future$GT$4poll17h6d05cda28c9db052E', symObjAddr: 0x9AB8, symBinAddr: 0x1DB48, symSize: 0x620 }
  - { offset: 0xC1758, size: 0x8, addend: 0x0, symName: '__ZN99_$LT$pyo3_async_runtimes..generic..Cancellable$LT$F$GT$$u20$as$u20$core..future..future..Future$GT$4poll17hac5c512a4090950cE', symObjAddr: 0xA0D8, symBinAddr: 0x1E168, symSize: 0x1148 }
  - { offset: 0xC2648, size: 0x8, addend: 0x0, symName: '__ZN99_$LT$pyo3_async_runtimes..generic..Cancellable$LT$F$GT$$u20$as$u20$core..future..future..Future$GT$4poll17he9642f1eef3163deE', symObjAddr: 0xB220, symBinAddr: 0x1F2B0, symSize: 0x55C }
  - { offset: 0xC29B0, size: 0x8, addend: 0x0, symName: '__ZN99_$LT$pyo3_async_runtimes..generic..Cancellable$LT$F$GT$$u20$as$u20$core..future..future..Future$GT$4poll17hf8c67e3455c14cacE', symObjAddr: 0xB77C, symBinAddr: 0x1F80C, symSize: 0x16A0 }
  - { offset: 0xC6F61, size: 0x8, addend: 0x0, symName: __ZN9_skreaver6errors8A2aError7new_err17h10d2661abf431877E, symObjAddr: 0xCE1C, symBinAddr: 0x20EAC, symSize: 0xE0 }
  - { offset: 0xCE52C, size: 0x8, addend: 0x0, symName: _anon.bdec8de4e3772252b208f8fe4e282518.0, symObjAddr: 0x72D8, symBinAddr: 0x511400, symSize: 0x0 }
  - { offset: 0xCE7D5, size: 0x8, addend: 0x0, symName: '__ZN208_$LT$skreaver_a2a..types..agent_card.._..$LT$impl$u20$serde_core..de..Deserialize$u20$for$u20$skreaver_a2a..types..agent_card..AgentCard$GT$..deserialize..__FieldVisitor$u20$as$u20$serde_core..de..Visitor$GT$9visit_str17h859ae3ff6e356c21E', symObjAddr: 0x5680, symBinAddr: 0x24000, symSize: 0x1BC }
  - { offset: 0xCEC6A, size: 0x8, addend: 0x0, symName: '__ZN209_$LT$skreaver_a2a..types..agent_card.._..$LT$impl$u20$serde_core..de..Deserialize$u20$for$u20$skreaver_a2a..types..agent_card..AgentSkill$GT$..deserialize..__FieldVisitor$u20$as$u20$serde_core..de..Visitor$GT$9visit_str17hd0e64ddcb5665863E', symObjAddr: 0x58CC, symBinAddr: 0x241BC, symSize: 0x108 }
  - { offset: 0xCEF0C, size: 0x8, addend: 0x0, symName: '__ZN209_$LT$skreaver_a2a..types..agent_card.._..$LT$impl$u20$serde_core..de..Deserialize$u20$for$u20$skreaver_a2a..types..agent_card..OAuth2Flow$GT$..deserialize..__FieldVisitor$u20$as$u20$serde_core..de..Visitor$GT$11visit_bytes17h38e0fc7e7e98170dE', symObjAddr: 0x59D4, symBinAddr: 0x242C4, symSize: 0x1A8 }
  - { offset: 0xCEF56, size: 0x8, addend: 0x0, symName: '__ZN210_$LT$skreaver_a2a..types..agent_card.._..$LT$impl$u20$serde_core..de..Deserialize$u20$for$u20$skreaver_a2a..types..agent_card..OAuth2Flows$GT$..deserialize..__FieldVisitor$u20$as$u20$serde_core..de..Visitor$GT$11visit_bytes17hafebb3e6f4a56d3bE', symObjAddr: 0x5C30, symBinAddr: 0x2446C, symSize: 0x1BC }
  - { offset: 0xCEF9F, size: 0x8, addend: 0x0, symName: '__ZN213_$LT$skreaver_a2a..types..agent_card.._..$LT$impl$u20$serde_core..de..Deserialize$u20$for$u20$skreaver_a2a..types..agent_card..ApiKeyLocation$GT$..deserialize..__FieldVisitor$u20$as$u20$serde_core..de..Visitor$GT$11visit_bytes17hba2c002bb356dc61E', symObjAddr: 0x6194, symBinAddr: 0x24628, symSize: 0x138 }
  - { offset: 0xCF163, size: 0x8, addend: 0x0, symName: '__ZN12skreaver_a2a5types10agent_card1_100_$LT$impl$u20$serde_core..ser..Serialize$u20$for$u20$skreaver_a2a..types..agent_card..AgentSkill$GT$9serialize17hbac36b1fe830816cE', symObjAddr: 0x2864, symBinAddr: 0x21478, symSize: 0x210 }
  - { offset: 0xCF33E, size: 0x8, addend: 0x0, symName: '__ZN12skreaver_a2a5types10agent_card1_100_$LT$impl$u20$serde_core..ser..Serialize$u20$for$u20$skreaver_a2a..types..agent_card..OAuth2Flow$GT$9serialize17h5243c8f8629072a9E', symObjAddr: 0x2A74, symBinAddr: 0x21688, symSize: 0x170 }
  - { offset: 0xCF485, size: 0x8, addend: 0x0, symName: '__ZN12skreaver_a2a5types10agent_card1_101_$LT$impl$u20$serde_core..ser..Serialize$u20$for$u20$skreaver_a2a..types..agent_card..OAuth2Flows$GT$9serialize17h69bc91f31434167aE', symObjAddr: 0x2C8C, symBinAddr: 0x217F8, symSize: 0x164 }
  - { offset: 0xCF5E5, size: 0x8, addend: 0x0, symName: '__ZN12skreaver_a2a5types10agent_card1_103_$LT$impl$u20$serde_core..ser..Serialize$u20$for$u20$skreaver_a2a..types..agent_card..AgentProvider$GT$9serialize17hb617a53c2ae001a8E', symObjAddr: 0x2E34, symBinAddr: 0x2195C, symSize: 0x150 }
  - { offset: 0xCF72C, size: 0x8, addend: 0x0, symName: '__ZN12skreaver_a2a5types10agent_card1_104_$LT$impl$u20$serde_core..ser..Serialize$u20$for$u20$skreaver_a2a..types..agent_card..AgentExtension$GT$9serialize17h4ab04c81fc6d6dd6E', symObjAddr: 0x2FBC, symBinAddr: 0x21AAC, symSize: 0x17C }
  - { offset: 0xCF8D5, size: 0x8, addend: 0x0, symName: '__ZN12skreaver_a2a5types10agent_card1_104_$LT$impl$u20$serde_core..ser..Serialize$u20$for$u20$skreaver_a2a..types..agent_card..AgentInterface$GT$9serialize17h2550235ceb329fa9E', symObjAddr: 0x3138, symBinAddr: 0x21C28, symSize: 0x1F8 }
  - { offset: 0xCFA31, size: 0x8, addend: 0x0, symName: '__ZN12skreaver_a2a5types10agent_card1_104_$LT$impl$u20$serde_core..ser..Serialize$u20$for$u20$skreaver_a2a..types..agent_card..ApiKeyLocation$GT$9serialize17h3665e4dbb7412c9cE', symObjAddr: 0x3330, symBinAddr: 0x21E20, symSize: 0x194 }
  - { offset: 0xD016D, size: 0x8, addend: 0x0, symName: '__ZN12skreaver_a2a5types10agent_card1_104_$LT$impl$u20$serde_core..ser..Serialize$u20$for$u20$skreaver_a2a..types..agent_card..SecurityScheme$GT$9serialize17h0eab8bff6bc9e821E', symObjAddr: 0x3508, symBinAddr: 0x21FB4, symSize: 0x2F8 }
  - { offset: 0xD0334, size: 0x8, addend: 0x0, symName: '__ZN12skreaver_a2a5types10agent_card1_105_$LT$impl$u20$serde_core..de..Deserialize$u20$for$u20$skreaver_a2a..types..agent_card..AgentInterface$GT$11deserialize17h558cc65d03412d3aE', symObjAddr: 0x3838, symBinAddr: 0x222AC, symSize: 0x630 }
  - { offset: 0xD06C7, size: 0x8, addend: 0x0, symName: '__ZN12skreaver_a2a5types10agent_card1_105_$LT$impl$u20$serde_core..de..Deserialize$u20$for$u20$skreaver_a2a..types..agent_card..AgentInterface$GT$11deserialize17h8ee655f25198592dE', symObjAddr: 0x3E68, symBinAddr: 0x228DC, symSize: 0x238 }
  - { offset: 0xD0AE8, size: 0x8, addend: 0x0, symName: '__ZN12skreaver_a2a5types10agent_card1_105_$LT$impl$u20$serde_core..de..Deserialize$u20$for$u20$skreaver_a2a..types..agent_card..SecurityScheme$GT$11deserialize17h634459baffa6a02aE', symObjAddr: 0x40E8, symBinAddr: 0x22B14, symSize: 0x24C }
  - { offset: 0xD0EEC, size: 0x8, addend: 0x0, symName: '__ZN12skreaver_a2a5types10agent_card1_105_$LT$impl$u20$serde_core..de..Deserialize$u20$for$u20$skreaver_a2a..types..agent_card..SecurityScheme$GT$11deserialize17hc09f62522a791d1fE', symObjAddr: 0x4334, symBinAddr: 0x22D60, symSize: 0x640 }
  - { offset: 0xD1261, size: 0x8, addend: 0x0, symName: '__ZN12skreaver_a2a5types10agent_card1_107_$LT$impl$u20$serde_core..ser..Serialize$u20$for$u20$skreaver_a2a..types..agent_card..AgentCapabilities$GT$9serialize17h0f7d81b254d0da22E', symObjAddr: 0x4974, symBinAddr: 0x233A0, symSize: 0x144 }
  - { offset: 0xD136B, size: 0x8, addend: 0x0, symName: '__ZN12skreaver_a2a5types10agent_card1_108_$LT$impl$u20$serde_core..ser..Serialize$u20$for$u20$skreaver_a2a..types..agent_card..AgentCardSignature$GT$9serialize17h19536417fd073919E', symObjAddr: 0x4B2C, symBinAddr: 0x234E4, symSize: 0x16C }
  - { offset: 0xD14BD, size: 0x8, addend: 0x0, symName: '__ZN12skreaver_a2a5types10agent_card1_99_$LT$impl$u20$serde_core..ser..Serialize$u20$for$u20$skreaver_a2a..types..agent_card..AgentCard$GT$9serialize17h03f8adad67d45cb3E', symObjAddr: 0x4CD0, symBinAddr: 0x23650, symSize: 0x340 }
  - { offset: 0xD220F, size: 0x8, addend: 0x0, symName: '__ZN4core3ptr286drop_in_place$LT$core..result..Result$LT$$LP$skreaver_a2a..types..agent_card.._..$LT$impl$u20$serde_core..de..Deserialize$u20$for$u20$skreaver_a2a..types..agent_card..AgentInterface$GT$..deserialize..__Field$C$serde_core..private..content..Content$RP$$C$serde_json..error..Error$GT$$GT$17he2c965819e29f74aE', symObjAddr: 0x68A4, symBinAddr: 0x247BC, symSize: 0x14 }
  - { offset: 0xD225C, size: 0x8, addend: 0x0, symName: '__ZN4core3ptr286drop_in_place$LT$core..result..Result$LT$$LP$skreaver_a2a..types..agent_card.._..$LT$impl$u20$serde_core..de..Deserialize$u20$for$u20$skreaver_a2a..types..agent_card..SecurityScheme$GT$..deserialize..__Field$C$serde_core..private..content..Content$RP$$C$serde_json..error..Error$GT$$GT$17h2e6d1d9348fa7319E', symObjAddr: 0x68B8, symBinAddr: 0x247D0, symSize: 0x14 }
  - { offset: 0xD22E7, size: 0x8, addend: 0x0, symName: '__ZN4core3ptr57drop_in_place$LT$serde_json..value..ser..SerializeMap$GT$17ha8e1ad11403c96aeE', symObjAddr: 0x68CC, symBinAddr: 0x247E4, symSize: 0xD4 }
  - { offset: 0xD2394, size: 0x8, addend: 0x0, symName: '__ZN4core3ptr58drop_in_place$LT$serde_core..private..content..Content$GT$17ha0c203615a690f08E', symObjAddr: 0x69A0, symBinAddr: 0x248B8, symSize: 0x190 }
  - { offset: 0xD4C94, size: 0x8, addend: 0x0, symName: '__ZN72_$LT$alloc..boxed..Box$LT$T$C$A$GT$$u20$as$u20$core..ops..drop..Drop$GT$4drop17h08522ca1456017b8E', symObjAddr: 0x6B30, symBinAddr: 0x24A48, symSize: 0x80 }
  - { offset: 0xD4DEC, size: 0x8, addend: 0x0, symName: '__ZN72_$LT$alloc..boxed..Box$LT$T$C$A$GT$$u20$as$u20$core..ops..drop..Drop$GT$4drop17h2a67062d876283b5E', symObjAddr: 0x6BB0, symBinAddr: 0x24AC8, symSize: 0x80 }
  - { offset: 0xD4F12, size: 0x8, addend: 0x0, symName: '__ZN72_$LT$alloc..boxed..Box$LT$T$C$A$GT$$u20$as$u20$core..ops..drop..Drop$GT$4drop17h98d7ac6f64a48324E', symObjAddr: 0x6C30, symBinAddr: 0x24B48, symSize: 0x80 }
  - { offset: 0xD55D4, size: 0x8, addend: 0x0, symName: _anon.bdec8de4e3772252b208f8fe4e282518.1, symObjAddr: 0x72F8, symBinAddr: 0x511420, symSize: 0x0 }
  - { offset: 0xD5621, size: 0x8, addend: 0x0, symName: _anon.bdec8de4e3772252b208f8fe4e282518.2, symObjAddr: 0x7318, symBinAddr: 0x511440, symSize: 0x0 }
  - { offset: 0xD566E, size: 0x8, addend: 0x0, symName: _anon.bdec8de4e3772252b208f8fe4e282518.3, symObjAddr: 0x7338, symBinAddr: 0x511460, symSize: 0x0 }
  - { offset: 0xD56BB, size: 0x8, addend: 0x0, symName: _anon.bdec8de4e3772252b208f8fe4e282518.4, symObjAddr: 0x7358, symBinAddr: 0x511480, symSize: 0x0 }
  - { offset: 0xD5708, size: 0x8, addend: 0x0, symName: _anon.bdec8de4e3772252b208f8fe4e282518.72, symObjAddr: 0x75D8, symBinAddr: 0x5116B0, symSize: 0x0 }
  - { offset: 0xD5780, size: 0x8, addend: 0x0, symName: __ZN10serde_core2de7Visitor10visit_some17h12024ca1595f4ccdE, symObjAddr: 0x2D0, symBinAddr: 0x323AC8, symSize: 0x6C }
  - { offset: 0xD57D0, size: 0x8, addend: 0x0, symName: __ZN10serde_core2de7Visitor10visit_some17h37dac934d922615dE, symObjAddr: 0x33C, symBinAddr: 0x323B34, symSize: 0x6C }
  - { offset: 0xD5820, size: 0x8, addend: 0x0, symName: __ZN10serde_core2de7Visitor10visit_some17h5c19e63c53f61a7bE, symObjAddr: 0x3A8, symBinAddr: 0x323BA0, symSize: 0x6C }
  - { offset: 0xD5870, size: 0x8, addend: 0x0, symName: __ZN10serde_core2de7Visitor10visit_some17hb9e6aa30d980597fE, symObjAddr: 0x414, symBinAddr: 0x323C0C, symSize: 0x6C }
  - { offset: 0xD58C0, size: 0x8, addend: 0x0, symName: __ZN10serde_core2de7Visitor10visit_some17hdffd263e640f8ed8E, symObjAddr: 0x480, symBinAddr: 0x323C78, symSize: 0x6C }
  - { offset: 0xD594C, size: 0x8, addend: 0x0, symName: __ZN10serde_core2de7Visitor14visit_byte_buf17h08bb482ad7636a39E, symObjAddr: 0x7D0, symBinAddr: 0x323CE4, symSize: 0xB8 }
  - { offset: 0xD5B01, size: 0x8, addend: 0x0, symName: __ZN10serde_core2de7Visitor14visit_byte_buf17h18fd26ee2ace070aE, symObjAddr: 0x940, symBinAddr: 0x323D9C, symSize: 0xB8 }
  - { offset: 0xD5C7A, size: 0x8, addend: 0x0, symName: __ZN10serde_core2de7Visitor14visit_byte_buf17h2c0c9dc0e046e050E, symObjAddr: 0xA70, symBinAddr: 0x20F8C, symSize: 0x8C }
  - { offset: 0xD5E08, size: 0x8, addend: 0x0, symName: __ZN10serde_core2de7Visitor14visit_byte_buf17h526a6a10dc053589E, symObjAddr: 0xAFC, symBinAddr: 0x323E54, symSize: 0xB8 }
  - { offset: 0xD5FBD, size: 0x8, addend: 0x0, symName: __ZN10serde_core2de7Visitor14visit_byte_buf17h995a0516e8d0e79bE, symObjAddr: 0xC60, symBinAddr: 0x323F0C, symSize: 0xB8 }
  - { offset: 0xD6172, size: 0x8, addend: 0x0, symName: __ZN10serde_core2de7Visitor14visit_byte_buf17haa1a5a9c98872c79E, symObjAddr: 0xE64, symBinAddr: 0x323FC4, symSize: 0xB8 }
  - { offset: 0xD62EB, size: 0x8, addend: 0x0, symName: __ZN10serde_core2de7Visitor14visit_byte_buf17hd250290cb23fd7f6E, symObjAddr: 0xFBC, symBinAddr: 0x21018, symSize: 0xD0 }
  - { offset: 0xD63F6, size: 0x8, addend: 0x0, symName: __ZN10serde_core2de7Visitor20visit_newtype_struct17h0ede0821ee8ae9d8E, symObjAddr: 0x108C, symBinAddr: 0x32407C, symSize: 0x6C }
  - { offset: 0xD6446, size: 0x8, addend: 0x0, symName: __ZN10serde_core2de7Visitor20visit_newtype_struct17h7fa15054d9e9d60aE, symObjAddr: 0x10F8, symBinAddr: 0x3240E8, symSize: 0x6C }
  - { offset: 0xD6496, size: 0x8, addend: 0x0, symName: __ZN10serde_core2de7Visitor20visit_newtype_struct17habd6910fe2ea7a4bE, symObjAddr: 0x1164, symBinAddr: 0x324154, symSize: 0x6C }
  - { offset: 0xD64E6, size: 0x8, addend: 0x0, symName: __ZN10serde_core2de7Visitor20visit_newtype_struct17hc716e3f77ce1597eE, symObjAddr: 0x11D0, symBinAddr: 0x3241C0, symSize: 0x6C }
  - { offset: 0xD6536, size: 0x8, addend: 0x0, symName: __ZN10serde_core2de7Visitor20visit_newtype_struct17he71a04ed2a80e682E, symObjAddr: 0x123C, symBinAddr: 0x32422C, symSize: 0x6C }
  - { offset: 0xD6605, size: 0x8, addend: 0x0, symName: '__ZN46_$LT$T$u20$as$u20$serde_core..de..Expected$GT$3fmt17h0ce600a052d4c9a7E', symObjAddr: 0x6848, symBinAddr: 0x24760, symSize: 0x4 }
  - { offset: 0xD664A, size: 0x8, addend: 0x0, symName: '__ZN46_$LT$T$u20$as$u20$serde_core..de..Expected$GT$3fmt17h15d3a9c6993cf798E', symObjAddr: 0x684C, symBinAddr: 0x24764, symSize: 0x4 }
  - { offset: 0xD668F, size: 0x8, addend: 0x0, symName: '__ZN46_$LT$T$u20$as$u20$serde_core..de..Expected$GT$3fmt17h1d22ffe5d09dd4b5E', symObjAddr: 0x6850, symBinAddr: 0x24768, symSize: 0x4 }
  - { offset: 0xD66D4, size: 0x8, addend: 0x0, symName: '__ZN46_$LT$T$u20$as$u20$serde_core..de..Expected$GT$3fmt17h1df60ac92fe5a4faE', symObjAddr: 0x6854, symBinAddr: 0x2476C, symSize: 0x4 }
  - { offset: 0xD6719, size: 0x8, addend: 0x0, symName: '__ZN46_$LT$T$u20$as$u20$serde_core..de..Expected$GT$3fmt17h275662a26d7cb962E', symObjAddr: 0x6858, symBinAddr: 0x24770, symSize: 0x4 }
  - { offset: 0xD675E, size: 0x8, addend: 0x0, symName: '__ZN46_$LT$T$u20$as$u20$serde_core..de..Expected$GT$3fmt17h355b185c0220f8feE', symObjAddr: 0x685C, symBinAddr: 0x24774, symSize: 0x4 }
  - { offset: 0xD67A3, size: 0x8, addend: 0x0, symName: '__ZN46_$LT$T$u20$as$u20$serde_core..de..Expected$GT$3fmt17h36e485a694507c04E', symObjAddr: 0x6860, symBinAddr: 0x24778, symSize: 0x4 }
  - { offset: 0xD67E8, size: 0x8, addend: 0x0, symName: '__ZN46_$LT$T$u20$as$u20$serde_core..de..Expected$GT$3fmt17h3a68d258ff06dd3fE', symObjAddr: 0x6864, symBinAddr: 0x2477C, symSize: 0x4 }
  - { offset: 0xD682D, size: 0x8, addend: 0x0, symName: '__ZN46_$LT$T$u20$as$u20$serde_core..de..Expected$GT$3fmt17h3f131be7f027b154E', symObjAddr: 0x6868, symBinAddr: 0x24780, symSize: 0x4 }
  - { offset: 0xD6872, size: 0x8, addend: 0x0, symName: '__ZN46_$LT$T$u20$as$u20$serde_core..de..Expected$GT$3fmt17h431f65f6f8b6ae6fE', symObjAddr: 0x686C, symBinAddr: 0x24784, symSize: 0x4 }
  - { offset: 0xD68B7, size: 0x8, addend: 0x0, symName: '__ZN46_$LT$T$u20$as$u20$serde_core..de..Expected$GT$3fmt17h57003e600a82c3beE', symObjAddr: 0x6870, symBinAddr: 0x24788, symSize: 0x4 }
  - { offset: 0xD68FC, size: 0x8, addend: 0x0, symName: '__ZN46_$LT$T$u20$as$u20$serde_core..de..Expected$GT$3fmt17h5ba14b596f4d2d7aE', symObjAddr: 0x6874, symBinAddr: 0x2478C, symSize: 0x4 }
  - { offset: 0xD6941, size: 0x8, addend: 0x0, symName: '__ZN46_$LT$T$u20$as$u20$serde_core..de..Expected$GT$3fmt17h8afd6dd55fc4ac5cE', symObjAddr: 0x6878, symBinAddr: 0x24790, symSize: 0x4 }
  - { offset: 0xD6986, size: 0x8, addend: 0x0, symName: '__ZN46_$LT$T$u20$as$u20$serde_core..de..Expected$GT$3fmt17h90947f0259dd591aE', symObjAddr: 0x687C, symBinAddr: 0x24794, symSize: 0x4 }
  - { offset: 0xD69CB, size: 0x8, addend: 0x0, symName: '__ZN46_$LT$T$u20$as$u20$serde_core..de..Expected$GT$3fmt17h91ffd2e9232d2da6E', symObjAddr: 0x6880, symBinAddr: 0x24798, symSize: 0x4 }
  - { offset: 0xD6A10, size: 0x8, addend: 0x0, symName: '__ZN46_$LT$T$u20$as$u20$serde_core..de..Expected$GT$3fmt17h937470e0fb651db2E', symObjAddr: 0x6884, symBinAddr: 0x2479C, symSize: 0x4 }
  - { offset: 0xD6A55, size: 0x8, addend: 0x0, symName: '__ZN46_$LT$T$u20$as$u20$serde_core..de..Expected$GT$3fmt17ha0f717f967922bbfE', symObjAddr: 0x6888, symBinAddr: 0x247A0, symSize: 0x4 }
  - { offset: 0xD6A9A, size: 0x8, addend: 0x0, symName: '__ZN46_$LT$T$u20$as$u20$serde_core..de..Expected$GT$3fmt17hb0d1ae17bc47fe02E', symObjAddr: 0x688C, symBinAddr: 0x247A4, symSize: 0x4 }
  - { offset: 0xD6ADF, size: 0x8, addend: 0x0, symName: '__ZN46_$LT$T$u20$as$u20$serde_core..de..Expected$GT$3fmt17hb9bb936ed4be20ffE', symObjAddr: 0x6890, symBinAddr: 0x247A8, symSize: 0x4 }
  - { offset: 0xD6B24, size: 0x8, addend: 0x0, symName: '__ZN46_$LT$T$u20$as$u20$serde_core..de..Expected$GT$3fmt17hca860f9404f6256bE', symObjAddr: 0x6894, symBinAddr: 0x247AC, symSize: 0x4 }
  - { offset: 0xD6B69, size: 0x8, addend: 0x0, symName: '__ZN46_$LT$T$u20$as$u20$serde_core..de..Expected$GT$3fmt17he5d3b7d96ac996a0E', symObjAddr: 0x6898, symBinAddr: 0x247B0, symSize: 0x4 }
  - { offset: 0xD6BAE, size: 0x8, addend: 0x0, symName: '__ZN46_$LT$T$u20$as$u20$serde_core..de..Expected$GT$3fmt17he767038cb12efdadE', symObjAddr: 0x689C, symBinAddr: 0x247B4, symSize: 0x4 }
  - { offset: 0xD6BF3, size: 0x8, addend: 0x0, symName: '__ZN46_$LT$T$u20$as$u20$serde_core..de..Expected$GT$3fmt17hffa39554521a2379E', symObjAddr: 0x68A0, symBinAddr: 0x247B8, symSize: 0x4 }
  - { offset: 0xD7F04, size: 0x8, addend: 0x0, symName: __ZN12skreaver_a2a5types10agent_card10AgentSkill16with_description17h20533a54badfab31E, symObjAddr: 0x249C, symBinAddr: 0x210E8, symSize: 0x190 }
  - { offset: 0xD8249, size: 0x8, addend: 0x0, symName: __ZN12skreaver_a2a5types10agent_card10AgentSkill3new17he6da7760c0a39c3eE, symObjAddr: 0x262C, symBinAddr: 0x21278, symSize: 0x200 }
  - { offset: 0xD9031, size: 0x8, addend: 0x0, symName: __ZN12skreaver_a2a5types10agent_card9AgentCard16with_description17h4e8bab6408fec2d5E, symObjAddr: 0x5010, symBinAddr: 0x23990, symSize: 0x174 }
  - { offset: 0xD950F, size: 0x8, addend: 0x0, symName: __ZN12skreaver_a2a5types10agent_card9AgentCard3new17hb443d7f5bf47f195E, symObjAddr: 0x5184, symBinAddr: 0x23B04, symSize: 0x4FC }
  - { offset: 0xDAD4B, size: 0x8, addend: 0x0, symName: '__ZN79_$LT$tracing_core..field..DisplayValue$LT$T$GT$$u20$as$u20$core..fmt..Debug$GT$3fmt17h773eddd3e8e97701E', symObjAddr: 0x0, symBinAddr: 0x24BC8, symSize: 0x8 }
  - { offset: 0xDAE1E, size: 0x8, addend: 0x0, symName: '__ZN79_$LT$tracing_core..field..DisplayValue$LT$T$GT$$u20$as$u20$core..fmt..Debug$GT$3fmt17h773eddd3e8e97701E', symObjAddr: 0x0, symBinAddr: 0x24BC8, symSize: 0x8 }
  - { offset: 0xDAE5F, size: 0x8, addend: 0x0, symName: '__ZN79_$LT$tracing_core..field..DisplayValue$LT$T$GT$$u20$as$u20$core..fmt..Debug$GT$3fmt17h773eddd3e8e97701E', symObjAddr: 0x0, symBinAddr: 0x24BC8, symSize: 0x8 }
  - { offset: 0xDAE84, size: 0x8, addend: 0x0, symName: '__ZN79_$LT$tracing_core..field..DisplayValue$LT$T$GT$$u20$as$u20$core..fmt..Debug$GT$3fmt17h773eddd3e8e97701E', symObjAddr: 0x0, symBinAddr: 0x24BC8, symSize: 0x8 }
  - { offset: 0xDAEB2, size: 0x8, addend: 0x0, symName: '__ZN79_$LT$tracing_core..field..DisplayValue$LT$T$GT$$u20$as$u20$core..fmt..Debug$GT$3fmt17hbfc7ec90dc3bd999E', symObjAddr: 0x8, symBinAddr: 0x24BD0, symSize: 0x4 }
  - { offset: 0xDAEF1, size: 0x8, addend: 0x0, symName: '__ZN79_$LT$tracing_core..field..DisplayValue$LT$T$GT$$u20$as$u20$core..fmt..Debug$GT$3fmt17hbfc7ec90dc3bd999E', symObjAddr: 0x8, symBinAddr: 0x24BD0, symSize: 0x4 }
  - { offset: 0xDAF21, size: 0x8, addend: 0x0, symName: '__ZN89_$LT$tracing_core..field..DisplayValue$LT$T$GT$$u20$as$u20$tracing_core..field..Value$GT$6record17h2458169121bbe12aE', symObjAddr: 0xC, symBinAddr: 0x24BD4, symSize: 0x1C }
  - { offset: 0xDAF73, size: 0x8, addend: 0x0, symName: '__ZN89_$LT$tracing_core..field..DisplayValue$LT$T$GT$$u20$as$u20$tracing_core..field..Value$GT$6record17h305ff824eec3760dE', symObjAddr: 0x28, symBinAddr: 0x24BF0, symSize: 0x1C }
  - { offset: 0xDD29D, size: 0x8, addend: 0x0, symName: '__ZN46_$LT$T$u20$as$u20$serde_core..de..Expected$GT$3fmt17ha26aa698e5c61a8aE', symObjAddr: 0x80E8, symBinAddr: 0x2C8E8, symSize: 0x10 }
  - { offset: 0xDD30C, size: 0x8, addend: 0x0, symName: '__ZN46_$LT$T$u20$as$u20$serde_core..de..Expected$GT$3fmt17he896e951f9766aeeE', symObjAddr: 0x80F8, symBinAddr: 0x2C8F8, symSize: 0x10 }
  - { offset: 0xDDD3F, size: 0x8, addend: 0x0, symName: '__ZN72_$LT$alloc..boxed..Box$LT$T$C$A$GT$$u20$as$u20$core..ops..drop..Drop$GT$4drop17h2a67062d876283b5E', symObjAddr: 0x8340, symBinAddr: 0x2CB40, symSize: 0x80 }
  - { offset: 0xDE558, size: 0x8, addend: 0x0, symName: '__ZN4core3ptr106drop_in_place$LT$$LP$serde_core..private..content..Content$C$serde_core..private..content..Content$RP$$GT$17h591b6a73bb64c381E', symObjAddr: 0x813C, symBinAddr: 0x2C93C, symSize: 0x3C }
  - { offset: 0xDE594, size: 0x8, addend: 0x0, symName: '__ZN4core3ptr58drop_in_place$LT$serde_core..private..content..Content$GT$17ha0c203615a690f08E', symObjAddr: 0x8178, symBinAddr: 0x2C978, symSize: 0x190 }
  - { offset: 0xDE7B3, size: 0x8, addend: 0x0, symName: '__ZN4core3ptr68drop_in_place$LT$skreaver_a2a..types..agent_card..AgentInterface$GT$17h44a791b2011c156cE', symObjAddr: 0x8308, symBinAddr: 0x2CB08, symSize: 0x8 }
  - { offset: 0xDE7D0, size: 0x8, addend: 0x0, symName: '__ZN4core3ptr68drop_in_place$LT$skreaver_a2a..types..agent_card..SecurityScheme$GT$17he5e0c6875732cd23E', symObjAddr: 0x8310, symBinAddr: 0x2CB10, symSize: 0x30 }
  - { offset: 0xE1F4B, size: 0x8, addend: 0x0, symName: __ZN4core3ops8function6FnOnce9call_once17h8621167faccf7d06E, symObjAddr: 0x8108, symBinAddr: 0x2C908, symSize: 0x34 }
  - { offset: 0xE36FE, size: 0x8, addend: 0x0, symName: _anon.e1af6e8e5a4cd4f15781df58eb1530c6.19, symObjAddr: 0x9928, symBinAddr: 0x5119D0, symSize: 0x0 }
  - { offset: 0xE37C6, size: 0x8, addend: 0x0, symName: '__ZN100_$LT$serde..private..de..content..TagOrContentVisitor$u20$as$u20$serde_core..de..DeserializeSeed$GT$11deserialize17h74b7bcb7cdc3c17dE', symObjAddr: 0x44, symBinAddr: 0x24C0C, symSize: 0xF8 }
  - { offset: 0xE3A8B, size: 0x8, addend: 0x0, symName: '__ZN106_$LT$serde..private..de..content..ContentDeserializer$LT$E$GT$$u20$as$u20$serde_core..de..Deserializer$GT$15deserialize_any17h03f087debaf95ad8E', symObjAddr: 0x1F10, symBinAddr: 0x26AD8, symSize: 0xA68 }
  - { offset: 0xE4AD4, size: 0x8, addend: 0x0, symName: '__ZN106_$LT$serde..private..de..content..ContentDeserializer$LT$E$GT$$u20$as$u20$serde_core..de..Deserializer$GT$15deserialize_any17h5cf631d079100608E', symObjAddr: 0x2978, symBinAddr: 0x27540, symSize: 0xE70 }
  - { offset: 0xE5FE9, size: 0x8, addend: 0x0, symName: '__ZN106_$LT$serde..private..de..content..ContentDeserializer$LT$E$GT$$u20$as$u20$serde_core..de..Deserializer$GT$15deserialize_any17hd76df253bb3e2ae7E', symObjAddr: 0x37E8, symBinAddr: 0x283B0, symSize: 0x994 }
  - { offset: 0xE6F8C, size: 0x8, addend: 0x0, symName: '__ZN106_$LT$serde..private..de..content..ContentDeserializer$LT$E$GT$$u20$as$u20$serde_core..de..Deserializer$GT$15deserialize_any17he39880576cc50b01E', symObjAddr: 0x417C, symBinAddr: 0x28D44, symSize: 0xD98 }
  - { offset: 0xE8299, size: 0x8, addend: 0x0, symName: '__ZN106_$LT$serde..private..de..content..ContentDeserializer$LT$E$GT$$u20$as$u20$serde_core..de..Deserializer$GT$15deserialize_any17hf98e0906b0208b22E', symObjAddr: 0x4F14, symBinAddr: 0x29ADC, symSize: 0x9E0 }
  - { offset: 0xE9276, size: 0x8, addend: 0x0, symName: '__ZN106_$LT$serde..private..de..content..ContentDeserializer$LT$E$GT$$u20$as$u20$serde_core..de..Deserializer$GT$15deserialize_map17h65b14aaab139fb66E', symObjAddr: 0x58F4, symBinAddr: 0x2A4BC, symSize: 0x350 }
  - { offset: 0xE94CA, size: 0x8, addend: 0x0, symName: '__ZN106_$LT$serde..private..de..content..ContentDeserializer$LT$E$GT$$u20$as$u20$serde_core..de..Deserializer$GT$16deserialize_enum17h6c2ec9bedad1296eE', symObjAddr: 0x5C44, symBinAddr: 0x2A80C, symSize: 0x3F4 }
  - { offset: 0xE99AD, size: 0x8, addend: 0x0, symName: '__ZN106_$LT$serde..private..de..content..ContentDeserializer$LT$E$GT$$u20$as$u20$serde_core..de..Deserializer$GT$18deserialize_option17h988fc589fffe2506E', symObjAddr: 0x6038, symBinAddr: 0x2AC00, symSize: 0x1D0 }
  - { offset: 0xE9CB0, size: 0x8, addend: 0x0, symName: '__ZN106_$LT$serde..private..de..content..ContentDeserializer$LT$E$GT$$u20$as$u20$serde_core..de..Deserializer$GT$18deserialize_struct17h2ddc946398b9648fE', symObjAddr: 0x6208, symBinAddr: 0x2ADD0, symSize: 0xD44 }
  - { offset: 0xEAD68, size: 0x8, addend: 0x0, symName: '__ZN106_$LT$serde..private..de..content..ContentDeserializer$LT$E$GT$$u20$as$u20$serde_core..de..Deserializer$GT$18deserialize_struct17hcff6e7e9cc30b4e7E', symObjAddr: 0x6F4C, symBinAddr: 0x2BB14, symSize: 0xDD4 }
  - { offset: 0xEBE29, size: 0x8, addend: 0x0, symName: '__ZN101_$LT$serde..private..de..content..EnumDeserializer$LT$E$GT$$u20$as$u20$serde_core..de..EnumAccess$GT$12variant_seed17h5f6e83a3ecff038eE', symObjAddr: 0x13C, symBinAddr: 0x24D04, symSize: 0x390 }
  - { offset: 0xEC38D, size: 0x8, addend: 0x0, symName: '__ZN102_$LT$serde..private..de..content..TaggedContentVisitor$LT$T$GT$$u20$as$u20$serde_core..de..Visitor$GT$9visit_map17h55ebc94083369b9cE', symObjAddr: 0x4CC, symBinAddr: 0x25094, symSize: 0x320 }
  - { offset: 0xEC7B0, size: 0x8, addend: 0x0, symName: '__ZN102_$LT$serde..private..de..content..TaggedContentVisitor$LT$T$GT$$u20$as$u20$serde_core..de..Visitor$GT$9visit_map17h7b83d2e52c02e5e1E', symObjAddr: 0x7EC, symBinAddr: 0x253B4, symSize: 0x36C }
  - { offset: 0xECB47, size: 0x8, addend: 0x0, symName: '__ZN102_$LT$serde..private..de..content..TaggedContentVisitor$LT$T$GT$$u20$as$u20$serde_core..de..Visitor$GT$9visit_map17h7d7dc93cafbff452E', symObjAddr: 0xB58, symBinAddr: 0x25720, symSize: 0x320 }
  - { offset: 0xECF6A, size: 0x8, addend: 0x0, symName: '__ZN102_$LT$serde..private..de..content..TaggedContentVisitor$LT$T$GT$$u20$as$u20$serde_core..de..Visitor$GT$9visit_map17hc7d9c616eca09afeE', symObjAddr: 0xE78, symBinAddr: 0x25A40, symSize: 0x368 }
  - { offset: 0xED2FC, size: 0x8, addend: 0x0, symName: '__ZN102_$LT$serde..private..de..content..TaggedContentVisitor$LT$T$GT$$u20$as$u20$serde_core..de..Visitor$GT$9visit_map17hea7ccde7d5eb5030E', symObjAddr: 0x11E0, symBinAddr: 0x25DA8, symSize: 0x324 }
  - { offset: 0xED724, size: 0x8, addend: 0x0, symName: '__ZN102_$LT$serde..private..de..content..TaggedContentVisitor$LT$T$GT$$u20$as$u20$serde_core..de..Visitor$GT$9visit_map17hfec152628a8e55f4E', symObjAddr: 0x1504, symBinAddr: 0x260CC, symSize: 0x368 }
  - { offset: 0xEDAB6, size: 0x8, addend: 0x0, symName: '__ZN102_$LT$serde..private..de..content..TaggedContentVisitor$LT$T$GT$$u20$as$u20$serde_core..de..Visitor$GT$9visit_seq17h04722467c01da0ccE', symObjAddr: 0x186C, symBinAddr: 0x26434, symSize: 0x120 }
  - { offset: 0xEDCF4, size: 0x8, addend: 0x0, symName: '__ZN102_$LT$serde..private..de..content..TaggedContentVisitor$LT$T$GT$$u20$as$u20$serde_core..de..Visitor$GT$9visit_seq17h1c4a87cfa40fc06cE', symObjAddr: 0x198C, symBinAddr: 0x26554, symSize: 0x118 }
  - { offset: 0xEDE3A, size: 0x8, addend: 0x0, symName: '__ZN102_$LT$serde..private..de..content..TaggedContentVisitor$LT$T$GT$$u20$as$u20$serde_core..de..Visitor$GT$9visit_seq17h5b65ca59842c08faE', symObjAddr: 0x1AA4, symBinAddr: 0x2666C, symSize: 0x114 }
  - { offset: 0xEDF80, size: 0x8, addend: 0x0, symName: '__ZN102_$LT$serde..private..de..content..TaggedContentVisitor$LT$T$GT$$u20$as$u20$serde_core..de..Visitor$GT$9visit_seq17hbb690be9d4d71b85E', symObjAddr: 0x1BB8, symBinAddr: 0x26780, symSize: 0x124 }
  - { offset: 0xEE1BE, size: 0x8, addend: 0x0, symName: '__ZN102_$LT$serde..private..de..content..TaggedContentVisitor$LT$T$GT$$u20$as$u20$serde_core..de..Visitor$GT$9visit_seq17hbba8446100045793E', symObjAddr: 0x1CDC, symBinAddr: 0x268A4, symSize: 0x114 }
  - { offset: 0xEE304, size: 0x8, addend: 0x0, symName: '__ZN102_$LT$serde..private..de..content..TaggedContentVisitor$LT$T$GT$$u20$as$u20$serde_core..de..Visitor$GT$9visit_seq17hde65c0c9dfd0a21dE', symObjAddr: 0x1DF0, symBinAddr: 0x269B8, symSize: 0x120 }
  - { offset: 0xEF597, size: 0x8, addend: 0x0, symName: _anon.e1af6e8e5a4cd4f15781df58eb1530c6.20, symObjAddr: 0x9948, symBinAddr: 0x5119F0, symSize: 0x0 }
  - { offset: 0xF4772, size: 0x8, addend: 0x0, symName: '__ZN4core3ptr110drop_in_place$LT$core..result..Result$LT$reqwest..async_impl..request..Request$C$reqwest..error..Error$GT$$GT$17h1fe2c03ae85ee016E', symObjAddr: 0x0, symBinAddr: 0x2CBC0, symSize: 0x18 }
  - { offset: 0xF5BA3, size: 0x8, addend: 0x0, symName: '__ZN4core3ptr110drop_in_place$LT$core..result..Result$LT$reqwest..async_impl..request..Request$C$reqwest..error..Error$GT$$GT$17h1fe2c03ae85ee016E', symObjAddr: 0x0, symBinAddr: 0x2CBC0, symSize: 0x18 }
  - { offset: 0xF9F84, size: 0x8, addend: 0x0, symName: __ZN5bytes5bytes11static_drop17h6c3865e4add162f7E, symObjAddr: 0x18, symBinAddr: 0x2CBD8, symSize: 0x4 }
  - { offset: 0xF9FB8, size: 0x8, addend: 0x0, symName: __ZN5bytes5bytes16static_is_unique17hf3f420afe584cf7cE, symObjAddr: 0x1C, symBinAddr: 0x2CBDC, symSize: 0x8 }
  - { offset: 0xFE061, size: 0x8, addend: 0x0, symName: __ZN7reqwest10async_impl7request14RequestBuilder4json17hb77be3ef439daf19E, symObjAddr: 0x24, symBinAddr: 0x2CBE4, symSize: 0x300 }
  - { offset: 0xFE3B6, size: 0x8, addend: 0x0, symName: __ZN7reqwest10async_impl7request14RequestBuilder4json17hca54ccf0a29e77f5E, symObjAddr: 0x324, symBinAddr: 0x2CEE4, symSize: 0x300 }
  - { offset: 0xFEEDA, size: 0x8, addend: 0x0, symName: '__ZN4core3ops8function6FnOnce40call_once$u7b$$u7b$vtable.shim$u7d$$u7d$17h83770e30c89e31d8E', symObjAddr: 0x0, symBinAddr: 0x2D1E4, symSize: 0xD4 }
  - { offset: 0xFEFF1, size: 0x8, addend: 0x0, symName: '__ZN58_$LT$alloc..string..String$u20$as$u20$core..fmt..Debug$GT$3fmt17hf1e461d83be89b72E', symObjAddr: 0x8CC, symBinAddr: 0x2DAB0, symSize: 0x5C }
  - { offset: 0xFF152, size: 0x8, addend: 0x0, symName: '__ZN58_$LT$alloc..string..String$u20$as$u20$core..fmt..Write$GT$10write_char17h5afa657ba1086fe6E', symObjAddr: 0x928, symBinAddr: 0x2DB0C, symSize: 0x108 }
  - { offset: 0xFF35F, size: 0x8, addend: 0x0, symName: '__ZN58_$LT$alloc..string..String$u20$as$u20$core..fmt..Write$GT$9write_str17hba5566b7261b3df3E', symObjAddr: 0xA30, symBinAddr: 0x2DC14, symSize: 0x24 }
  - { offset: 0xFFDF9, size: 0x8, addend: 0x0, symName: __ZN5alloc3fmt6format17h71d6c2af60a0c6e3E, symObjAddr: 0xA54, symBinAddr: 0x2DC38, symSize: 0x17C }
  - { offset: 0x1007E0, size: 0x8, addend: 0x0, symName: '__ZN4core3ptr117drop_in_place$LT$core..result..Result$LT$pyo3..instance..Py$LT$pyo3..types..any..PyAny$GT$$C$pyo3..err..PyErr$GT$$GT$17hdc2e139a8a4d7adeE', symObjAddr: 0x184, symBinAddr: 0x2D368, symSize: 0x60 }
  - { offset: 0x100862, size: 0x8, addend: 0x0, symName: '__ZN4core3ptr133drop_in_place$LT$pyo3..err..PyErr..new$LT$pyo3..exceptions..PyValueError$C$alloc..string..String$GT$..$u7b$$u7b$closure$u7d$$u7d$$GT$17hbebc3b7440907b3aE', symObjAddr: 0x1E4, symBinAddr: 0x2D3C8, symSize: 0x4 }
  - { offset: 0x10087D, size: 0x8, addend: 0x0, symName: '__ZN4core3ptr45drop_in_place$LT$serde_json..value..Value$GT$17hc94cdcf2b4baa5acE', symObjAddr: 0x1E8, symBinAddr: 0x2D3CC, symSize: 0x2C }
  - { offset: 0x10089A, size: 0x8, addend: 0x0, symName: '__ZN4core3ptr75drop_in_place$LT$pyo3..instance..Bound$LT$pyo3..types..dict..PyDict$GT$$GT$17hbf0e7772729e6bf1E', symObjAddr: 0x214, symBinAddr: 0x2D3F8, symSize: 0x5C }
  - { offset: 0x10117E, size: 0x8, addend: 0x0, symName: '__ZN53_$LT$core..fmt..Error$u20$as$u20$core..fmt..Debug$GT$3fmt17haea4712e43834251E', symObjAddr: 0x8B8, symBinAddr: 0x2DA9C, symSize: 0x14 }
  - { offset: 0x1020C3, size: 0x8, addend: 0x0, symName: '__ZN66_$LT$core..option..Option$LT$T$GT$$u20$as$u20$core..fmt..Debug$GT$3fmt17h3d9e8ba244db1722E', symObjAddr: 0xBD0, symBinAddr: 0x2DDB4, symSize: 0x60 }
  - { offset: 0x104A34, size: 0x8, addend: 0x0, symName: '__ZN4core3ops8function6FnOnce40call_once$u7b$$u7b$vtable.shim$u7d$$u7d$17h83770e30c89e31d8E', symObjAddr: 0x0, symBinAddr: 0x2D1E4, symSize: 0xD4 }
  - { offset: 0x104B7B, size: 0x8, addend: 0x0, symName: '__ZN4core3ops8function6FnOnce40call_once$u7b$$u7b$vtable.shim$u7d$$u7d$17hd0a144c144a6e29cE', symObjAddr: 0xD4, symBinAddr: 0x2D2B8, symSize: 0xB0 }
  - { offset: 0x106D25, size: 0x8, addend: 0x0, symName: __ZN4pyo35impl_10trampoline22fastcall_with_keywords17h1eccd5e128be3cc4E, symObjAddr: 0x350, symBinAddr: 0x2D534, symSize: 0x14C }
  - { offset: 0x106F03, size: 0x8, addend: 0x0, symName: __ZN4pyo35impl_10trampoline6noargs17h8970b7ea902e63e1E, symObjAddr: 0x49C, symBinAddr: 0x2D680, symSize: 0x148 }
  - { offset: 0x1070DB, size: 0x8, addend: 0x0, symName: __ZN4pyo35impl_10trampoline7newfunc17h963637ffaf29733aE, symObjAddr: 0x5E4, symBinAddr: 0x2D7C8, symSize: 0x164 }
  - { offset: 0x10736F, size: 0x8, addend: 0x0, symName: __ZN4pyo35impl_10trampoline8reprfunc17h5e9c0243b0604387E, symObjAddr: 0x748, symBinAddr: 0x2D92C, symSize: 0x170 }
  - { offset: 0x1094FF, size: 0x8, addend: 0x0, symName: '__ZN85_$LT$_skreaver..mcp..PyMcpTaskStatus$u20$as$u20$pyo3..impl_..pyclass..PyClassImpl$GT$10items_iter15INTRINSIC_ITEMS17h18ae9ca5ade20312E', symObjAddr: 0xA860, symBinAddr: 0x511F48, symSize: 0x0 }
  - { offset: 0x109511, size: 0x8, addend: 0x0, symName: '__ZN85_$LT$_skreaver..mcp..PyMcpTaskStatus$u20$as$u20$pyo3..impl_..pyclass..PyClassImpl$GT$10items_iter15INTRINSIC_ITEMS10trampoline17hfc1e0b1cc236c476E', symObjAddr: 0xF60, symBinAddr: 0x2E128, symSize: 0x20 }
  - { offset: 0x10953E, size: 0x8, addend: 0x0, symName: '__ZN85_$LT$_skreaver..mcp..PyMcpTaskStatus$u20$as$u20$pyo3..impl_..pyclass..PyClassImpl$GT$10items_iter15INTRINSIC_ITEMS10trampoline17h9be94c05076533c5E', symObjAddr: 0xF80, symBinAddr: 0x2E148, symSize: 0x25C }
  - { offset: 0x109914, size: 0x8, addend: 0x0, symName: '__ZN85_$LT$_skreaver..mcp..PyMcpTaskStatus$u20$as$u20$pyo3..impl_..pyclass..PyClassImpl$GT$10items_iter15INTRINSIC_ITEMS10trampoline17h3e2ece008bfb6f01E', symObjAddr: 0x11DC, symBinAddr: 0x2E3A4, symSize: 0xAC4 }
  - { offset: 0x10B332, size: 0x8, addend: 0x0, symName: '__ZN85_$LT$_skreaver..mcp..PyMcpTaskStatus$u20$as$u20$pyo3..impl_..pyclass..PyClassImpl$GT$3doc3DOC17h261031370df080c6E', symObjAddr: 0x8AA38, symBinAddr: 0x55BFC0, symSize: 0x0 }
  - { offset: 0x10B35A, size: 0x8, addend: 0x0, symName: '__ZN85_$LT$_skreaver..mcp..PyMcpTaskStatus$u20$as$u20$pyo3..impl_..pyclass..PyClassImpl$GT$16lazy_type_object11TYPE_OBJECT17h38cbdfba2e5d62a4E', symObjAddr: 0xC320, symBinAddr: 0x558788, symSize: 0x0 }
  - { offset: 0x10B548, size: 0x8, addend: 0x0, symName: '__ZN9_skreaver3mcp182_$LT$impl$u20$pyo3..impl_..pyclass..PyMethods$LT$_skreaver..mcp..PyMcpTaskStatus$GT$$u20$for$u20$pyo3..impl_..pyclass..PyClassImplCollector$LT$_skreaver..mcp..PyMcpTaskStatus$GT$$GT$10py_methods5ITEMS17hc7306999bc5e3686E', symObjAddr: 0xB660, symBinAddr: 0x512D48, symSize: 0x0 }
  - { offset: 0x10B55A, size: 0x8, addend: 0x0, symName: '__ZN9_skreaver3mcp182_$LT$impl$u20$pyo3..impl_..pyclass..PyMethods$LT$_skreaver..mcp..PyMcpTaskStatus$GT$$u20$for$u20$pyo3..impl_..pyclass..PyClassImplCollector$LT$_skreaver..mcp..PyMcpTaskStatus$GT$$GT$10py_methods5ITEMS10trampoline17h9486629f340bd30aE', symObjAddr: 0x2104, symBinAddr: 0x2F21C, symSize: 0x20 }
  - { offset: 0x10B596, size: 0x8, addend: 0x0, symName: '__ZN9_skreaver3mcp182_$LT$impl$u20$pyo3..impl_..pyclass..PyMethods$LT$_skreaver..mcp..PyMcpTaskStatus$GT$$u20$for$u20$pyo3..impl_..pyclass..PyClassImplCollector$LT$_skreaver..mcp..PyMcpTaskStatus$GT$$GT$10py_methods5ITEMS10trampoline17hbfcb544558446f12E', symObjAddr: 0x2124, symBinAddr: 0x2F23C, symSize: 0x20 }
  - { offset: 0x10B5C3, size: 0x8, addend: 0x0, symName: '__ZN9_skreaver3mcp182_$LT$impl$u20$pyo3..impl_..pyclass..PyMethods$LT$_skreaver..mcp..PyMcpTaskStatus$GT$$u20$for$u20$pyo3..impl_..pyclass..PyClassImplCollector$LT$_skreaver..mcp..PyMcpTaskStatus$GT$$GT$10py_methods5ITEMS10trampoline17hf14768776097c7cfE', symObjAddr: 0x2144, symBinAddr: 0x2F25C, symSize: 0x20 }
  - { offset: 0x10B60B, size: 0x8, addend: 0x0, symName: '__ZN79_$LT$_skreaver..mcp..PyMcpTask$u20$as$u20$pyo3..impl_..pyclass..PyClassImpl$GT$10items_iter15INTRINSIC_ITEMS17h274f655888925154E', symObjAddr: 0xA280, symBinAddr: 0x35ED30, symSize: 0x0 }
  - { offset: 0x10B62C, size: 0x8, addend: 0x0, symName: '__ZN79_$LT$_skreaver..mcp..PyMcpTask$u20$as$u20$pyo3..impl_..pyclass..PyClassImpl$GT$3doc3DOC17hf5be1bf8e08ef8b4E', symObjAddr: 0x8AA58, symBinAddr: 0x55BFE0, symSize: 0x0 }
  - { offset: 0x10B654, size: 0x8, addend: 0x0, symName: '__ZN79_$LT$_skreaver..mcp..PyMcpTask$u20$as$u20$pyo3..impl_..pyclass..PyClassImpl$GT$16lazy_type_object11TYPE_OBJECT17h01333dcff0faf47aE', symObjAddr: 0xC378, symBinAddr: 0x5587E0, symSize: 0x0 }
  - { offset: 0x10B90C, size: 0x8, addend: 0x0, symName: '__ZN9_skreaver3mcp170_$LT$impl$u20$pyo3..impl_..pyclass..PyMethods$LT$_skreaver..mcp..PyMcpTask$GT$$u20$for$u20$pyo3..impl_..pyclass..PyClassImplCollector$LT$_skreaver..mcp..PyMcpTask$GT$$GT$10py_methods5ITEMS17hb731250ea5752d4eE', symObjAddr: 0xB680, symBinAddr: 0x512D68, symSize: 0x0 }
  - { offset: 0x10B91E, size: 0x8, addend: 0x0, symName: '__ZN9_skreaver3mcp170_$LT$impl$u20$pyo3..impl_..pyclass..PyMethods$LT$_skreaver..mcp..PyMcpTask$GT$$u20$for$u20$pyo3..impl_..pyclass..PyClassImplCollector$LT$_skreaver..mcp..PyMcpTask$GT$$GT$10py_methods5ITEMS10trampoline17hfe7c4add62235999E', symObjAddr: 0x2A84, symBinAddr: 0x2FAD0, symSize: 0x20 }
  - { offset: 0x10B95A, size: 0x8, addend: 0x0, symName: '__ZN9_skreaver3mcp170_$LT$impl$u20$pyo3..impl_..pyclass..PyMethods$LT$_skreaver..mcp..PyMcpTask$GT$$u20$for$u20$pyo3..impl_..pyclass..PyClassImplCollector$LT$_skreaver..mcp..PyMcpTask$GT$$GT$10py_methods5ITEMS10trampoline17h15148e640510d8fcE', symObjAddr: 0x2AA4, symBinAddr: 0x2FAF0, symSize: 0x20 }
  - { offset: 0x10B996, size: 0x8, addend: 0x0, symName: '__ZN9_skreaver3mcp170_$LT$impl$u20$pyo3..impl_..pyclass..PyMethods$LT$_skreaver..mcp..PyMcpTask$GT$$u20$for$u20$pyo3..impl_..pyclass..PyClassImplCollector$LT$_skreaver..mcp..PyMcpTask$GT$$GT$10py_methods5ITEMS10trampoline17hc6b87f20ee1cd610E', symObjAddr: 0x2AC4, symBinAddr: 0x2FB10, symSize: 0x20 }
  - { offset: 0x10B9D2, size: 0x8, addend: 0x0, symName: '__ZN9_skreaver3mcp170_$LT$impl$u20$pyo3..impl_..pyclass..PyMethods$LT$_skreaver..mcp..PyMcpTask$GT$$u20$for$u20$pyo3..impl_..pyclass..PyClassImplCollector$LT$_skreaver..mcp..PyMcpTask$GT$$GT$10py_methods5ITEMS10trampoline17h4348871832a9a487E', symObjAddr: 0x2AE4, symBinAddr: 0x2FB30, symSize: 0x20 }
  - { offset: 0x10BA1D, size: 0x8, addend: 0x0, symName: '__ZN9_skreaver3mcp170_$LT$impl$u20$pyo3..impl_..pyclass..PyMethods$LT$_skreaver..mcp..PyMcpTask$GT$$u20$for$u20$pyo3..impl_..pyclass..PyClassImplCollector$LT$_skreaver..mcp..PyMcpTask$GT$$GT$10py_methods5ITEMS10trampoline17h9875cffe769a5b6aE', symObjAddr: 0x2B04, symBinAddr: 0x2FB50, symSize: 0x20 }
  - { offset: 0x10BA65, size: 0x8, addend: 0x0, symName: '__ZN90_$LT$_skreaver..mcp..PyMcpToolAnnotations$u20$as$u20$pyo3..impl_..pyclass..PyClassImpl$GT$10items_iter15INTRINSIC_ITEMS17hdaf00b4afc2617d7E', symObjAddr: 0xA2C8, symBinAddr: 0x35ED78, symSize: 0x0 }
  - { offset: 0x10BA86, size: 0x8, addend: 0x0, symName: '__ZN90_$LT$_skreaver..mcp..PyMcpToolAnnotations$u20$as$u20$pyo3..impl_..pyclass..PyClassImpl$GT$3doc3DOC17h3070c2d1cc5e832dE', symObjAddr: 0x8AA78, symBinAddr: 0x55C000, symSize: 0x0 }
  - { offset: 0x10BAAE, size: 0x8, addend: 0x0, symName: '__ZN90_$LT$_skreaver..mcp..PyMcpToolAnnotations$u20$as$u20$pyo3..impl_..pyclass..PyClassImpl$GT$16lazy_type_object11TYPE_OBJECT17h9e6c0c6539d6913cE', symObjAddr: 0xC3D0, symBinAddr: 0x558838, symSize: 0x0 }
  - { offset: 0x10BD3B, size: 0x8, addend: 0x0, symName: '__ZN9_skreaver3mcp192_$LT$impl$u20$pyo3..impl_..pyclass..PyMethods$LT$_skreaver..mcp..PyMcpToolAnnotations$GT$$u20$for$u20$pyo3..impl_..pyclass..PyClassImplCollector$LT$_skreaver..mcp..PyMcpToolAnnotations$GT$$GT$10py_methods5ITEMS17habce93b3be08adb2E', symObjAddr: 0xB6A0, symBinAddr: 0x512D88, symSize: 0x0 }
  - { offset: 0x10BD4D, size: 0x8, addend: 0x0, symName: '__ZN9_skreaver3mcp192_$LT$impl$u20$pyo3..impl_..pyclass..PyMethods$LT$_skreaver..mcp..PyMcpToolAnnotations$GT$$u20$for$u20$pyo3..impl_..pyclass..PyClassImplCollector$LT$_skreaver..mcp..PyMcpToolAnnotations$GT$$GT$10py_methods5ITEMS10trampoline17h92f131988a5bb8aeE', symObjAddr: 0x42D0, symBinAddr: 0x31224, symSize: 0x20 }
  - { offset: 0x10BDA7, size: 0x8, addend: 0x0, symName: '__ZN9_skreaver3mcp192_$LT$impl$u20$pyo3..impl_..pyclass..PyMethods$LT$_skreaver..mcp..PyMcpToolAnnotations$GT$$u20$for$u20$pyo3..impl_..pyclass..PyClassImplCollector$LT$_skreaver..mcp..PyMcpToolAnnotations$GT$$GT$10py_methods5ITEMS10trampoline17hb580109a82fe7919E', symObjAddr: 0x42F0, symBinAddr: 0x31244, symSize: 0x20 }
  - { offset: 0x10BE01, size: 0x8, addend: 0x0, symName: '__ZN9_skreaver3mcp192_$LT$impl$u20$pyo3..impl_..pyclass..PyMethods$LT$_skreaver..mcp..PyMcpToolAnnotations$GT$$u20$for$u20$pyo3..impl_..pyclass..PyClassImplCollector$LT$_skreaver..mcp..PyMcpToolAnnotations$GT$$GT$10py_methods5ITEMS10trampoline17h11557d885315f94aE', symObjAddr: 0x4310, symBinAddr: 0x31264, symSize: 0x20 }
  - { offset: 0x10BE5B, size: 0x8, addend: 0x0, symName: '__ZN9_skreaver3mcp192_$LT$impl$u20$pyo3..impl_..pyclass..PyMethods$LT$_skreaver..mcp..PyMcpToolAnnotations$GT$$u20$for$u20$pyo3..impl_..pyclass..PyClassImplCollector$LT$_skreaver..mcp..PyMcpToolAnnotations$GT$$GT$10py_methods5ITEMS10trampoline17h1017e0f754488d81E', symObjAddr: 0x4330, symBinAddr: 0x31284, symSize: 0x20 }
  - { offset: 0x10BEB5, size: 0x8, addend: 0x0, symName: '__ZN9_skreaver3mcp192_$LT$impl$u20$pyo3..impl_..pyclass..PyMethods$LT$_skreaver..mcp..PyMcpToolAnnotations$GT$$u20$for$u20$pyo3..impl_..pyclass..PyClassImplCollector$LT$_skreaver..mcp..PyMcpToolAnnotations$GT$$GT$10py_methods5ITEMS10trampoline17h5a830a59bd3f22ceE', symObjAddr: 0x4350, symBinAddr: 0x312A4, symSize: 0x20 }
  - { offset: 0x10BEF1, size: 0x8, addend: 0x0, symName: '__ZN9_skreaver3mcp192_$LT$impl$u20$pyo3..impl_..pyclass..PyMethods$LT$_skreaver..mcp..PyMcpToolAnnotations$GT$$u20$for$u20$pyo3..impl_..pyclass..PyClassImplCollector$LT$_skreaver..mcp..PyMcpToolAnnotations$GT$$GT$10py_methods5ITEMS10trampoline17hf0b0afab2e4079eaE', symObjAddr: 0x4370, symBinAddr: 0x312C4, symSize: 0x20 }
  - { offset: 0x10BF3C, size: 0x8, addend: 0x0, symName: '__ZN9_skreaver3mcp192_$LT$impl$u20$pyo3..impl_..pyclass..PyMethods$LT$_skreaver..mcp..PyMcpToolAnnotations$GT$$u20$for$u20$pyo3..impl_..pyclass..PyClassImplCollector$LT$_skreaver..mcp..PyMcpToolAnnotations$GT$$GT$10py_methods5ITEMS10trampoline17h59392e3a05f6c070E', symObjAddr: 0x4390, symBinAddr: 0x312E4, symSize: 0x20 }
  - { offset: 0x10BF85, size: 0x8, addend: 0x0, symName: '__ZN89_$LT$_skreaver..mcp..PyMcpToolDefinition$u20$as$u20$pyo3..impl_..pyclass..PyClassImpl$GT$10items_iter15INTRINSIC_ITEMS17h5c896d52ecadf1b6E', symObjAddr: 0xA370, symBinAddr: 0x35EE20, symSize: 0x0 }
  - { offset: 0x10BFA7, size: 0x8, addend: 0x0, symName: '__ZN89_$LT$_skreaver..mcp..PyMcpToolDefinition$u20$as$u20$pyo3..impl_..pyclass..PyClassImpl$GT$3doc3DOC17hd8eb58442e7a92b6E', symObjAddr: 0x8AA98, symBinAddr: 0x55C020, symSize: 0x0 }
  - { offset: 0x10BFD0, size: 0x8, addend: 0x0, symName: '__ZN89_$LT$_skreaver..mcp..PyMcpToolDefinition$u20$as$u20$pyo3..impl_..pyclass..PyClassImpl$GT$16lazy_type_object11TYPE_OBJECT17h0095c42c989dae0fE', symObjAddr: 0xC428, symBinAddr: 0x558890, symSize: 0x0 }
  - { offset: 0x10C2F8, size: 0x8, addend: 0x0, symName: '__ZN9_skreaver3mcp190_$LT$impl$u20$pyo3..impl_..pyclass..PyMethods$LT$_skreaver..mcp..PyMcpToolDefinition$GT$$u20$for$u20$pyo3..impl_..pyclass..PyClassImplCollector$LT$_skreaver..mcp..PyMcpToolDefinition$GT$$GT$10py_methods5ITEMS17hd56d8303c44ada76E', symObjAddr: 0xB6C0, symBinAddr: 0x512DA8, symSize: 0x0 }
  - { offset: 0x10C30A, size: 0x8, addend: 0x0, symName: '__ZN9_skreaver3mcp190_$LT$impl$u20$pyo3..impl_..pyclass..PyMethods$LT$_skreaver..mcp..PyMcpToolDefinition$GT$$u20$for$u20$pyo3..impl_..pyclass..PyClassImplCollector$LT$_skreaver..mcp..PyMcpToolDefinition$GT$$GT$10py_methods5ITEMS10trampoline17h39ee70ea86223cf8E', symObjAddr: 0x5CE4, symBinAddr: 0x32B6C, symSize: 0x20 }
  - { offset: 0x10C369, size: 0x8, addend: 0x0, symName: '__ZN9_skreaver3mcp190_$LT$impl$u20$pyo3..impl_..pyclass..PyMethods$LT$_skreaver..mcp..PyMcpToolDefinition$GT$$u20$for$u20$pyo3..impl_..pyclass..PyClassImplCollector$LT$_skreaver..mcp..PyMcpToolDefinition$GT$$GT$10py_methods5ITEMS10trampoline17h98bf1f3bb32f3daaE', symObjAddr: 0x5D04, symBinAddr: 0x32B8C, symSize: 0x20 }
  - { offset: 0x10C3C8, size: 0x8, addend: 0x0, symName: '__ZN9_skreaver3mcp190_$LT$impl$u20$pyo3..impl_..pyclass..PyMethods$LT$_skreaver..mcp..PyMcpToolDefinition$GT$$u20$for$u20$pyo3..impl_..pyclass..PyClassImplCollector$LT$_skreaver..mcp..PyMcpToolDefinition$GT$$GT$10py_methods5ITEMS10trampoline17hfa16ecb03e69c033E', symObjAddr: 0x5D24, symBinAddr: 0x32BAC, symSize: 0x20 }
  - { offset: 0x10C427, size: 0x8, addend: 0x0, symName: '__ZN9_skreaver3mcp190_$LT$impl$u20$pyo3..impl_..pyclass..PyMethods$LT$_skreaver..mcp..PyMcpToolDefinition$GT$$u20$for$u20$pyo3..impl_..pyclass..PyClassImplCollector$LT$_skreaver..mcp..PyMcpToolDefinition$GT$$GT$10py_methods5ITEMS10trampoline17ha2cceaf4812d75bfE', symObjAddr: 0x5D44, symBinAddr: 0x32BCC, symSize: 0x20 }
  - { offset: 0x10C466, size: 0x8, addend: 0x0, symName: '__ZN9_skreaver3mcp190_$LT$impl$u20$pyo3..impl_..pyclass..PyMethods$LT$_skreaver..mcp..PyMcpToolDefinition$GT$$u20$for$u20$pyo3..impl_..pyclass..PyClassImplCollector$LT$_skreaver..mcp..PyMcpToolDefinition$GT$$GT$10py_methods5ITEMS10trampoline17h085d2fe353331659E', symObjAddr: 0x5D64, symBinAddr: 0x32BEC, symSize: 0x20 }
  - { offset: 0x10C4C5, size: 0x8, addend: 0x0, symName: '__ZN9_skreaver3mcp190_$LT$impl$u20$pyo3..impl_..pyclass..PyMethods$LT$_skreaver..mcp..PyMcpToolDefinition$GT$$u20$for$u20$pyo3..impl_..pyclass..PyClassImplCollector$LT$_skreaver..mcp..PyMcpToolDefinition$GT$$GT$10py_methods5ITEMS10trampoline17h5667bbcadf94420aE', symObjAddr: 0x5D84, symBinAddr: 0x32C0C, symSize: 0x20 }
  - { offset: 0x10C514, size: 0x8, addend: 0x0, symName: '__ZN9_skreaver3mcp190_$LT$impl$u20$pyo3..impl_..pyclass..PyMethods$LT$_skreaver..mcp..PyMcpToolDefinition$GT$$u20$for$u20$pyo3..impl_..pyclass..PyClassImplCollector$LT$_skreaver..mcp..PyMcpToolDefinition$GT$$GT$10py_methods5ITEMS10trampoline17h6bcc1959e10e313dE', symObjAddr: 0x5DA4, symBinAddr: 0x32C2C, symSize: 0x20 }
  - { offset: 0x10D8E9, size: 0x8, addend: 0x0, symName: '__ZN71_$LT$skreaver_mcp..tasks..McpTaskStatus$u20$as$u20$core..fmt..Debug$GT$3fmt17hec1587d7a1b15e81E', symObjAddr: 0xC30, symBinAddr: 0x2DE14, symSize: 0x28 }
  - { offset: 0x10D9DD, size: 0x8, addend: 0x0, symName: '__ZN79_$LT$skreaver_mcp..adapter..McpToolDefinition$u20$as$u20$core..clone..Clone$GT$5clone17h6180a5543e0ed02bE', symObjAddr: 0xC58, symBinAddr: 0x2DE3C, symSize: 0x2EC }
  - { offset: 0x10E0CB, size: 0x8, addend: 0x0, symName: __ZN4pyo310exceptions12PyValueError7new_err17h33c095f7ec001393E, symObjAddr: 0x270, symBinAddr: 0x2D454, symSize: 0xE0 }
  - { offset: 0x10EEC9, size: 0x8, addend: 0x0, symName: __ZN9_skreaver3mcp15PyMcpTaskStatus20__pymethod_Working__17h1ee7771a8c4039dbE, symObjAddr: 0x1D50, symBinAddr: 0x2EE68, symSize: 0x84 }
  - { offset: 0x10EFAB, size: 0x8, addend: 0x0, symName: __ZN9_skreaver3mcp15PyMcpTaskStatus26__pymethod_InputRequired__17h3492226705c4bb15E, symObjAddr: 0x1DD4, symBinAddr: 0x2EEEC, symSize: 0x84 }
  - { offset: 0x10F08D, size: 0x8, addend: 0x0, symName: __ZN9_skreaver3mcp15PyMcpTaskStatus22__pymethod_Completed__17hc5944f17380b0696E, symObjAddr: 0x1E58, symBinAddr: 0x2EF70, symSize: 0x84 }
  - { offset: 0x10F16F, size: 0x8, addend: 0x0, symName: __ZN9_skreaver3mcp15PyMcpTaskStatus19__pymethod_Failed__17h8a2bf1ef1f6764a5E, symObjAddr: 0x1EDC, symBinAddr: 0x2EFF4, symSize: 0x84 }
  - { offset: 0x10F251, size: 0x8, addend: 0x0, symName: __ZN9_skreaver3mcp15PyMcpTaskStatus22__pymethod_Cancelled__17hb389703a8e22969fE, symObjAddr: 0x1F60, symBinAddr: 0x2F078, symSize: 0x84 }
  - { offset: 0x10F3BE, size: 0x8, addend: 0x0, symName: __ZN9_skreaver3mcp15PyMcpTaskStatus39__pymethod___default___pyo3__repr______17h1f828f8fbe2780dbE, symObjAddr: 0x1FE4, symBinAddr: 0x2F0FC, symSize: 0x120 }
  - { offset: 0x10F80D, size: 0x8, addend: 0x0, symName: __ZN9_skreaver3mcp15PyMcpTaskStatus24__pymethod_is_terminal__17hb7e6d46107b20a0dE, symObjAddr: 0x2164, symBinAddr: 0x2F27C, symSize: 0x11C }
  - { offset: 0x10FBA2, size: 0x8, addend: 0x0, symName: __ZN9_skreaver3mcp15PyMcpTaskStatus21__pymethod___repr____17h2e5529fee22a6613E, symObjAddr: 0x2280, symBinAddr: 0x2F398, symSize: 0x398 }
  - { offset: 0x110EDF, size: 0x8, addend: 0x0, symName: __ZN9_skreaver3mcp15PyMcpTaskStatus20__pymethod___str____17h565c4c3c1778b0afE, symObjAddr: 0x2618, symBinAddr: 0x2F730, symSize: 0x3A0 }
  - { offset: 0x1122DD, size: 0x8, addend: 0x0, symName: __ZN9_skreaver3mcp9PyMcpTask20__pymethod___new____17hdf3ee5c780000418E, symObjAddr: 0x2B24, symBinAddr: 0x2FB70, symSize: 0x394 }
  - { offset: 0x1128D7, size: 0x8, addend: 0x0, symName: __ZN9_skreaver3mcp9PyMcpTask24__pymethod_get_task_id__17h717cd34579be77bcE, symObjAddr: 0x2EB8, symBinAddr: 0x2FF04, symSize: 0x124 }
  - { offset: 0x112CE2, size: 0x8, addend: 0x0, symName: __ZN9_skreaver3mcp9PyMcpTask23__pymethod_get_status__17hd58986391bba7e39E, symObjAddr: 0x2FDC, symBinAddr: 0x30028, symSize: 0x168 }
  - { offset: 0x1130CF, size: 0x8, addend: 0x0, symName: __ZN9_skreaver3mcp9PyMcpTask31__pymethod_get_status_message__17h8c155b09b78f8ebdE, symObjAddr: 0x3144, symBinAddr: 0x30190, symSize: 0x174 }
  - { offset: 0x113503, size: 0x8, addend: 0x0, symName: __ZN9_skreaver3mcp9PyMcpTask27__pymethod_get_created_at__17h5131f9b82f8edae2E, symObjAddr: 0x32B8, symBinAddr: 0x30304, symSize: 0x118 }
  - { offset: 0x113863, size: 0x8, addend: 0x0, symName: __ZN9_skreaver3mcp9PyMcpTask32__pymethod_get_last_updated_at__17h85c3a57a0dbee079E, symObjAddr: 0x33D0, symBinAddr: 0x3041C, symSize: 0x174 }
  - { offset: 0x113CB0, size: 0x8, addend: 0x0, symName: __ZN9_skreaver3mcp9PyMcpTask20__pymethod_get_ttl__17hd0eae235c482cf1bE, symObjAddr: 0x3544, symBinAddr: 0x30590, symSize: 0x128 }
  - { offset: 0x114092, size: 0x8, addend: 0x0, symName: __ZN9_skreaver3mcp9PyMcpTask30__pymethod_get_poll_interval__17h4a1f996ac83d4ce0E, symObjAddr: 0x366C, symBinAddr: 0x306B8, symSize: 0x128 }
  - { offset: 0x1145A2, size: 0x8, addend: 0x0, symName: __ZN9_skreaver3mcp9PyMcpTask23__pymethod_get_result__17h3b718e284a884883E, symObjAddr: 0x3794, symBinAddr: 0x307E0, symSize: 0x288 }
  - { offset: 0x114B0E, size: 0x8, addend: 0x0, symName: __ZN9_skreaver3mcp9PyMcpTask24__pymethod_is_terminal__17h6f5def14278d6332E, symObjAddr: 0x3A1C, symBinAddr: 0x30A68, symSize: 0x128 }
  - { offset: 0x114F1D, size: 0x8, addend: 0x0, symName: __ZN9_skreaver3mcp9PyMcpTask23__pymethod_is_expired__17h384dece1f9a6e7d0E, symObjAddr: 0x3B44, symBinAddr: 0x30B90, symSize: 0x128 }
  - { offset: 0x1155F5, size: 0x8, addend: 0x0, symName: __ZN9_skreaver3mcp9PyMcpTask20__pymethod_to_dict__17h10b088100f3a7001E, symObjAddr: 0x3C6C, symBinAddr: 0x30CB8, symSize: 0x414 }
  - { offset: 0x115D42, size: 0x8, addend: 0x0, symName: __ZN9_skreaver3mcp9PyMcpTask21__pymethod___repr____17habb445c3d7b70b46E, symObjAddr: 0x4080, symBinAddr: 0x310CC, symSize: 0x158 }
  - { offset: 0x1160DE, size: 0x8, addend: 0x0, symName: __ZN9_skreaver3mcp20PyMcpToolAnnotations20__pymethod___new____17h2b3f8dbd10509080E, symObjAddr: 0x43B0, symBinAddr: 0x31304, symSize: 0xF4 }
  - { offset: 0x116369, size: 0x8, addend: 0x0, symName: __ZN9_skreaver3mcp20PyMcpToolAnnotations31__pymethod_get_read_only_hint__17h730721c4c87725cfE, symObjAddr: 0x44A4, symBinAddr: 0x313F8, symSize: 0x138 }
  - { offset: 0x11685A, size: 0x8, addend: 0x0, symName: __ZN9_skreaver3mcp20PyMcpToolAnnotations27__pymethod_with_read_only__17hb30930c515733306E, symObjAddr: 0x45DC, symBinAddr: 0x31530, symSize: 0x340 }
  - { offset: 0x116EF9, size: 0x8, addend: 0x0, symName: __ZN9_skreaver3mcp20PyMcpToolAnnotations33__pymethod_get_destructive_hint__17h4dcda16d98f4abe2E, symObjAddr: 0x491C, symBinAddr: 0x31870, symSize: 0x138 }
  - { offset: 0x11733A, size: 0x8, addend: 0x0, symName: __ZN9_skreaver3mcp20PyMcpToolAnnotations29__pymethod_with_destructive__17hb41c10381b177451E, symObjAddr: 0x4A54, symBinAddr: 0x319A8, symSize: 0x34C }
  - { offset: 0x1179C9, size: 0x8, addend: 0x0, symName: __ZN9_skreaver3mcp20PyMcpToolAnnotations32__pymethod_get_idempotent_hint__17h24f1d200e314c6acE, symObjAddr: 0x4DA0, symBinAddr: 0x31CF4, symSize: 0x138 }
  - { offset: 0x117E0A, size: 0x8, addend: 0x0, symName: __ZN9_skreaver3mcp20PyMcpToolAnnotations28__pymethod_with_idempotent__17hf1cbde840f020265E, symObjAddr: 0x4ED8, symBinAddr: 0x31E2C, symSize: 0x34C }
  - { offset: 0x118499, size: 0x8, addend: 0x0, symName: __ZN9_skreaver3mcp20PyMcpToolAnnotations32__pymethod_get_open_world_hint__17h36392328dc9fd45bE, symObjAddr: 0x5224, symBinAddr: 0x32178, symSize: 0x138 }
  - { offset: 0x1188DA, size: 0x8, addend: 0x0, symName: __ZN9_skreaver3mcp20PyMcpToolAnnotations28__pymethod_with_open_world__17he7d8eec736b97d90E, symObjAddr: 0x535C, symBinAddr: 0x322B0, symSize: 0x34C }
  - { offset: 0x11905F, size: 0x8, addend: 0x0, symName: __ZN9_skreaver3mcp20PyMcpToolAnnotations20__pymethod_to_dict__17ha313de5f0ddbcfe0E, symObjAddr: 0x56A8, symBinAddr: 0x325FC, symSize: 0x414 }
  - { offset: 0x1197C7, size: 0x8, addend: 0x0, symName: __ZN9_skreaver3mcp20PyMcpToolAnnotations21__pymethod___repr____17hc79c17e3def53c4aE, symObjAddr: 0x5ABC, symBinAddr: 0x32A10, symSize: 0x15C }
  - { offset: 0x119CE8, size: 0x8, addend: 0x0, symName: __ZN9_skreaver3mcp19PyMcpToolDefinition20__pymethod___new____17h8ff9ebf1329fc750E, symObjAddr: 0x5DC4, symBinAddr: 0x32C4C, symSize: 0xBC4 }
  - { offset: 0x11BAE5, size: 0x8, addend: 0x0, symName: __ZN9_skreaver3mcp19PyMcpToolDefinition21__pymethod_get_name__17h2bf73513406451f5E, symObjAddr: 0x6988, symBinAddr: 0x33810, symSize: 0x120 }
  - { offset: 0x11BE0D, size: 0x8, addend: 0x0, symName: __ZN9_skreaver3mcp19PyMcpToolDefinition22__pymethod_get_title__17h1f593daf9b3aa90eE, symObjAddr: 0x6AA8, symBinAddr: 0x33930, symSize: 0x174 }
  - { offset: 0x11C31E, size: 0x8, addend: 0x0, symName: __ZN9_skreaver3mcp19PyMcpToolDefinition23__pymethod_with_title__17hd3817878b895035fE, symObjAddr: 0x6C1C, symBinAddr: 0x33AA4, symSize: 0x45C }
  - { offset: 0x11CCC2, size: 0x8, addend: 0x0, symName: __ZN9_skreaver3mcp19PyMcpToolDefinition28__pymethod_get_description__17h36d597e683608cf4E, symObjAddr: 0x7078, symBinAddr: 0x33F00, symSize: 0x124 }
  - { offset: 0x11D062, size: 0x8, addend: 0x0, symName: __ZN9_skreaver3mcp19PyMcpToolDefinition29__pymethod_get_input_schema__17he59ab4141aa8ec7cE, symObjAddr: 0x719C, symBinAddr: 0x34024, symSize: 0x228 }
  - { offset: 0x11D581, size: 0x8, addend: 0x0, symName: __ZN9_skreaver3mcp19PyMcpToolDefinition30__pymethod_get_output_schema__17h2159c68c334f965bE, symObjAddr: 0x73C4, symBinAddr: 0x3424C, symSize: 0x288 }
  - { offset: 0x11DC0B, size: 0x8, addend: 0x0, symName: __ZN9_skreaver3mcp19PyMcpToolDefinition31__pymethod_with_output_schema__17h6fb9cf4421221fdfE, symObjAddr: 0x764C, symBinAddr: 0x344D4, symSize: 0x668 }
  - { offset: 0x11E6DA, size: 0x8, addend: 0x0, symName: __ZN9_skreaver3mcp19PyMcpToolDefinition28__pymethod_get_annotations__17h05695a3a40863016E, symObjAddr: 0x7CB4, symBinAddr: 0x34B3C, symSize: 0x1FC }
  - { offset: 0x11ECA4, size: 0x8, addend: 0x0, symName: __ZN9_skreaver3mcp19PyMcpToolDefinition29__pymethod_with_annotations__17h98679422a998a515E, symObjAddr: 0x7EB0, symBinAddr: 0x34D38, symSize: 0x360 }
  - { offset: 0x11F48F, size: 0x8, addend: 0x0, symName: __ZN9_skreaver3mcp19PyMcpToolDefinition20__pymethod_to_dict__17h8b1f6ee95d01da99E, symObjAddr: 0x8210, symBinAddr: 0x35098, symSize: 0x414 }
  - { offset: 0x11FC7E, size: 0x8, addend: 0x0, symName: __ZN9_skreaver3mcp19PyMcpToolDefinition22__pymethod_from_dict__17hd1ca7f70d9ba7e8dE, symObjAddr: 0x8624, symBinAddr: 0x354AC, symSize: 0x5E0 }
  - { offset: 0x1205F3, size: 0x8, addend: 0x0, symName: __ZN9_skreaver3mcp19PyMcpToolDefinition21__pymethod___repr____17h225569d5677b17c3E, symObjAddr: 0x8C04, symBinAddr: 0x35A8C, symSize: 0x14C }
  - { offset: 0x1249DD, size: 0x8, addend: 0x0, symName: '__ZN102_$LT$tokio..task..task_local..TaskLocalFuture$LT$T$C$F$GT$$u20$as$u20$core..future..future..Future$GT$4poll17h0864efd19a999fceE', symObjAddr: 0x0, symBinAddr: 0x35BD8, symSize: 0x304 }
  - { offset: 0x12B3E0, size: 0x8, addend: 0x0, symName: '__ZN4core3ptr127drop_in_place$LT$core..task..poll..Poll$LT$core..result..Result$LT$_skreaver..a2a..types..PyTask$C$pyo3..err..PyErr$GT$$GT$$GT$17h036acf7212e863b2E', symObjAddr: 0x1490, symBinAddr: 0x37068, symSize: 0x74 }
  - { offset: 0x12B493, size: 0x8, addend: 0x0, symName: '__ZN4core3ptr132drop_in_place$LT$core..task..poll..Poll$LT$core..result..Result$LT$_skreaver..a2a..types..PyAgentCard$C$pyo3..err..PyErr$GT$$GT$$GT$17hd420ed4fd72b4030E', symObjAddr: 0x1504, symBinAddr: 0x370DC, symSize: 0x74 }
  - { offset: 0x12B546, size: 0x8, addend: 0x0, symName: '__ZN4core3ptr155drop_in_place$LT$core..option..Option$LT$core..task..poll..Poll$LT$core..result..Result$LT$_skreaver..a2a..types..PyTask$C$pyo3..err..PyErr$GT$$GT$$GT$$GT$17hc2f7837eb6283467E', symObjAddr: 0x1578, symBinAddr: 0x37150, symSize: 0x78 }
  - { offset: 0x12B622, size: 0x8, addend: 0x0, symName: '__ZN4core3ptr160drop_in_place$LT$core..option..Option$LT$core..task..poll..Poll$LT$core..result..Result$LT$_skreaver..a2a..types..PyAgentCard$C$pyo3..err..PyErr$GT$$GT$$GT$$GT$17ha0193991b512dac6E', symObjAddr: 0x15F0, symBinAddr: 0x371C8, symSize: 0x78 }
  - { offset: 0x132BB4, size: 0x8, addend: 0x0, symName: '__ZN102_$LT$tokio..task..task_local..TaskLocalFuture$LT$T$C$F$GT$$u20$as$u20$core..future..future..Future$GT$4poll17h0864efd19a999fceE', symObjAddr: 0x0, symBinAddr: 0x35BD8, symSize: 0x304 }
  - { offset: 0x13324E, size: 0x8, addend: 0x0, symName: '__ZN102_$LT$tokio..task..task_local..TaskLocalFuture$LT$T$C$F$GT$$u20$as$u20$core..future..future..Future$GT$4poll17h6d3ab51af0b46677E', symObjAddr: 0x304, symBinAddr: 0x35EDC, symSize: 0x304 }
  - { offset: 0x1338E8, size: 0x8, addend: 0x0, symName: '__ZN102_$LT$tokio..task..task_local..TaskLocalFuture$LT$T$C$F$GT$$u20$as$u20$core..future..future..Future$GT$4poll17h703faea5cce95c29E', symObjAddr: 0x608, symBinAddr: 0x361E0, symSize: 0x304 }
  - { offset: 0x133F82, size: 0x8, addend: 0x0, symName: '__ZN102_$LT$tokio..task..task_local..TaskLocalFuture$LT$T$C$F$GT$$u20$as$u20$core..future..future..Future$GT$4poll17h85c36b416fb0ae0cE', symObjAddr: 0x90C, symBinAddr: 0x364E4, symSize: 0x304 }
  - { offset: 0x13461C, size: 0x8, addend: 0x0, symName: '__ZN102_$LT$tokio..task..task_local..TaskLocalFuture$LT$T$C$F$GT$$u20$as$u20$core..future..future..Future$GT$4poll17ha0ca321454f27ed8E', symObjAddr: 0xC10, symBinAddr: 0x367E8, symSize: 0x304 }
  - { offset: 0x134CB6, size: 0x8, addend: 0x0, symName: '__ZN102_$LT$tokio..task..task_local..TaskLocalFuture$LT$T$C$F$GT$$u20$as$u20$core..future..future..Future$GT$4poll17he0d53966045cbc11E', symObjAddr: 0xF14, symBinAddr: 0x36AEC, symSize: 0x278 }
  - { offset: 0x135350, size: 0x8, addend: 0x0, symName: '__ZN102_$LT$tokio..task..task_local..TaskLocalFuture$LT$T$C$F$GT$$u20$as$u20$core..future..future..Future$GT$4poll17hf600d2288131f764E', symObjAddr: 0x118C, symBinAddr: 0x36D64, symSize: 0x304 }
  - { offset: 0x135E43, size: 0x8, addend: 0x0, symName: '__ZN5tokio4task10task_local1_105_$LT$impl$u20$core..ops..drop..Drop$u20$for$u20$tokio..task..task_local..TaskLocalFuture$LT$T$C$F$GT$$GT$4drop12__drop_inner17h4038bf5655600b69E', symObjAddr: 0x1668, symBinAddr: 0x37240, symSize: 0x168 }
  - { offset: 0x136420, size: 0x8, addend: 0x0, symName: '__ZN5tokio4task10task_local1_105_$LT$impl$u20$core..ops..drop..Drop$u20$for$u20$tokio..task..task_local..TaskLocalFuture$LT$T$C$F$GT$$GT$4drop12__drop_inner17h6bb40fca223bbb24E', symObjAddr: 0x17D0, symBinAddr: 0x373A8, symSize: 0x168 }
  - { offset: 0x1369FD, size: 0x8, addend: 0x0, symName: '__ZN5tokio4task10task_local1_105_$LT$impl$u20$core..ops..drop..Drop$u20$for$u20$tokio..task..task_local..TaskLocalFuture$LT$T$C$F$GT$$GT$4drop12__drop_inner17h7ccab88f98a5c8b9E', symObjAddr: 0x1938, symBinAddr: 0x37510, symSize: 0x168 }
  - { offset: 0x136FDA, size: 0x8, addend: 0x0, symName: '__ZN5tokio4task10task_local1_105_$LT$impl$u20$core..ops..drop..Drop$u20$for$u20$tokio..task..task_local..TaskLocalFuture$LT$T$C$F$GT$$GT$4drop12__drop_inner17h8005b6ccc65e3fddE', symObjAddr: 0x1AA0, symBinAddr: 0x37678, symSize: 0x168 }
  - { offset: 0x1375B7, size: 0x8, addend: 0x0, symName: '__ZN5tokio4task10task_local1_105_$LT$impl$u20$core..ops..drop..Drop$u20$for$u20$tokio..task..task_local..TaskLocalFuture$LT$T$C$F$GT$$GT$4drop12__drop_inner17he56538ed08817e5aE', symObjAddr: 0x1C08, symBinAddr: 0x377E0, symSize: 0x168 }
  - { offset: 0x137B94, size: 0x8, addend: 0x0, symName: '__ZN5tokio4task10task_local1_105_$LT$impl$u20$core..ops..drop..Drop$u20$for$u20$tokio..task..task_local..TaskLocalFuture$LT$T$C$F$GT$$GT$4drop12__drop_inner17hf4a85deb50a9ed3eE', symObjAddr: 0x1D70, symBinAddr: 0x37948, symSize: 0x168 }
  - { offset: 0x138171, size: 0x8, addend: 0x0, symName: '__ZN5tokio4task10task_local1_105_$LT$impl$u20$core..ops..drop..Drop$u20$for$u20$tokio..task..task_local..TaskLocalFuture$LT$T$C$F$GT$$GT$4drop12__drop_inner17hfd695e171cf00cbdE', symObjAddr: 0x1ED8, symBinAddr: 0x37AB0, symSize: 0x168 }
  - { offset: 0x142EC9, size: 0x8, addend: 0x0, symName: __ZN4pyo35impl_16extract_argument16extract_argument17h6e99876f28ad29edE, symObjAddr: 0x2F8, symBinAddr: 0x37C18, symSize: 0x10C }
  - { offset: 0x1430D3, size: 0x8, addend: 0x0, symName: __ZN4pyo35impl_16extract_argument16extract_argument17h858ec2377f90cf3bE, symObjAddr: 0x404, symBinAddr: 0x37D24, symSize: 0x138 }
  - { offset: 0x14331A, size: 0x8, addend: 0x0, symName: __ZN4pyo35impl_16extract_argument16extract_argument17h89fed6e97357cba3E, symObjAddr: 0x53C, symBinAddr: 0x37E5C, symSize: 0x10C }
  - { offset: 0x14353E, size: 0x8, addend: 0x0, symName: __ZN4pyo35impl_16extract_argument16extract_argument17hf8021a9abc77f371E, symObjAddr: 0x774, symBinAddr: 0x37F68, symSize: 0x10C }
  - { offset: 0x143761, size: 0x8, addend: 0x0, symName: __ZN4pyo35impl_16extract_argument16extract_argument17hf829db29a77eda7cE, symObjAddr: 0x880, symBinAddr: 0x38074, symSize: 0x10C }
  - { offset: 0x1477BF, size: 0x8, addend: 0x0, symName: '__ZN12skreaver_mcp5tasks1_85_$LT$impl$u20$serde_core..ser..Serialize$u20$for$u20$skreaver_mcp..tasks..McpTask$GT$9serialize17ha20bb34a423f9b24E', symObjAddr: 0x0, symBinAddr: 0x38180, symSize: 0x260 }
  - { offset: 0x147A6F, size: 0x8, addend: 0x0, symName: '__ZN12skreaver_mcp5tasks1_85_$LT$impl$u20$serde_core..ser..Serialize$u20$for$u20$skreaver_mcp..tasks..McpTask$GT$9serialize17ha20bb34a423f9b24E', symObjAddr: 0x0, symBinAddr: 0x38180, symSize: 0x260 }
  - { offset: 0x147C83, size: 0x8, addend: 0x0, symName: '__ZN12skreaver_mcp5tasks1_91_$LT$impl$u20$serde_core..ser..Serialize$u20$for$u20$skreaver_mcp..tasks..McpTaskStatus$GT$9serialize17ha3d449bcc3be4af0E', symObjAddr: 0x260, symBinAddr: 0x383E0, symSize: 0x2BC }
  - { offset: 0x148C1B, size: 0x8, addend: 0x0, symName: '__ZN12skreaver_mcp5tasks1_91_$LT$impl$u20$serde_core..ser..Serialize$u20$for$u20$skreaver_mcp..tasks..McpTaskStatus$GT$9serialize17hf1f09e3671836a36E', symObjAddr: 0x51C, symBinAddr: 0x3869C, symSize: 0xA0 }
  - { offset: 0x149196, size: 0x8, addend: 0x0, symName: '__ZN4core3ptr57drop_in_place$LT$serde_json..value..ser..SerializeMap$GT$17ha8e1ad11403c96aeE', symObjAddr: 0x774, symBinAddr: 0x388F4, symSize: 0xD4 }
  - { offset: 0x14AF81, size: 0x8, addend: 0x0, symName: __ZN12skreaver_mcp5tasks7McpTask3new17h9d27334778becfb6E, symObjAddr: 0x5BC, symBinAddr: 0x3873C, symSize: 0x1B8 }
  - { offset: 0x14B330, size: 0x8, addend: 0x0, symName: '__ZN101_$LT$pyo3_async_runtimes..tokio..TokioRuntime$u20$as$u20$pyo3_async_runtimes..generic..ContextExt$GT$5scope17h04ad6672dd6fd271E', symObjAddr: 0x0, symBinAddr: 0x389C8, symSize: 0x108 }
  - { offset: 0x14B704, size: 0x8, addend: 0x0, symName: '__ZN102_$LT$tokio..task..task_local..TaskLocalFuture$LT$T$C$F$GT$$u20$as$u20$core..future..future..Future$GT$34poll$u7b$$u7b$reify.shim$u7d$$u7d$17h342673f6833b7f75E', symObjAddr: 0x738, symBinAddr: 0x39100, symSize: 0xC }
  - { offset: 0x14B74A, size: 0x8, addend: 0x0, symName: '__ZN102_$LT$tokio..task..task_local..TaskLocalFuture$LT$T$C$F$GT$$u20$as$u20$core..future..future..Future$GT$34poll$u7b$$u7b$reify.shim$u7d$$u7d$17h41e16056ca15c9b1E', symObjAddr: 0x744, symBinAddr: 0x3910C, symSize: 0xC }
  - { offset: 0x14B790, size: 0x8, addend: 0x0, symName: '__ZN102_$LT$tokio..task..task_local..TaskLocalFuture$LT$T$C$F$GT$$u20$as$u20$core..future..future..Future$GT$34poll$u7b$$u7b$reify.shim$u7d$$u7d$17h63241513222c64ceE', symObjAddr: 0x750, symBinAddr: 0x39118, symSize: 0xC }
  - { offset: 0x14B7D6, size: 0x8, addend: 0x0, symName: '__ZN102_$LT$tokio..task..task_local..TaskLocalFuture$LT$T$C$F$GT$$u20$as$u20$core..future..future..Future$GT$34poll$u7b$$u7b$reify.shim$u7d$$u7d$17h92ef5a83de597c83E', symObjAddr: 0x75C, symBinAddr: 0x39124, symSize: 0xC }
  - { offset: 0x14B81C, size: 0x8, addend: 0x0, symName: '__ZN102_$LT$tokio..task..task_local..TaskLocalFuture$LT$T$C$F$GT$$u20$as$u20$core..future..future..Future$GT$34poll$u7b$$u7b$reify.shim$u7d$$u7d$17haf81f851b99c8c56E', symObjAddr: 0x768, symBinAddr: 0x39130, symSize: 0xC }
  - { offset: 0x14B862, size: 0x8, addend: 0x0, symName: '__ZN102_$LT$tokio..task..task_local..TaskLocalFuture$LT$T$C$F$GT$$u20$as$u20$core..future..future..Future$GT$34poll$u7b$$u7b$reify.shim$u7d$$u7d$17hbfb2e9ba733934b6E', symObjAddr: 0x774, symBinAddr: 0x3913C, symSize: 0xC }
  - { offset: 0x14B8A8, size: 0x8, addend: 0x0, symName: '__ZN102_$LT$tokio..task..task_local..TaskLocalFuture$LT$T$C$F$GT$$u20$as$u20$core..future..future..Future$GT$34poll$u7b$$u7b$reify.shim$u7d$$u7d$17hd3df06cc9e53b883E', symObjAddr: 0x780, symBinAddr: 0x39148, symSize: 0xC }
  - { offset: 0x14EDBC, size: 0x8, addend: 0x0, symName: '__ZN101_$LT$pyo3_async_runtimes..tokio..TokioRuntime$u20$as$u20$pyo3_async_runtimes..generic..ContextExt$GT$5scope17h04ad6672dd6fd271E', symObjAddr: 0x0, symBinAddr: 0x389C8, symSize: 0x108 }
  - { offset: 0x14EF74, size: 0x8, addend: 0x0, symName: '__ZN101_$LT$pyo3_async_runtimes..tokio..TokioRuntime$u20$as$u20$pyo3_async_runtimes..generic..ContextExt$GT$5scope17h0d4f2c6808ab089aE', symObjAddr: 0x108, symBinAddr: 0x38AD0, symSize: 0x108 }
  - { offset: 0x14F12C, size: 0x8, addend: 0x0, symName: '__ZN101_$LT$pyo3_async_runtimes..tokio..TokioRuntime$u20$as$u20$pyo3_async_runtimes..generic..ContextExt$GT$5scope17h71466ce8b8248f57E', symObjAddr: 0x210, symBinAddr: 0x38BD8, symSize: 0x108 }
  - { offset: 0x14F2E4, size: 0x8, addend: 0x0, symName: '__ZN101_$LT$pyo3_async_runtimes..tokio..TokioRuntime$u20$as$u20$pyo3_async_runtimes..generic..ContextExt$GT$5scope17h85acce538d0c91baE', symObjAddr: 0x318, symBinAddr: 0x38CE0, symSize: 0x108 }
  - { offset: 0x14F49C, size: 0x8, addend: 0x0, symName: '__ZN101_$LT$pyo3_async_runtimes..tokio..TokioRuntime$u20$as$u20$pyo3_async_runtimes..generic..ContextExt$GT$5scope17h9579e032a29cb766E', symObjAddr: 0x420, symBinAddr: 0x38DE8, symSize: 0x108 }
  - { offset: 0x14F654, size: 0x8, addend: 0x0, symName: '__ZN101_$LT$pyo3_async_runtimes..tokio..TokioRuntime$u20$as$u20$pyo3_async_runtimes..generic..ContextExt$GT$5scope17ha321a9df502242d0E', symObjAddr: 0x528, symBinAddr: 0x38EF0, symSize: 0x108 }
  - { offset: 0x14F80C, size: 0x8, addend: 0x0, symName: '__ZN101_$LT$pyo3_async_runtimes..tokio..TokioRuntime$u20$as$u20$pyo3_async_runtimes..generic..ContextExt$GT$5scope17hf9d952a9eabd7b14E', symObjAddr: 0x630, symBinAddr: 0x38FF8, symSize: 0x108 }
  - { offset: 0x153A9E, size: 0x8, addend: 0x0, symName: '__ZN4core3ptr100drop_in_place$LT$_skreaver..a2a..client..PyA2aClient..continue_task..$u7b$$u7b$closure$u7d$$u7d$$GT$17hb8bd7c48dfea49e7E', symObjAddr: 0x7A8, symBinAddr: 0x39154, symSize: 0xDC }
  - { offset: 0x153E0A, size: 0x8, addend: 0x0, symName: '__ZN4core3ptr100drop_in_place$LT$_skreaver..a2a..client..PyA2aClient..wait_for_task..$u7b$$u7b$closure$u7d$$u7d$$GT$17h42c76a5ad820f21bE', symObjAddr: 0x884, symBinAddr: 0x39230, symSize: 0x134 }
  - { offset: 0x15419C, size: 0x8, addend: 0x0, symName: '__ZN4core3ptr101drop_in_place$LT$_skreaver..a2a..client..PyA2aClient..get_agent_card..$u7b$$u7b$closure$u7d$$u7d$$GT$17hb30f2347b02d9a8fE', symObjAddr: 0x9B8, symBinAddr: 0x39364, symSize: 0x110 }
  - { offset: 0x15435C, size: 0x8, addend: 0x0, symName: '__ZN4core3ptr104drop_in_place$LT$skreaver_a2a..client..A2aClient..handle_error_response..$u7b$$u7b$closure$u7d$$u7d$$GT$17h478d008dde96428eE', symObjAddr: 0xAC8, symBinAddr: 0x39474, symSize: 0xF4 }
  - { offset: 0x15442C, size: 0x8, addend: 0x0, symName: '__ZN4core3ptr134drop_in_place$LT$reqwest..async_impl..response..Response..json$LT$skreaver_a2a..types..task..Task$GT$..$u7b$$u7b$closure$u7d$$u7d$$GT$17h9f7823f99a0e2560E', symObjAddr: 0xBBC, symBinAddr: 0x39568, symSize: 0x80 }
  - { offset: 0x15448A, size: 0x8, addend: 0x0, symName: '__ZN4core3ptr259drop_in_place$LT$pyo3_async_runtimes..generic..future_into_py_with_locals$LT$pyo3_async_runtimes..tokio..TokioRuntime$C$_skreaver..a2a..client..PyA2aClient..send..$u7b$$u7b$closure$u7d$$u7d$$C$_skreaver..a2a..types..PyTask$GT$..$u7b$$u7b$closure$u7d$$u7d$$GT$17h1532463bb5a15777E', symObjAddr: 0xC3C, symBinAddr: 0x395E8, symSize: 0x1C4 }
  - { offset: 0x15479C, size: 0x8, addend: 0x0, symName: '__ZN4core3ptr263drop_in_place$LT$pyo3_async_runtimes..generic..future_into_py_with_locals$LT$pyo3_async_runtimes..tokio..TokioRuntime$C$_skreaver..a2a..client..PyA2aClient..get_task..$u7b$$u7b$closure$u7d$$u7d$$C$_skreaver..a2a..types..PyTask$GT$..$u7b$$u7b$closure$u7d$$u7d$$GT$17h459068b4cf290653E', symObjAddr: 0xE00, symBinAddr: 0x397AC, symSize: 0x1C4 }
  - { offset: 0x154AAE, size: 0x8, addend: 0x0, symName: '__ZN4core3ptr266drop_in_place$LT$pyo3_async_runtimes..generic..future_into_py_with_locals$LT$pyo3_async_runtimes..tokio..TokioRuntime$C$_skreaver..a2a..client..PyA2aClient..cancel_task..$u7b$$u7b$closure$u7d$$u7d$$C$_skreaver..a2a..types..PyTask$GT$..$u7b$$u7b$closure$u7d$$u7d$$GT$17h4f23fba6d1940a5fE', symObjAddr: 0xFC4, symBinAddr: 0x39970, symSize: 0x1C4 }
  - { offset: 0x154DC0, size: 0x8, addend: 0x0, symName: '__ZN4core3ptr267drop_in_place$LT$pyo3_async_runtimes..generic..future_into_py_with_locals$LT$pyo3_async_runtimes..tokio..TokioRuntime$C$_skreaver..a2a..client..PyA2aClient..send_message..$u7b$$u7b$closure$u7d$$u7d$$C$_skreaver..a2a..types..PyTask$GT$..$u7b$$u7b$closure$u7d$$u7d$$GT$17hc4400d43b0c04680E', symObjAddr: 0x1188, symBinAddr: 0x39B34, symSize: 0x1C4 }
  - { offset: 0x1550A2, size: 0x8, addend: 0x0, symName: '__ZN4core3ptr268drop_in_place$LT$pyo3_async_runtimes..generic..future_into_py_with_locals$LT$pyo3_async_runtimes..tokio..TokioRuntime$C$_skreaver..a2a..client..PyA2aClient..continue_task..$u7b$$u7b$closure$u7d$$u7d$$C$_skreaver..a2a..types..PyTask$GT$..$u7b$$u7b$closure$u7d$$u7d$$GT$17hcc95eab0dc351d4cE', symObjAddr: 0x134C, symBinAddr: 0x39CF8, symSize: 0x1C4 }
  - { offset: 0x155384, size: 0x8, addend: 0x0, symName: '__ZN4core3ptr268drop_in_place$LT$pyo3_async_runtimes..generic..future_into_py_with_locals$LT$pyo3_async_runtimes..tokio..TokioRuntime$C$_skreaver..a2a..client..PyA2aClient..wait_for_task..$u7b$$u7b$closure$u7d$$u7d$$C$_skreaver..a2a..types..PyTask$GT$..$u7b$$u7b$closure$u7d$$u7d$$GT$17h6308346499182bbbE', symObjAddr: 0x1510, symBinAddr: 0x39EBC, symSize: 0x1C4 }
  - { offset: 0x155666, size: 0x8, addend: 0x0, symName: '__ZN4core3ptr274drop_in_place$LT$pyo3_async_runtimes..generic..future_into_py_with_locals$LT$pyo3_async_runtimes..tokio..TokioRuntime$C$_skreaver..a2a..client..PyA2aClient..get_agent_card..$u7b$$u7b$closure$u7d$$u7d$$C$_skreaver..a2a..types..PyAgentCard$GT$..$u7b$$u7b$closure$u7d$$u7d$$GT$17h7bebb759383aba8aE', symObjAddr: 0x16D4, symBinAddr: 0x3A080, symSize: 0x1C4 }
  - { offset: 0x155948, size: 0x8, addend: 0x0, symName: '__ZN4core3ptr288drop_in_place$LT$pyo3_async_runtimes..generic..future_into_py_with_locals$LT$pyo3_async_runtimes..tokio..TokioRuntime$C$_skreaver..a2a..client..PyA2aClient..send..$u7b$$u7b$closure$u7d$$u7d$$C$_skreaver..a2a..types..PyTask$GT$..$u7b$$u7b$closure$u7d$$u7d$..$u7b$$u7b$closure$u7d$$u7d$$GT$17h8f9c8c59acc5c1dbE', symObjAddr: 0x1898, symBinAddr: 0x3A244, symSize: 0x19C }
  - { offset: 0x155BCB, size: 0x8, addend: 0x0, symName: '__ZN4core3ptr292drop_in_place$LT$pyo3_async_runtimes..generic..future_into_py_with_locals$LT$pyo3_async_runtimes..tokio..TokioRuntime$C$_skreaver..a2a..client..PyA2aClient..get_task..$u7b$$u7b$closure$u7d$$u7d$$C$_skreaver..a2a..types..PyTask$GT$..$u7b$$u7b$closure$u7d$$u7d$..$u7b$$u7b$closure$u7d$$u7d$$GT$17hd46fa6be90ba50f8E', symObjAddr: 0x1A34, symBinAddr: 0x3A3E0, symSize: 0x19C }
  - { offset: 0x155E4E, size: 0x8, addend: 0x0, symName: '__ZN4core3ptr295drop_in_place$LT$pyo3_async_runtimes..generic..future_into_py_with_locals$LT$pyo3_async_runtimes..tokio..TokioRuntime$C$_skreaver..a2a..client..PyA2aClient..cancel_task..$u7b$$u7b$closure$u7d$$u7d$$C$_skreaver..a2a..types..PyTask$GT$..$u7b$$u7b$closure$u7d$$u7d$..$u7b$$u7b$closure$u7d$$u7d$$GT$17h266345de04ab795bE', symObjAddr: 0x1BD0, symBinAddr: 0x3A57C, symSize: 0x19C }
  - { offset: 0x1560D1, size: 0x8, addend: 0x0, symName: '__ZN4core3ptr296drop_in_place$LT$pyo3_async_runtimes..generic..future_into_py_with_locals$LT$pyo3_async_runtimes..tokio..TokioRuntime$C$_skreaver..a2a..client..PyA2aClient..send_message..$u7b$$u7b$closure$u7d$$u7d$$C$_skreaver..a2a..types..PyTask$GT$..$u7b$$u7b$closure$u7d$$u7d$..$u7b$$u7b$closure$u7d$$u7d$$GT$17h24ce77fdca32ccfeE', symObjAddr: 0x1D6C, symBinAddr: 0x3A718, symSize: 0x19C }
  - { offset: 0x156354, size: 0x8, addend: 0x0, symName: '__ZN4core3ptr297drop_in_place$LT$pyo3_async_runtimes..generic..future_into_py_with_locals$LT$pyo3_async_runtimes..tokio..TokioRuntime$C$_skreaver..a2a..client..PyA2aClient..continue_task..$u7b$$u7b$closure$u7d$$u7d$$C$_skreaver..a2a..types..PyTask$GT$..$u7b$$u7b$closure$u7d$$u7d$..$u7b$$u7b$closure$u7d$$u7d$$GT$17h59942c36ded14b8fE', symObjAddr: 0x1F08, symBinAddr: 0x3A8B4, symSize: 0x19C }
  - { offset: 0x1565D7, size: 0x8, addend: 0x0, symName: '__ZN4core3ptr297drop_in_place$LT$pyo3_async_runtimes..generic..future_into_py_with_locals$LT$pyo3_async_runtimes..tokio..TokioRuntime$C$_skreaver..a2a..client..PyA2aClient..wait_for_task..$u7b$$u7b$closure$u7d$$u7d$$C$_skreaver..a2a..types..PyTask$GT$..$u7b$$u7b$closure$u7d$$u7d$..$u7b$$u7b$closure$u7d$$u7d$$GT$17h9e16a26a83c1f3daE', symObjAddr: 0x20A4, symBinAddr: 0x3AA50, symSize: 0x19C }
  - { offset: 0x15685A, size: 0x8, addend: 0x0, symName: '__ZN4core3ptr303drop_in_place$LT$pyo3_async_runtimes..generic..future_into_py_with_locals$LT$pyo3_async_runtimes..tokio..TokioRuntime$C$_skreaver..a2a..client..PyA2aClient..get_agent_card..$u7b$$u7b$closure$u7d$$u7d$$C$_skreaver..a2a..types..PyAgentCard$GT$..$u7b$$u7b$closure$u7d$$u7d$..$u7b$$u7b$closure$u7d$$u7d$$GT$17hf371855f60714ac5E', symObjAddr: 0x2240, symBinAddr: 0x3ABEC, symSize: 0x19C }
  - { offset: 0x156ADD, size: 0x8, addend: 0x0, symName: '__ZN4core3ptr54drop_in_place$LT$alloc..boxed..Box$LT$url..Url$GT$$GT$17h33c498e1cc9d028cE', symObjAddr: 0x23DC, symBinAddr: 0x3AD88, symSize: 0xA0 }
  - { offset: 0x156CD6, size: 0x8, addend: 0x0, symName: '__ZN4core3ptr87drop_in_place$LT$skreaver_a2a..client..A2aClient..send..$u7b$$u7b$closure$u7d$$u7d$$GT$17ha05d40302da99723E', symObjAddr: 0x247C, symBinAddr: 0x3AE28, symSize: 0x19C }
  - { offset: 0x156E7D, size: 0x8, addend: 0x0, symName: '__ZN4core3ptr91drop_in_place$LT$_skreaver..a2a..client..PyA2aClient..send..$u7b$$u7b$closure$u7d$$u7d$$GT$17h69f189449a5cc56cE', symObjAddr: 0x2618, symBinAddr: 0x3AFC4, symSize: 0xF0 }
  - { offset: 0x157107, size: 0x8, addend: 0x0, symName: '__ZN4core3ptr95drop_in_place$LT$_skreaver..a2a..client..PyA2aClient..get_task..$u7b$$u7b$closure$u7d$$u7d$$GT$17h3c20477a76cac2a8E', symObjAddr: 0x2708, symBinAddr: 0x3B0B4, symSize: 0xF8 }
  - { offset: 0x1573EF, size: 0x8, addend: 0x0, symName: '__ZN4core3ptr98drop_in_place$LT$_skreaver..a2a..client..PyA2aClient..cancel_task..$u7b$$u7b$closure$u7d$$u7d$$GT$17h5b978f7c36ac2cb8E', symObjAddr: 0x2800, symBinAddr: 0x3B1AC, symSize: 0x1E8 }
  - { offset: 0x157575, size: 0x8, addend: 0x0, symName: '__ZN4core3ptr99drop_in_place$LT$_skreaver..a2a..client..PyA2aClient..send_message..$u7b$$u7b$closure$u7d$$u7d$$GT$17h68c6c51163d5a323E', symObjAddr: 0x29E8, symBinAddr: 0x3B394, symSize: 0xA4 }
  - { offset: 0x15E8F2, size: 0x8, addend: 0x0, symName: '__ZN72_$LT$alloc..boxed..Box$LT$T$C$A$GT$$u20$as$u20$core..ops..drop..Drop$GT$4drop17h6627ab489a85c0d2E', symObjAddr: 0x2A8C, symBinAddr: 0x3B438, symSize: 0x80 }
  - { offset: 0x1669CB, size: 0x8, addend: 0x0, symName: '__ZN4core3ptr52drop_in_place$LT$skreaver_a2a..types..part..Part$GT$17hf9b162d6b29ec0fdE', symObjAddr: 0x22E0, symBinAddr: 0x3D790, symSize: 0x30 }
  - { offset: 0x1669FB, size: 0x8, addend: 0x0, symName: '__ZN4core3ptr68drop_in_place$LT$skreaver_a2a..types..agent_card..AgentInterface$GT$17h44a791b2011c156cE', symObjAddr: 0x2310, symBinAddr: 0x3D7C0, symSize: 0x8 }
  - { offset: 0x166A2B, size: 0x8, addend: 0x0, symName: '__ZN4core3ptr68drop_in_place$LT$skreaver_a2a..types..agent_card..SecurityScheme$GT$17he5e0c6875732cd23E', symObjAddr: 0x2318, symBinAddr: 0x3D7C8, symSize: 0x30 }
  - { offset: 0x168A2E, size: 0x8, addend: 0x0, symName: '__ZN182_$LT$serde_core..de..impls..$LT$impl$u20$serde_core..de..Deserialize$u20$for$u20$alloc..vec..Vec$LT$T$GT$$GT$..deserialize..VecVisitor$LT$T$GT$$u20$as$u20$serde_core..de..Visitor$GT$9visit_seq17h287afb076cc83f2dE', symObjAddr: 0x8, symBinAddr: 0x3B4B8, symSize: 0x2E8 }
  - { offset: 0x168EE4, size: 0x8, addend: 0x0, symName: '__ZN182_$LT$serde_core..de..impls..$LT$impl$u20$serde_core..de..Deserialize$u20$for$u20$alloc..vec..Vec$LT$T$GT$$GT$..deserialize..VecVisitor$LT$T$GT$$u20$as$u20$serde_core..de..Visitor$GT$9visit_seq17h2dd7594c3897132eE', symObjAddr: 0x2F0, symBinAddr: 0x3B7A0, symSize: 0x248 }
  - { offset: 0x16937A, size: 0x8, addend: 0x0, symName: '__ZN182_$LT$serde_core..de..impls..$LT$impl$u20$serde_core..de..Deserialize$u20$for$u20$alloc..vec..Vec$LT$T$GT$$GT$..deserialize..VecVisitor$LT$T$GT$$u20$as$u20$serde_core..de..Visitor$GT$9visit_seq17h3e9d5547356f0acaE', symObjAddr: 0x538, symBinAddr: 0x3B9E8, symSize: 0x2E0 }
  - { offset: 0x169813, size: 0x8, addend: 0x0, symName: '__ZN182_$LT$serde_core..de..impls..$LT$impl$u20$serde_core..de..Deserialize$u20$for$u20$alloc..vec..Vec$LT$T$GT$$GT$..deserialize..VecVisitor$LT$T$GT$$u20$as$u20$serde_core..de..Visitor$GT$9visit_seq17h7d964e161f0285e5E', symObjAddr: 0x818, symBinAddr: 0x3BCC8, symSize: 0x2A0 }
  - { offset: 0x169CC8, size: 0x8, addend: 0x0, symName: '__ZN182_$LT$serde_core..de..impls..$LT$impl$u20$serde_core..de..Deserialize$u20$for$u20$alloc..vec..Vec$LT$T$GT$$GT$..deserialize..VecVisitor$LT$T$GT$$u20$as$u20$serde_core..de..Visitor$GT$9visit_seq17h7e9a500404e6c4feE', symObjAddr: 0xAB8, symBinAddr: 0x3BF68, symSize: 0x194 }
  - { offset: 0x169F72, size: 0x8, addend: 0x0, symName: '__ZN182_$LT$serde_core..de..impls..$LT$impl$u20$serde_core..de..Deserialize$u20$for$u20$alloc..vec..Vec$LT$T$GT$$GT$..deserialize..VecVisitor$LT$T$GT$$u20$as$u20$serde_core..de..Visitor$GT$9visit_seq17h8869e6bb7071ed4eE', symObjAddr: 0xC4C, symBinAddr: 0x3C0FC, symSize: 0x244 }
  - { offset: 0x16A23A, size: 0x8, addend: 0x0, symName: '__ZN182_$LT$serde_core..de..impls..$LT$impl$u20$serde_core..de..Deserialize$u20$for$u20$alloc..vec..Vec$LT$T$GT$$GT$..deserialize..VecVisitor$LT$T$GT$$u20$as$u20$serde_core..de..Visitor$GT$9visit_seq17h9e0060cf23053418E', symObjAddr: 0xE90, symBinAddr: 0x3C340, symSize: 0x2D8 }
  - { offset: 0x16A6F2, size: 0x8, addend: 0x0, symName: '__ZN182_$LT$serde_core..de..impls..$LT$impl$u20$serde_core..de..Deserialize$u20$for$u20$alloc..vec..Vec$LT$T$GT$$GT$..deserialize..VecVisitor$LT$T$GT$$u20$as$u20$serde_core..de..Visitor$GT$9visit_seq17hcd1a0b43d6d26958E', symObjAddr: 0x1168, symBinAddr: 0x3C618, symSize: 0x25C }
  - { offset: 0x16A9B9, size: 0x8, addend: 0x0, symName: '__ZN182_$LT$serde_core..de..impls..$LT$impl$u20$serde_core..de..Deserialize$u20$for$u20$alloc..vec..Vec$LT$T$GT$$GT$..deserialize..VecVisitor$LT$T$GT$$u20$as$u20$serde_core..de..Visitor$GT$9visit_seq17hd2c9c0b2ee850934E', symObjAddr: 0x13C4, symBinAddr: 0x3C874, symSize: 0x210 }
  - { offset: 0x16AC80, size: 0x8, addend: 0x0, symName: '__ZN182_$LT$serde_core..de..impls..$LT$impl$u20$serde_core..de..Deserialize$u20$for$u20$alloc..vec..Vec$LT$T$GT$$GT$..deserialize..VecVisitor$LT$T$GT$$u20$as$u20$serde_core..de..Visitor$GT$9visit_seq17hd553281c2a567a5bE', symObjAddr: 0x15D4, symBinAddr: 0x3CA84, symSize: 0x258 }
  - { offset: 0x16AF8F, size: 0x8, addend: 0x0, symName: '__ZN182_$LT$serde_core..de..impls..$LT$impl$u20$serde_core..de..Deserialize$u20$for$u20$alloc..vec..Vec$LT$T$GT$$GT$..deserialize..VecVisitor$LT$T$GT$$u20$as$u20$serde_core..de..Visitor$GT$9visit_seq17hd8ad2b867c9c1e2cE', symObjAddr: 0x182C, symBinAddr: 0x3CCDC, symSize: 0x240 }
  - { offset: 0x16B257, size: 0x8, addend: 0x0, symName: '__ZN182_$LT$serde_core..de..impls..$LT$impl$u20$serde_core..de..Deserialize$u20$for$u20$alloc..vec..Vec$LT$T$GT$$GT$..deserialize..VecVisitor$LT$T$GT$$u20$as$u20$serde_core..de..Visitor$GT$9visit_seq17hec4c952cb876bea8E', symObjAddr: 0x1A6C, symBinAddr: 0x3CF1C, symSize: 0x2AC }
  - { offset: 0x16B672, size: 0x8, addend: 0x0, symName: '__ZN182_$LT$serde_core..de..impls..$LT$impl$u20$serde_core..de..Deserialize$u20$for$u20$alloc..vec..Vec$LT$T$GT$$GT$..deserialize..VecVisitor$LT$T$GT$$u20$as$u20$serde_core..de..Visitor$GT$9visit_seq17hef90e8000991b1beE', symObjAddr: 0x1D18, symBinAddr: 0x3D1C8, symSize: 0x238 }
  - { offset: 0x16B91D, size: 0x8, addend: 0x0, symName: '__ZN182_$LT$serde_core..de..impls..$LT$impl$u20$serde_core..de..Deserialize$u20$for$u20$alloc..vec..Vec$LT$T$GT$$GT$..deserialize..VecVisitor$LT$T$GT$$u20$as$u20$serde_core..de..Visitor$GT$9visit_seq17hf8c77feaefe190bfE', symObjAddr: 0x1F50, symBinAddr: 0x3D400, symSize: 0x318 }
  - { offset: 0x16BFE0, size: 0x8, addend: 0x0, symName: '__ZN80_$LT$serde_core..de..impls..StringVisitor$u20$as$u20$serde_core..de..Visitor$GT$9visit_str17he2c1a5611849a95fE', symObjAddr: 0x2348, symBinAddr: 0x3D7F8, symSize: 0x120 }
  - { offset: 0x16C70C, size: 0x8, addend: 0x0, symName: '__ZN46_$LT$T$u20$as$u20$serde_core..de..Expected$GT$3fmt17h13dfa1b8e846cc4dE', symObjAddr: 0x2268, symBinAddr: 0x3D718, symSize: 0x14 }
  - { offset: 0x16C772, size: 0x8, addend: 0x0, symName: '__ZN46_$LT$T$u20$as$u20$serde_core..de..Expected$GT$3fmt17h16d88cde8212ca19E', symObjAddr: 0x227C, symBinAddr: 0x3D72C, symSize: 0x14 }
  - { offset: 0x16C7D8, size: 0x8, addend: 0x0, symName: '__ZN46_$LT$T$u20$as$u20$serde_core..de..Expected$GT$3fmt17h48986a955917b6fcE', symObjAddr: 0x2290, symBinAddr: 0x3D740, symSize: 0x14 }
  - { offset: 0x16C83E, size: 0x8, addend: 0x0, symName: '__ZN46_$LT$T$u20$as$u20$serde_core..de..Expected$GT$3fmt17ha8251d8375b2bca4E', symObjAddr: 0x22A4, symBinAddr: 0x3D754, symSize: 0x14 }
  - { offset: 0x16C8A4, size: 0x8, addend: 0x0, symName: '__ZN46_$LT$T$u20$as$u20$serde_core..de..Expected$GT$3fmt17hd473626dcfbc5032E', symObjAddr: 0x22B8, symBinAddr: 0x3D768, symSize: 0x14 }
  - { offset: 0x16C90A, size: 0x8, addend: 0x0, symName: '__ZN46_$LT$T$u20$as$u20$serde_core..de..Expected$GT$3fmt17hf68703b5fbc8df56E', symObjAddr: 0x22CC, symBinAddr: 0x3D77C, symSize: 0x14 }
  - { offset: 0x171D85, size: 0x8, addend: 0x0, symName: '__ZN12skreaver_a2a5types4part1_88_$LT$impl$u20$serde_core..ser..Serialize$u20$for$u20$skreaver_a2a..types..part..Part$GT$9serialize17h71ee71cb9c02d229E', symObjAddr: 0x0, symBinAddr: 0x3D918, symSize: 0xF8 }
  - { offset: 0x172117, size: 0x8, addend: 0x0, symName: '__ZN12skreaver_a2a5types4part1_88_$LT$impl$u20$serde_core..ser..Serialize$u20$for$u20$skreaver_a2a..types..part..Part$GT$9serialize17h71ee71cb9c02d229E', symObjAddr: 0x0, symBinAddr: 0x3D918, symSize: 0xF8 }
  - { offset: 0x172240, size: 0x8, addend: 0x0, symName: '__ZN12skreaver_a2a5types4part1_88_$LT$impl$u20$serde_core..ser..Serialize$u20$for$u20$skreaver_a2a..types..part..Part$GT$9serialize17h890a37066bc16c0aE', symObjAddr: 0xF8, symBinAddr: 0x3DA10, symSize: 0x104 }
  - { offset: 0x172388, size: 0x8, addend: 0x0, symName: '__ZN12skreaver_a2a5types4part1_89_$LT$impl$u20$serde_core..de..Deserialize$u20$for$u20$skreaver_a2a..types..part..Part$GT$11deserialize17h48958433cd62c248E', symObjAddr: 0x1FC, symBinAddr: 0x3DB14, symSize: 0x778 }
  - { offset: 0x1726DF, size: 0x8, addend: 0x0, symName: '__ZN12skreaver_a2a5types4part1_89_$LT$impl$u20$serde_core..de..Deserialize$u20$for$u20$skreaver_a2a..types..part..Part$GT$11deserialize17h689874df720e8a37E', symObjAddr: 0x974, symBinAddr: 0x3E28C, symSize: 0x2FC }
  - { offset: 0x172AAA, size: 0x8, addend: 0x0, symName: '__ZN12skreaver_a2a5types4part1_92_$LT$impl$u20$serde_core..ser..Serialize$u20$for$u20$skreaver_a2a..types..part..DataPart$GT$9serialize17hb2407a0653a94ecdE', symObjAddr: 0xC70, symBinAddr: 0x3E588, symSize: 0x15C }
  - { offset: 0x172C10, size: 0x8, addend: 0x0, symName: '__ZN12skreaver_a2a5types4part1_92_$LT$impl$u20$serde_core..ser..Serialize$u20$for$u20$skreaver_a2a..types..part..DataPart$GT$9serialize17hddcaf74e1dc270afE', symObjAddr: 0xDCC, symBinAddr: 0x3E6E4, symSize: 0x2C4 }
  - { offset: 0x1733AD, size: 0x8, addend: 0x0, symName: '__ZN12skreaver_a2a5types4part1_92_$LT$impl$u20$serde_core..ser..Serialize$u20$for$u20$skreaver_a2a..types..part..FilePart$GT$9serialize17h45b1ded08b429378E', symObjAddr: 0x1090, symBinAddr: 0x3E9A8, symSize: 0x308 }
  - { offset: 0x173D19, size: 0x8, addend: 0x0, symName: '__ZN12skreaver_a2a5types4part1_92_$LT$impl$u20$serde_core..ser..Serialize$u20$for$u20$skreaver_a2a..types..part..FilePart$GT$9serialize17h7ab2cf72f8901475E', symObjAddr: 0x1398, symBinAddr: 0x3ECB0, symSize: 0x1A0 }
  - { offset: 0x173EBC, size: 0x8, addend: 0x0, symName: '__ZN12skreaver_a2a5types4part1_92_$LT$impl$u20$serde_core..ser..Serialize$u20$for$u20$skreaver_a2a..types..part..TextPart$GT$9serialize17h1d715a86c6584f95E', symObjAddr: 0x1538, symBinAddr: 0x3EE50, symSize: 0x1F0 }
  - { offset: 0x1743EB, size: 0x8, addend: 0x0, symName: '__ZN12skreaver_a2a5types4part1_92_$LT$impl$u20$serde_core..ser..Serialize$u20$for$u20$skreaver_a2a..types..part..TextPart$GT$9serialize17h6db8ea85c7f83765E', symObjAddr: 0x1728, symBinAddr: 0x3F040, symSize: 0x140 }
  - { offset: 0x1752A3, size: 0x8, addend: 0x0, symName: '__ZN4core3ptr264drop_in_place$LT$core..result..Result$LT$$LP$skreaver_a2a..types..part.._..$LT$impl$u20$serde_core..de..Deserialize$u20$for$u20$skreaver_a2a..types..part..Part$GT$..deserialize..__Field$C$serde_core..private..content..Content$RP$$C$serde_json..error..Error$GT$$GT$17h5c5989efaecdbc06E', symObjAddr: 0x1C88, symBinAddr: 0x3F5A0, symSize: 0x14 }
  - { offset: 0x17532E, size: 0x8, addend: 0x0, symName: '__ZN4core3ptr57drop_in_place$LT$serde_json..value..ser..SerializeMap$GT$17ha8e1ad11403c96aeE', symObjAddr: 0x1C9C, symBinAddr: 0x3F5B4, symSize: 0xD4 }
  - { offset: 0x17540B, size: 0x8, addend: 0x0, symName: '__ZN4core3ptr58drop_in_place$LT$serde_core..private..content..Content$GT$17ha0c203615a690f08E', symObjAddr: 0x1D70, symBinAddr: 0x3F688, symSize: 0x190 }
  - { offset: 0x176193, size: 0x8, addend: 0x0, symName: __ZN4core3ops8function6FnOnce9call_once17h8621167faccf7d06E, symObjAddr: 0x1C54, symBinAddr: 0x3F56C, symSize: 0x34 }
  - { offset: 0x177512, size: 0x8, addend: 0x0, symName: '__ZN72_$LT$alloc..boxed..Box$LT$T$C$A$GT$$u20$as$u20$core..ops..drop..Drop$GT$4drop17h2a67062d876283b5E', symObjAddr: 0x1F00, symBinAddr: 0x3F818, symSize: 0x80 }
  - { offset: 0x177D62, size: 0x8, addend: 0x0, symName: __ZN12skreaver_a2a5types4part4Part4file17haad6a33bc12b03d4E, symObjAddr: 0x1868, symBinAddr: 0x3F180, symSize: 0x260 }
  - { offset: 0x1784D5, size: 0x8, addend: 0x0, symName: __ZN12skreaver_a2a5types4part4Part4text17h617ec59b973d3fc8E, symObjAddr: 0x1AC8, symBinAddr: 0x3F3E0, symSize: 0x18C }
  - { offset: 0x17A5CA, size: 0x8, addend: 0x0, symName: '__ZN4core3ptr79drop_in_place$LT$pyo3..instance..Bound$LT$pyo3..types..module..PyModule$GT$$GT$17hc0a296cca5496126E', symObjAddr: 0x0, symBinAddr: 0x3F898, symSize: 0x5C }
  - { offset: 0x17B871, size: 0x8, addend: 0x0, symName: '__ZN4core3ptr79drop_in_place$LT$pyo3..instance..Bound$LT$pyo3..types..module..PyModule$GT$$GT$17hc0a296cca5496126E', symObjAddr: 0x0, symBinAddr: 0x3F898, symSize: 0x5C }
  - { offset: 0x17CE87, size: 0x8, addend: 0x0, symName: '__ZN9_skreaver47_$LT$impl$u20$_skreaver.._skreaver..MakeDef$GT$8make_def15__pyo3_pymodule17ha2a0145cb2731a70E', symObjAddr: 0x5C, symBinAddr: 0x3F8F4, symSize: 0xFE4 }
  - { offset: 0x18037A, size: 0x8, addend: 0x0, symName: '__ZN10serde_json5value3ser81_$LT$impl$u20$serde_core..ser..Serialize$u20$for$u20$serde_json..value..Value$GT$9serialize17h99d75d15ae47ed35E', symObjAddr: 0x0, symBinAddr: 0x408D8, symSize: 0x64C }
  - { offset: 0x180FE3, size: 0x8, addend: 0x0, symName: '__ZN4core3ptr101drop_in_place$LT$core..option..Option$LT$pyo3..instance..Bound$LT$pyo3..types..any..PyAny$GT$$GT$$GT$17h14cea4360b09ea40E', symObjAddr: 0x64C, symBinAddr: 0x40F24, symSize: 0x60 }
  - { offset: 0x18104A, size: 0x8, addend: 0x0, symName: '__ZN4core3ptr73drop_in_place$LT$pyo3..instance..Bound$LT$pyo3..types..any..PyAny$GT$$GT$17h9618b511440d036eE', symObjAddr: 0x6AC, symBinAddr: 0x40F84, symSize: 0x5C }
  - { offset: 0x1851F0, size: 0x8, addend: 0x0, symName: '__ZN10serde_json5value3ser81_$LT$impl$u20$serde_core..ser..Serialize$u20$for$u20$serde_json..value..Value$GT$9serialize17h99d75d15ae47ed35E', symObjAddr: 0x0, symBinAddr: 0x408D8, symSize: 0x64C }
  - { offset: 0x186B61, size: 0x8, addend: 0x0, symName: __ZN7reqwest5error5Error3new17h9779d27887e77b85E, symObjAddr: 0x0, symBinAddr: 0x40FE0, symSize: 0x13C }
  - { offset: 0x1886C7, size: 0x8, addend: 0x0, symName: __ZN7reqwest5error5Error3new17h9779d27887e77b85E, symObjAddr: 0x0, symBinAddr: 0x40FE0, symSize: 0x13C }
  - { offset: 0x1888D5, size: 0x8, addend: 0x0, symName: '__ZN5alloc4sync16Arc$LT$T$C$A$GT$9drop_slow17he4e8e1036ff5e21eE', symObjAddr: 0x0, symBinAddr: 0x4111C, symSize: 0xD0 }
  - { offset: 0x18897C, size: 0x8, addend: 0x0, symName: '__ZN5alloc4sync16Arc$LT$T$C$A$GT$9drop_slow17he4e8e1036ff5e21eE', symObjAddr: 0x0, symBinAddr: 0x4111C, symSize: 0xD0 }
  - { offset: 0x189AAA, size: 0x8, addend: 0x0, symName: '__ZN4pyo312pyclass_init27PyClassInitializer$LT$T$GT$19create_class_object17h11cb686a8bd28e70E', symObjAddr: 0x0, symBinAddr: 0x411EC, symSize: 0xF8 }
  - { offset: 0x18E361, size: 0x8, addend: 0x0, symName: '__ZN4pyo312pyclass_init27PyClassInitializer$LT$T$GT$19create_class_object17h11cb686a8bd28e70E', symObjAddr: 0x0, symBinAddr: 0x411EC, symSize: 0xF8 }
  - { offset: 0x18E558, size: 0x8, addend: 0x0, symName: '__ZN4pyo312pyclass_init27PyClassInitializer$LT$T$GT$19create_class_object17h308d125bb4bcb824E', symObjAddr: 0xF8, symBinAddr: 0x412E4, symSize: 0x170 }
  - { offset: 0x18E78A, size: 0x8, addend: 0x0, symName: '__ZN4pyo312pyclass_init27PyClassInitializer$LT$T$GT$19create_class_object17h47577e05901d5ab3E', symObjAddr: 0x268, symBinAddr: 0x41454, symSize: 0x118 }
  - { offset: 0x18E97E, size: 0x8, addend: 0x0, symName: '__ZN4pyo312pyclass_init27PyClassInitializer$LT$T$GT$19create_class_object17h6712210307ca914dE', symObjAddr: 0x380, symBinAddr: 0x4156C, symSize: 0x240 }
  - { offset: 0x18EB8E, size: 0x8, addend: 0x0, symName: '__ZN4pyo312pyclass_init27PyClassInitializer$LT$T$GT$19create_class_object17h7e80e55e05e42336E', symObjAddr: 0x5C0, symBinAddr: 0x417AC, symSize: 0x110 }
  - { offset: 0x18ECB8, size: 0x8, addend: 0x0, symName: '__ZN4pyo312pyclass_init27PyClassInitializer$LT$T$GT$19create_class_object17h9274bee83730645cE', symObjAddr: 0x6D0, symBinAddr: 0x418BC, symSize: 0x108 }
  - { offset: 0x18EEAC, size: 0x8, addend: 0x0, symName: '__ZN4pyo312pyclass_init27PyClassInitializer$LT$T$GT$19create_class_object17h97e2b7f239e07accE', symObjAddr: 0x7D8, symBinAddr: 0x419C4, symSize: 0x170 }
  - { offset: 0x18F0DE, size: 0x8, addend: 0x0, symName: '__ZN4pyo312pyclass_init27PyClassInitializer$LT$T$GT$19create_class_object17ha2479939a1a6a0eaE', symObjAddr: 0x948, symBinAddr: 0x41B34, symSize: 0x110 }
  - { offset: 0x18F2D2, size: 0x8, addend: 0x0, symName: '__ZN4pyo312pyclass_init27PyClassInitializer$LT$T$GT$19create_class_object17hab54d24bad27eda6E', symObjAddr: 0xA58, symBinAddr: 0x41C44, symSize: 0x170 }
  - { offset: 0x18F504, size: 0x8, addend: 0x0, symName: '__ZN4pyo312pyclass_init27PyClassInitializer$LT$T$GT$19create_class_object17hb6bd9768e77016bcE', symObjAddr: 0xBC8, symBinAddr: 0x41DB4, symSize: 0x110 }
  - { offset: 0x18F6FB, size: 0x8, addend: 0x0, symName: '__ZN4pyo312pyclass_init27PyClassInitializer$LT$T$GT$19create_class_object17hb8785e27a28a7334E', symObjAddr: 0xCD8, symBinAddr: 0x41EC4, symSize: 0x170 }
  - { offset: 0x18F9FA, size: 0x8, addend: 0x0, symName: '__ZN4pyo312pyclass_init27PyClassInitializer$LT$T$GT$19create_class_object17hf83bda8ab6d36fb4E', symObjAddr: 0xE48, symBinAddr: 0x42034, symSize: 0x1FC }
  - { offset: 0x18FCE9, size: 0x8, addend: 0x0, symName: '__ZN4pyo312pyclass_init27PyClassInitializer$LT$T$GT$19create_class_object17hfa3754761108ef1cE', symObjAddr: 0x1044, symBinAddr: 0x42230, symSize: 0x214 }
  - { offset: 0x18FFDA, size: 0x8, addend: 0x0, symName: '__ZN4pyo312pyclass_init27PyClassInitializer$LT$T$GT$19create_class_object17hfad116bbe6f78bb0E', symObjAddr: 0x1258, symBinAddr: 0x42444, symSize: 0x170 }
  - { offset: 0x190228, size: 0x8, addend: 0x0, symName: '__ZN4pyo312pyclass_init27PyClassInitializer$LT$T$GT$27create_class_object_of_type17h0b8f023b959c6aebE', symObjAddr: 0x1480, symBinAddr: 0x425B4, symSize: 0x140 }
  - { offset: 0x1903E2, size: 0x8, addend: 0x0, symName: '__ZN4pyo312pyclass_init27PyClassInitializer$LT$T$GT$27create_class_object_of_type17h1054c630108d049dE', symObjAddr: 0x15C0, symBinAddr: 0x426F4, symSize: 0x130 }
  - { offset: 0x190692, size: 0x8, addend: 0x0, symName: '__ZN4pyo312pyclass_init27PyClassInitializer$LT$T$GT$27create_class_object_of_type17h30938c67c4d6a918E', symObjAddr: 0x16F0, symBinAddr: 0x42824, symSize: 0x12C }
  - { offset: 0x19084B, size: 0x8, addend: 0x0, symName: '__ZN4pyo312pyclass_init27PyClassInitializer$LT$T$GT$27create_class_object_of_type17h435dca4b9b0e7c65E', symObjAddr: 0x18D4, symBinAddr: 0x42950, symSize: 0x130 }
  - { offset: 0x190CF9, size: 0x8, addend: 0x0, symName: '__ZN4pyo312pyclass_init27PyClassInitializer$LT$T$GT$27create_class_object_of_type17h8ceae1b03655e6acE', symObjAddr: 0x1A04, symBinAddr: 0x42A80, symSize: 0x104 }
  - { offset: 0x190E79, size: 0x8, addend: 0x0, symName: '__ZN4pyo312pyclass_init27PyClassInitializer$LT$T$GT$27create_class_object_of_type17h90aa88c52a22de35E', symObjAddr: 0x1B08, symBinAddr: 0x42B84, symSize: 0x120 }
  - { offset: 0x190FFA, size: 0x8, addend: 0x0, symName: '__ZN4pyo312pyclass_init27PyClassInitializer$LT$T$GT$27create_class_object_of_type17he180b2a35482cd4dE', symObjAddr: 0x1C28, symBinAddr: 0x42CA4, symSize: 0x108 }
  - { offset: 0x1911AB, size: 0x8, addend: 0x0, symName: '__ZN4pyo312pyclass_init27PyClassInitializer$LT$T$GT$27create_class_object_of_type17he8300cc495c1e2e9E', symObjAddr: 0x1D30, symBinAddr: 0x42DAC, symSize: 0x12C }
  - { offset: 0x19DCDE, size: 0x8, addend: 0x0, symName: __ZN10serde_core3ser10Serializer11collect_map17h1fd9ae00ad54aed5E, symObjAddr: 0x0, symBinAddr: 0x42ED8, symSize: 0x2A0 }
  - { offset: 0x19DCF6, size: 0x8, addend: 0x0, symName: _anon.627c3bfa47907ea8296d89853360ae61.0, symObjAddr: 0x6168, symBinAddr: 0x513218, symSize: 0x0 }
  - { offset: 0x19DE1F, size: 0x8, addend: 0x0, symName: '__ZN58_$LT$alloc..string..String$u20$as$u20$core..fmt..Write$GT$10write_char17h5afa657ba1086fe6E', symObjAddr: 0x12D0, symBinAddr: 0x441A8, symSize: 0x108 }
  - { offset: 0x19E02D, size: 0x8, addend: 0x0, symName: '__ZN58_$LT$alloc..string..String$u20$as$u20$core..fmt..Write$GT$9write_str17hba5566b7261b3df3E', symObjAddr: 0x13D8, symBinAddr: 0x442B0, symSize: 0x24 }
  - { offset: 0x19F1DF, size: 0x8, addend: 0x0, symName: '__ZN4core3ptr45drop_in_place$LT$serde_json..value..Value$GT$17hc94cdcf2b4baa5acE', symObjAddr: 0x11BC, symBinAddr: 0x44094, symSize: 0x2C }
  - { offset: 0x19F21B, size: 0x8, addend: 0x0, symName: '__ZN4core3ptr57drop_in_place$LT$serde_json..value..ser..SerializeMap$GT$17ha8e1ad11403c96aeE', symObjAddr: 0x11E8, symBinAddr: 0x440C0, symSize: 0xD4 }
  - { offset: 0x19F520, size: 0x8, addend: 0x0, symName: '__ZN53_$LT$core..fmt..Error$u20$as$u20$core..fmt..Debug$GT$3fmt17haea4712e43834251E', symObjAddr: 0x12BC, symBinAddr: 0x44194, symSize: 0x14 }
  - { offset: 0x1A10B2, size: 0x8, addend: 0x0, symName: _anon.627c3bfa47907ea8296d89853360ae61.7, symObjAddr: 0x61B0, symBinAddr: 0x513260, symSize: 0x0 }
  - { offset: 0x1A1B46, size: 0x8, addend: 0x0, symName: '__ZN86_$LT$serde_json..value..ser..SerializeMap$u20$as$u20$serde_core..ser..SerializeMap$GT$13serialize_key17h02cd4f77cde5aa91E', symObjAddr: 0x14BC, symBinAddr: 0x442D4, symSize: 0x1A8 }
  - { offset: 0x1A32FE, size: 0x8, addend: 0x0, symName: '__ZN87_$LT$serde_json..value..ser..RawValueEmitter$u20$as$u20$serde_core..ser..Serializer$GT$11collect_str17h1848cc1f6365d923E', symObjAddr: 0x1664, symBinAddr: 0x4447C, symSize: 0x110 }
  - { offset: 0x1A373E, size: 0x8, addend: 0x0, symName: '__ZN89_$LT$serde_json..value..ser..SerializeMap$u20$as$u20$serde_core..ser..SerializeStruct$GT$15serialize_field17h104fd4aab353406aE', symObjAddr: 0x1774, symBinAddr: 0x4458C, symSize: 0x264 }
  - { offset: 0x1A39A3, size: 0x8, addend: 0x0, symName: '__ZN89_$LT$serde_json..value..ser..SerializeMap$u20$as$u20$serde_core..ser..SerializeStruct$GT$15serialize_field17h3770f2ed457756d4E', symObjAddr: 0x19D8, symBinAddr: 0x447F0, symSize: 0x1C4 }
  - { offset: 0x1A3D49, size: 0x8, addend: 0x0, symName: '__ZN89_$LT$serde_json..value..ser..SerializeMap$u20$as$u20$serde_core..ser..SerializeStruct$GT$15serialize_field17h39f55cc0526e7006E', symObjAddr: 0x1B9C, symBinAddr: 0x449B4, symSize: 0x244 }
  - { offset: 0x1A3FB6, size: 0x8, addend: 0x0, symName: '__ZN89_$LT$serde_json..value..ser..SerializeMap$u20$as$u20$serde_core..ser..SerializeStruct$GT$15serialize_field17h3bf9d02a37e82b8dE', symObjAddr: 0x1DE0, symBinAddr: 0x44BF8, symSize: 0x1B4 }
  - { offset: 0x1A4220, size: 0x8, addend: 0x0, symName: '__ZN89_$LT$serde_json..value..ser..SerializeMap$u20$as$u20$serde_core..ser..SerializeStruct$GT$15serialize_field17h3e4d5b67024c1f31E', symObjAddr: 0x1F94, symBinAddr: 0x44DAC, symSize: 0x200 }
  - { offset: 0x1A4667, size: 0x8, addend: 0x0, symName: '__ZN89_$LT$serde_json..value..ser..SerializeMap$u20$as$u20$serde_core..ser..SerializeStruct$GT$15serialize_field17h454e35217fd4e757E', symObjAddr: 0x2194, symBinAddr: 0x44FAC, symSize: 0x244 }
  - { offset: 0x1A48BE, size: 0x8, addend: 0x0, symName: '__ZN89_$LT$serde_json..value..ser..SerializeMap$u20$as$u20$serde_core..ser..SerializeStruct$GT$15serialize_field17h47ac58e24c7b1d4aE', symObjAddr: 0x23D8, symBinAddr: 0x451F0, symSize: 0x284 }
  - { offset: 0x1A4B43, size: 0x8, addend: 0x0, symName: '__ZN89_$LT$serde_json..value..ser..SerializeMap$u20$as$u20$serde_core..ser..SerializeStruct$GT$15serialize_field17h4d963ccdb7fb1f60E', symObjAddr: 0x265C, symBinAddr: 0x45474, symSize: 0x214 }
  - { offset: 0x1A4DE9, size: 0x8, addend: 0x0, symName: '__ZN89_$LT$serde_json..value..ser..SerializeMap$u20$as$u20$serde_core..ser..SerializeStruct$GT$15serialize_field17h50a7efc853eb0f23E', symObjAddr: 0x2870, symBinAddr: 0x45688, symSize: 0x288 }
  - { offset: 0x1A5158, size: 0x8, addend: 0x0, symName: '__ZN89_$LT$serde_json..value..ser..SerializeMap$u20$as$u20$serde_core..ser..SerializeStruct$GT$15serialize_field17h51a443f73de680f2E', symObjAddr: 0x2AF8, symBinAddr: 0x45910, symSize: 0x28C }
  - { offset: 0x1A54C0, size: 0x8, addend: 0x0, symName: '__ZN89_$LT$serde_json..value..ser..SerializeMap$u20$as$u20$serde_core..ser..SerializeStruct$GT$15serialize_field17h5c38625789ce447fE', symObjAddr: 0x2D84, symBinAddr: 0x45B9C, symSize: 0x200 }
  - { offset: 0x1A5907, size: 0x8, addend: 0x0, symName: '__ZN89_$LT$serde_json..value..ser..SerializeMap$u20$as$u20$serde_core..ser..SerializeStruct$GT$15serialize_field17h609a220b3e219dbbE', symObjAddr: 0x2F84, symBinAddr: 0x45D9C, symSize: 0x200 }
  - { offset: 0x1A5D4D, size: 0x8, addend: 0x0, symName: '__ZN89_$LT$serde_json..value..ser..SerializeMap$u20$as$u20$serde_core..ser..SerializeStruct$GT$15serialize_field17h68f5e4011b053bdaE', symObjAddr: 0x3184, symBinAddr: 0x45F9C, symSize: 0x1B0 }
  - { offset: 0x1A5FBC, size: 0x8, addend: 0x0, symName: '__ZN89_$LT$serde_json..value..ser..SerializeMap$u20$as$u20$serde_core..ser..SerializeStruct$GT$15serialize_field17h6914545a552985cdE', symObjAddr: 0x3334, symBinAddr: 0x4614C, symSize: 0x20C }
  - { offset: 0x1A632A, size: 0x8, addend: 0x0, symName: '__ZN89_$LT$serde_json..value..ser..SerializeMap$u20$as$u20$serde_core..ser..SerializeStruct$GT$15serialize_field17h6f23d7d89749e992E', symObjAddr: 0x3540, symBinAddr: 0x46358, symSize: 0x250 }
  - { offset: 0x1A65D7, size: 0x8, addend: 0x0, symName: '__ZN89_$LT$serde_json..value..ser..SerializeMap$u20$as$u20$serde_core..ser..SerializeStruct$GT$15serialize_field17h7f01e194e0800a76E', symObjAddr: 0x3790, symBinAddr: 0x465A8, symSize: 0x278 }
  - { offset: 0x1A68D3, size: 0x8, addend: 0x0, symName: '__ZN89_$LT$serde_json..value..ser..SerializeMap$u20$as$u20$serde_core..ser..SerializeStruct$GT$15serialize_field17h8a2030f7fc3fd81bE', symObjAddr: 0x3A08, symBinAddr: 0x46820, symSize: 0x2BC }
  - { offset: 0x1A6C85, size: 0x8, addend: 0x0, symName: '__ZN89_$LT$serde_json..value..ser..SerializeMap$u20$as$u20$serde_core..ser..SerializeStruct$GT$15serialize_field17h9b398bfd42258ec7E', symObjAddr: 0x3CC4, symBinAddr: 0x46ADC, symSize: 0x1B0 }
  - { offset: 0x1A6F7F, size: 0x8, addend: 0x0, symName: '__ZN89_$LT$serde_json..value..ser..SerializeMap$u20$as$u20$serde_core..ser..SerializeStruct$GT$15serialize_field17ha3557699243dabb8E', symObjAddr: 0x3E74, symBinAddr: 0x46C8C, symSize: 0x200 }
  - { offset: 0x1A73C6, size: 0x8, addend: 0x0, symName: '__ZN89_$LT$serde_json..value..ser..SerializeMap$u20$as$u20$serde_core..ser..SerializeStruct$GT$15serialize_field17haba2ad0b42212c7bE', symObjAddr: 0x4074, symBinAddr: 0x46E8C, symSize: 0x1CC }
  - { offset: 0x1A76A1, size: 0x8, addend: 0x0, symName: '__ZN89_$LT$serde_json..value..ser..SerializeMap$u20$as$u20$serde_core..ser..SerializeStruct$GT$15serialize_field17hc103d66d0bd52f8eE', symObjAddr: 0x4240, symBinAddr: 0x47058, symSize: 0x260 }
  - { offset: 0x1A7906, size: 0x8, addend: 0x0, symName: '__ZN89_$LT$serde_json..value..ser..SerializeMap$u20$as$u20$serde_core..ser..SerializeStruct$GT$15serialize_field17hc5bb527eef09e1faE', symObjAddr: 0x44A0, symBinAddr: 0x472B8, symSize: 0x274 }
  - { offset: 0x1A7C02, size: 0x8, addend: 0x0, symName: '__ZN89_$LT$serde_json..value..ser..SerializeMap$u20$as$u20$serde_core..ser..SerializeStruct$GT$15serialize_field17hce0f50bb2e26ac24E', symObjAddr: 0x4714, symBinAddr: 0x4752C, symSize: 0x208 }
  - { offset: 0x1A8049, size: 0x8, addend: 0x0, symName: '__ZN89_$LT$serde_json..value..ser..SerializeMap$u20$as$u20$serde_core..ser..SerializeStruct$GT$15serialize_field17hd77db7d2fd2b4d9bE', symObjAddr: 0x491C, symBinAddr: 0x47734, symSize: 0x278 }
  - { offset: 0x1A8345, size: 0x8, addend: 0x0, symName: '__ZN89_$LT$serde_json..value..ser..SerializeMap$u20$as$u20$serde_core..ser..SerializeStruct$GT$15serialize_field17hd8a52dea21c41a12E', symObjAddr: 0x4B94, symBinAddr: 0x479AC, symSize: 0x284 }
  - { offset: 0x1A85CA, size: 0x8, addend: 0x0, symName: '__ZN89_$LT$serde_json..value..ser..SerializeMap$u20$as$u20$serde_core..ser..SerializeStruct$GT$15serialize_field17he255d6ed1c0390b4E', symObjAddr: 0x4E18, symBinAddr: 0x47C30, symSize: 0x20C }
  - { offset: 0x1A8870, size: 0x8, addend: 0x0, symName: '__ZN89_$LT$serde_json..value..ser..SerializeMap$u20$as$u20$serde_core..ser..SerializeStruct$GT$15serialize_field17he715a2f515b885a0E', symObjAddr: 0x5024, symBinAddr: 0x47E3C, symSize: 0x200 }
  - { offset: 0x1A8CB7, size: 0x8, addend: 0x0, symName: '__ZN89_$LT$serde_json..value..ser..SerializeMap$u20$as$u20$serde_core..ser..SerializeStruct$GT$15serialize_field17hea7a597a3ca9977fE', symObjAddr: 0x5224, symBinAddr: 0x4803C, symSize: 0x244 }
  - { offset: 0x1A8F24, size: 0x8, addend: 0x0, symName: '__ZN89_$LT$serde_json..value..ser..SerializeMap$u20$as$u20$serde_core..ser..SerializeStruct$GT$15serialize_field17hf61e60cf8f2cc638E', symObjAddr: 0x5468, symBinAddr: 0x48280, symSize: 0x278 }
  - { offset: 0x1A9220, size: 0x8, addend: 0x0, symName: '__ZN89_$LT$serde_json..value..ser..SerializeMap$u20$as$u20$serde_core..ser..SerializeStruct$GT$15serialize_field17hfc2472bf568ace1eE', symObjAddr: 0x56E0, symBinAddr: 0x484F8, symSize: 0x1FC }
  - { offset: 0x1AAAD7, size: 0x8, addend: 0x0, symName: __ZN10serde_core3ser10Serializer11collect_map17h1fd9ae00ad54aed5E, symObjAddr: 0x0, symBinAddr: 0x42ED8, symSize: 0x2A0 }
  - { offset: 0x1AAF06, size: 0x8, addend: 0x0, symName: __ZN10serde_core3ser10Serializer11collect_map17h2c832650a5e8d946E, symObjAddr: 0x2A0, symBinAddr: 0x43178, symSize: 0x254 }
  - { offset: 0x1AB421, size: 0x8, addend: 0x0, symName: __ZN10serde_core3ser10Serializer11collect_seq17h3821ec954e2814c3E, symObjAddr: 0x4F4, symBinAddr: 0x433CC, symSize: 0x1C8 }
  - { offset: 0x1AB8C6, size: 0x8, addend: 0x0, symName: __ZN10serde_core3ser10Serializer11collect_seq17h4683ac68266c5504E, symObjAddr: 0x6BC, symBinAddr: 0x43594, symSize: 0x1D4 }
  - { offset: 0x1ABD57, size: 0x8, addend: 0x0, symName: __ZN10serde_core3ser10Serializer11collect_seq17h592a94163ecd9731E, symObjAddr: 0x890, symBinAddr: 0x43768, symSize: 0x1DC }
  - { offset: 0x1AC1E8, size: 0x8, addend: 0x0, symName: __ZN10serde_core3ser10Serializer11collect_seq17h95e2e073b607ae1fE, symObjAddr: 0xA6C, symBinAddr: 0x43944, symSize: 0x1D4 }
  - { offset: 0x1AC678, size: 0x8, addend: 0x0, symName: __ZN10serde_core3ser10Serializer11collect_seq17he6a1ccbfed8785ddE, symObjAddr: 0xC40, symBinAddr: 0x43B18, symSize: 0x1D4 }
  - { offset: 0x1ACB09, size: 0x8, addend: 0x0, symName: __ZN10serde_core3ser10Serializer11collect_seq17hec50959bac5cfbffE, symObjAddr: 0xE14, symBinAddr: 0x43CEC, symSize: 0x1D4 }
  - { offset: 0x1ACF9A, size: 0x8, addend: 0x0, symName: __ZN10serde_core3ser10Serializer11collect_seq17hf69ab727484f6d58E, symObjAddr: 0xFE8, symBinAddr: 0x43EC0, symSize: 0x1D4 }
  - { offset: 0x1B2B23, size: 0x8, addend: 0x0, symName: __ZN7reqwest10async_impl6client13ClientBuilder10user_agent17hd3ffff97e877ac66E, symObjAddr: 0x0, symBinAddr: 0x486F4, symSize: 0xF8 }
  - { offset: 0x1BA98E, size: 0x8, addend: 0x0, symName: __ZN7reqwest10async_impl6client13ClientBuilder10user_agent17hd3ffff97e877ac66E, symObjAddr: 0x0, symBinAddr: 0x486F4, symSize: 0xF8 }
  - { offset: 0x1BBD72, size: 0x8, addend: 0x0, symName: __ZN7reqwest10async_impl6client6Client7request17h658148ef410cb2b8E, symObjAddr: 0x158, symBinAddr: 0x487EC, symSize: 0x210 }
  - { offset: 0x1BBF39, size: 0x8, addend: 0x0, symName: '__ZN4core3ptr100drop_in_place$LT$_skreaver..a2a..client..PyA2aClient..continue_task..$u7b$$u7b$closure$u7d$$u7d$$GT$17hb8bd7c48dfea49e7E', symObjAddr: 0x0, symBinAddr: 0x489FC, symSize: 0xDC }
  - { offset: 0x1BC9A4, size: 0x8, addend: 0x0, symName: '__ZN4core3ptr100drop_in_place$LT$_skreaver..a2a..client..PyA2aClient..continue_task..$u7b$$u7b$closure$u7d$$u7d$$GT$17hb8bd7c48dfea49e7E', symObjAddr: 0x0, symBinAddr: 0x489FC, symSize: 0xDC }
  - { offset: 0x1BCD10, size: 0x8, addend: 0x0, symName: '__ZN4core3ptr100drop_in_place$LT$_skreaver..a2a..client..PyA2aClient..wait_for_task..$u7b$$u7b$closure$u7d$$u7d$$GT$17h42c76a5ad820f21bE', symObjAddr: 0xDC, symBinAddr: 0x48AD8, symSize: 0x134 }
  - { offset: 0x1BD0A2, size: 0x8, addend: 0x0, symName: '__ZN4core3ptr101drop_in_place$LT$_skreaver..a2a..client..PyA2aClient..get_agent_card..$u7b$$u7b$closure$u7d$$u7d$$GT$17hb30f2347b02d9a8fE', symObjAddr: 0x210, symBinAddr: 0x48C0C, symSize: 0x110 }
  - { offset: 0x1BD262, size: 0x8, addend: 0x0, symName: '__ZN4core3ptr104drop_in_place$LT$skreaver_a2a..client..A2aClient..handle_error_response..$u7b$$u7b$closure$u7d$$u7d$$GT$17h478d008dde96428eE', symObjAddr: 0x320, symBinAddr: 0x48D1C, symSize: 0xF4 }
  - { offset: 0x1BD332, size: 0x8, addend: 0x0, symName: '__ZN4core3ptr134drop_in_place$LT$reqwest..async_impl..response..Response..json$LT$skreaver_a2a..types..task..Task$GT$..$u7b$$u7b$closure$u7d$$u7d$$GT$17h9f7823f99a0e2560E', symObjAddr: 0x414, symBinAddr: 0x48E10, symSize: 0x80 }
  - { offset: 0x1BD390, size: 0x8, addend: 0x0, symName: '__ZN4core3ptr259drop_in_place$LT$pyo3_async_runtimes..generic..future_into_py_with_locals$LT$pyo3_async_runtimes..tokio..TokioRuntime$C$_skreaver..a2a..client..PyA2aClient..send..$u7b$$u7b$closure$u7d$$u7d$$C$_skreaver..a2a..types..PyTask$GT$..$u7b$$u7b$closure$u7d$$u7d$$GT$17h1532463bb5a15777E', symObjAddr: 0x494, symBinAddr: 0x48E90, symSize: 0x1C4 }
  - { offset: 0x1BD6A2, size: 0x8, addend: 0x0, symName: '__ZN4core3ptr263drop_in_place$LT$pyo3_async_runtimes..generic..future_into_py_with_locals$LT$pyo3_async_runtimes..tokio..TokioRuntime$C$_skreaver..a2a..client..PyA2aClient..get_task..$u7b$$u7b$closure$u7d$$u7d$$C$_skreaver..a2a..types..PyTask$GT$..$u7b$$u7b$closure$u7d$$u7d$$GT$17h459068b4cf290653E', symObjAddr: 0x658, symBinAddr: 0x49054, symSize: 0x1C4 }
  - { offset: 0x1BD9B4, size: 0x8, addend: 0x0, symName: '__ZN4core3ptr266drop_in_place$LT$pyo3_async_runtimes..generic..future_into_py_with_locals$LT$pyo3_async_runtimes..tokio..TokioRuntime$C$_skreaver..a2a..client..PyA2aClient..cancel_task..$u7b$$u7b$closure$u7d$$u7d$$C$_skreaver..a2a..types..PyTask$GT$..$u7b$$u7b$closure$u7d$$u7d$$GT$17h4f23fba6d1940a5fE', symObjAddr: 0x81C, symBinAddr: 0x49218, symSize: 0x1C4 }
  - { offset: 0x1BDCC6, size: 0x8, addend: 0x0, symName: '__ZN4core3ptr267drop_in_place$LT$pyo3_async_runtimes..generic..future_into_py_with_locals$LT$pyo3_async_runtimes..tokio..TokioRuntime$C$_skreaver..a2a..client..PyA2aClient..send_message..$u7b$$u7b$closure$u7d$$u7d$$C$_skreaver..a2a..types..PyTask$GT$..$u7b$$u7b$closure$u7d$$u7d$$GT$17hc4400d43b0c04680E', symObjAddr: 0x9E0, symBinAddr: 0x493DC, symSize: 0x1C4 }
  - { offset: 0x1BDFA8, size: 0x8, addend: 0x0, symName: '__ZN4core3ptr268drop_in_place$LT$pyo3_async_runtimes..generic..future_into_py_with_locals$LT$pyo3_async_runtimes..tokio..TokioRuntime$C$_skreaver..a2a..client..PyA2aClient..continue_task..$u7b$$u7b$closure$u7d$$u7d$$C$_skreaver..a2a..types..PyTask$GT$..$u7b$$u7b$closure$u7d$$u7d$$GT$17hcc95eab0dc351d4cE', symObjAddr: 0xBA4, symBinAddr: 0x495A0, symSize: 0x1C4 }
  - { offset: 0x1BE28A, size: 0x8, addend: 0x0, symName: '__ZN4core3ptr268drop_in_place$LT$pyo3_async_runtimes..generic..future_into_py_with_locals$LT$pyo3_async_runtimes..tokio..TokioRuntime$C$_skreaver..a2a..client..PyA2aClient..wait_for_task..$u7b$$u7b$closure$u7d$$u7d$$C$_skreaver..a2a..types..PyTask$GT$..$u7b$$u7b$closure$u7d$$u7d$$GT$17h6308346499182bbbE', symObjAddr: 0xD68, symBinAddr: 0x49764, symSize: 0x1C4 }
  - { offset: 0x1BE56C, size: 0x8, addend: 0x0, symName: '__ZN4core3ptr274drop_in_place$LT$pyo3_async_runtimes..generic..future_into_py_with_locals$LT$pyo3_async_runtimes..tokio..TokioRuntime$C$_skreaver..a2a..client..PyA2aClient..get_agent_card..$u7b$$u7b$closure$u7d$$u7d$$C$_skreaver..a2a..types..PyAgentCard$GT$..$u7b$$u7b$closure$u7d$$u7d$$GT$17h7bebb759383aba8aE', symObjAddr: 0xF2C, symBinAddr: 0x49928, symSize: 0x1C4 }
  - { offset: 0x1BE84E, size: 0x8, addend: 0x0, symName: '__ZN4core3ptr288drop_in_place$LT$pyo3_async_runtimes..generic..future_into_py_with_locals$LT$pyo3_async_runtimes..tokio..TokioRuntime$C$_skreaver..a2a..client..PyA2aClient..send..$u7b$$u7b$closure$u7d$$u7d$$C$_skreaver..a2a..types..PyTask$GT$..$u7b$$u7b$closure$u7d$$u7d$..$u7b$$u7b$closure$u7d$$u7d$$GT$17h8f9c8c59acc5c1dbE', symObjAddr: 0x10F0, symBinAddr: 0x49AEC, symSize: 0x19C }
  - { offset: 0x1BEAD1, size: 0x8, addend: 0x0, symName: '__ZN4core3ptr292drop_in_place$LT$pyo3_async_runtimes..generic..future_into_py_with_locals$LT$pyo3_async_runtimes..tokio..TokioRuntime$C$_skreaver..a2a..client..PyA2aClient..get_task..$u7b$$u7b$closure$u7d$$u7d$$C$_skreaver..a2a..types..PyTask$GT$..$u7b$$u7b$closure$u7d$$u7d$..$u7b$$u7b$closure$u7d$$u7d$$GT$17hd46fa6be90ba50f8E', symObjAddr: 0x128C, symBinAddr: 0x49C88, symSize: 0x19C }
  - { offset: 0x1BED54, size: 0x8, addend: 0x0, symName: '__ZN4core3ptr295drop_in_place$LT$pyo3_async_runtimes..generic..future_into_py_with_locals$LT$pyo3_async_runtimes..tokio..TokioRuntime$C$_skreaver..a2a..client..PyA2aClient..cancel_task..$u7b$$u7b$closure$u7d$$u7d$$C$_skreaver..a2a..types..PyTask$GT$..$u7b$$u7b$closure$u7d$$u7d$..$u7b$$u7b$closure$u7d$$u7d$$GT$17h266345de04ab795bE', symObjAddr: 0x1428, symBinAddr: 0x49E24, symSize: 0x19C }
  - { offset: 0x1BEFD7, size: 0x8, addend: 0x0, symName: '__ZN4core3ptr296drop_in_place$LT$pyo3_async_runtimes..generic..future_into_py_with_locals$LT$pyo3_async_runtimes..tokio..TokioRuntime$C$_skreaver..a2a..client..PyA2aClient..send_message..$u7b$$u7b$closure$u7d$$u7d$$C$_skreaver..a2a..types..PyTask$GT$..$u7b$$u7b$closure$u7d$$u7d$..$u7b$$u7b$closure$u7d$$u7d$$GT$17h24ce77fdca32ccfeE', symObjAddr: 0x15C4, symBinAddr: 0x49FC0, symSize: 0x19C }
  - { offset: 0x1BF25A, size: 0x8, addend: 0x0, symName: '__ZN4core3ptr297drop_in_place$LT$pyo3_async_runtimes..generic..future_into_py_with_locals$LT$pyo3_async_runtimes..tokio..TokioRuntime$C$_skreaver..a2a..client..PyA2aClient..continue_task..$u7b$$u7b$closure$u7d$$u7d$$C$_skreaver..a2a..types..PyTask$GT$..$u7b$$u7b$closure$u7d$$u7d$..$u7b$$u7b$closure$u7d$$u7d$$GT$17h59942c36ded14b8fE', symObjAddr: 0x1760, symBinAddr: 0x4A15C, symSize: 0x19C }
  - { offset: 0x1BF4DD, size: 0x8, addend: 0x0, symName: '__ZN4core3ptr297drop_in_place$LT$pyo3_async_runtimes..generic..future_into_py_with_locals$LT$pyo3_async_runtimes..tokio..TokioRuntime$C$_skreaver..a2a..client..PyA2aClient..wait_for_task..$u7b$$u7b$closure$u7d$$u7d$$C$_skreaver..a2a..types..PyTask$GT$..$u7b$$u7b$closure$u7d$$u7d$..$u7b$$u7b$closure$u7d$$u7d$$GT$17h9e16a26a83c1f3daE', symObjAddr: 0x18FC, symBinAddr: 0x4A2F8, symSize: 0x19C }
  - { offset: 0x1BF760, size: 0x8, addend: 0x0, symName: '__ZN4core3ptr303drop_in_place$LT$pyo3_async_runtimes..generic..future_into_py_with_locals$LT$pyo3_async_runtimes..tokio..TokioRuntime$C$_skreaver..a2a..client..PyA2aClient..get_agent_card..$u7b$$u7b$closure$u7d$$u7d$$C$_skreaver..a2a..types..PyAgentCard$GT$..$u7b$$u7b$closure$u7d$$u7d$..$u7b$$u7b$closure$u7d$$u7d$$GT$17hf371855f60714ac5E', symObjAddr: 0x1A98, symBinAddr: 0x4A494, symSize: 0x19C }
  - { offset: 0x1BF9E3, size: 0x8, addend: 0x0, symName: '__ZN4core3ptr400drop_in_place$LT$$LT$pyo3_async_runtimes..tokio..TokioRuntime$u20$as$u20$pyo3_async_runtimes..generic..Runtime$GT$..spawn$LT$pyo3_async_runtimes..generic..future_into_py_with_locals$LT$pyo3_async_runtimes..tokio..TokioRuntime$C$_skreaver..a2a..client..PyA2aClient..send..$u7b$$u7b$closure$u7d$$u7d$$C$_skreaver..a2a..types..PyTask$GT$..$u7b$$u7b$closure$u7d$$u7d$$GT$..$u7b$$u7b$closure$u7d$$u7d$$GT$17ha199d54558571c3bE', symObjAddr: 0x1C34, symBinAddr: 0x4A630, symSize: 0x20 }
  - { offset: 0x1BFA1F, size: 0x8, addend: 0x0, symName: '__ZN4core3ptr404drop_in_place$LT$$LT$pyo3_async_runtimes..tokio..TokioRuntime$u20$as$u20$pyo3_async_runtimes..generic..Runtime$GT$..spawn$LT$pyo3_async_runtimes..generic..future_into_py_with_locals$LT$pyo3_async_runtimes..tokio..TokioRuntime$C$_skreaver..a2a..client..PyA2aClient..get_task..$u7b$$u7b$closure$u7d$$u7d$$C$_skreaver..a2a..types..PyTask$GT$..$u7b$$u7b$closure$u7d$$u7d$$GT$..$u7b$$u7b$closure$u7d$$u7d$$GT$17h870c1b202bd0a61dE', symObjAddr: 0x1C54, symBinAddr: 0x4A650, symSize: 0x1C }
  - { offset: 0x1BFA5B, size: 0x8, addend: 0x0, symName: '__ZN4core3ptr407drop_in_place$LT$$LT$pyo3_async_runtimes..tokio..TokioRuntime$u20$as$u20$pyo3_async_runtimes..generic..Runtime$GT$..spawn$LT$pyo3_async_runtimes..generic..future_into_py_with_locals$LT$pyo3_async_runtimes..tokio..TokioRuntime$C$_skreaver..a2a..client..PyA2aClient..cancel_task..$u7b$$u7b$closure$u7d$$u7d$$C$_skreaver..a2a..types..PyTask$GT$..$u7b$$u7b$closure$u7d$$u7d$$GT$..$u7b$$u7b$closure$u7d$$u7d$$GT$17h0d3150cfa5998196E', symObjAddr: 0x1C70, symBinAddr: 0x4A66C, symSize: 0x1C }
  - { offset: 0x1BFA97, size: 0x8, addend: 0x0, symName: '__ZN4core3ptr408drop_in_place$LT$$LT$pyo3_async_runtimes..tokio..TokioRuntime$u20$as$u20$pyo3_async_runtimes..generic..Runtime$GT$..spawn$LT$pyo3_async_runtimes..generic..future_into_py_with_locals$LT$pyo3_async_runtimes..tokio..TokioRuntime$C$_skreaver..a2a..client..PyA2aClient..send_message..$u7b$$u7b$closure$u7d$$u7d$$C$_skreaver..a2a..types..PyTask$GT$..$u7b$$u7b$closure$u7d$$u7d$$GT$..$u7b$$u7b$closure$u7d$$u7d$$GT$17h75145623a39d375cE', symObjAddr: 0x1C8C, symBinAddr: 0x4A688, symSize: 0x20 }
  - { offset: 0x1BFAD3, size: 0x8, addend: 0x0, symName: '__ZN4core3ptr409drop_in_place$LT$$LT$pyo3_async_runtimes..tokio..TokioRuntime$u20$as$u20$pyo3_async_runtimes..generic..Runtime$GT$..spawn$LT$pyo3_async_runtimes..generic..future_into_py_with_locals$LT$pyo3_async_runtimes..tokio..TokioRuntime$C$_skreaver..a2a..client..PyA2aClient..continue_task..$u7b$$u7b$closure$u7d$$u7d$$C$_skreaver..a2a..types..PyTask$GT$..$u7b$$u7b$closure$u7d$$u7d$$GT$..$u7b$$u7b$closure$u7d$$u7d$$GT$17h780d95a5a2cc3fefE', symObjAddr: 0x1CAC, symBinAddr: 0x4A6A8, symSize: 0x20 }
  - { offset: 0x1BFB0F, size: 0x8, addend: 0x0, symName: '__ZN4core3ptr409drop_in_place$LT$$LT$pyo3_async_runtimes..tokio..TokioRuntime$u20$as$u20$pyo3_async_runtimes..generic..Runtime$GT$..spawn$LT$pyo3_async_runtimes..generic..future_into_py_with_locals$LT$pyo3_async_runtimes..tokio..TokioRuntime$C$_skreaver..a2a..client..PyA2aClient..wait_for_task..$u7b$$u7b$closure$u7d$$u7d$$C$_skreaver..a2a..types..PyTask$GT$..$u7b$$u7b$closure$u7d$$u7d$$GT$..$u7b$$u7b$closure$u7d$$u7d$$GT$17h51220b5872dd03e3E', symObjAddr: 0x1CCC, symBinAddr: 0x4A6C8, symSize: 0x1C }
  - { offset: 0x1BFB4B, size: 0x8, addend: 0x0, symName: '__ZN4core3ptr415drop_in_place$LT$$LT$pyo3_async_runtimes..tokio..TokioRuntime$u20$as$u20$pyo3_async_runtimes..generic..Runtime$GT$..spawn$LT$pyo3_async_runtimes..generic..future_into_py_with_locals$LT$pyo3_async_runtimes..tokio..TokioRuntime$C$_skreaver..a2a..client..PyA2aClient..get_agent_card..$u7b$$u7b$closure$u7d$$u7d$$C$_skreaver..a2a..types..PyAgentCard$GT$..$u7b$$u7b$closure$u7d$$u7d$$GT$..$u7b$$u7b$closure$u7d$$u7d$$GT$17h8a931390c10a289cE', symObjAddr: 0x1CE8, symBinAddr: 0x4A6E4, symSize: 0x1C }
  - { offset: 0x1BFB87, size: 0x8, addend: 0x0, symName: '__ZN4core3ptr429drop_in_place$LT$$LT$pyo3_async_runtimes..tokio..TokioRuntime$u20$as$u20$pyo3_async_runtimes..generic..Runtime$GT$..spawn$LT$pyo3_async_runtimes..generic..future_into_py_with_locals$LT$pyo3_async_runtimes..tokio..TokioRuntime$C$_skreaver..a2a..client..PyA2aClient..send..$u7b$$u7b$closure$u7d$$u7d$$C$_skreaver..a2a..types..PyTask$GT$..$u7b$$u7b$closure$u7d$$u7d$..$u7b$$u7b$closure$u7d$$u7d$$GT$..$u7b$$u7b$closure$u7d$$u7d$$GT$17he79324b5552c5a85E', symObjAddr: 0x1D04, symBinAddr: 0x4A700, symSize: 0x20 }
  - { offset: 0x1BFBC3, size: 0x8, addend: 0x0, symName: '__ZN4core3ptr433drop_in_place$LT$$LT$pyo3_async_runtimes..tokio..TokioRuntime$u20$as$u20$pyo3_async_runtimes..generic..Runtime$GT$..spawn$LT$pyo3_async_runtimes..generic..future_into_py_with_locals$LT$pyo3_async_runtimes..tokio..TokioRuntime$C$_skreaver..a2a..client..PyA2aClient..get_task..$u7b$$u7b$closure$u7d$$u7d$$C$_skreaver..a2a..types..PyTask$GT$..$u7b$$u7b$closure$u7d$$u7d$..$u7b$$u7b$closure$u7d$$u7d$$GT$..$u7b$$u7b$closure$u7d$$u7d$$GT$17hccd5a2927e0d6414E', symObjAddr: 0x1D24, symBinAddr: 0x4A720, symSize: 0x1C }
  - { offset: 0x1BFBFF, size: 0x8, addend: 0x0, symName: '__ZN4core3ptr436drop_in_place$LT$$LT$pyo3_async_runtimes..tokio..TokioRuntime$u20$as$u20$pyo3_async_runtimes..generic..Runtime$GT$..spawn$LT$pyo3_async_runtimes..generic..future_into_py_with_locals$LT$pyo3_async_runtimes..tokio..TokioRuntime$C$_skreaver..a2a..client..PyA2aClient..cancel_task..$u7b$$u7b$closure$u7d$$u7d$$C$_skreaver..a2a..types..PyTask$GT$..$u7b$$u7b$closure$u7d$$u7d$..$u7b$$u7b$closure$u7d$$u7d$$GT$..$u7b$$u7b$closure$u7d$$u7d$$GT$17h699d27c7c3bc456aE', symObjAddr: 0x1D40, symBinAddr: 0x4A73C, symSize: 0x1C }
  - { offset: 0x1BFC3B, size: 0x8, addend: 0x0, symName: '__ZN4core3ptr437drop_in_place$LT$$LT$pyo3_async_runtimes..tokio..TokioRuntime$u20$as$u20$pyo3_async_runtimes..generic..Runtime$GT$..spawn$LT$pyo3_async_runtimes..generic..future_into_py_with_locals$LT$pyo3_async_runtimes..tokio..TokioRuntime$C$_skreaver..a2a..client..PyA2aClient..send_message..$u7b$$u7b$closure$u7d$$u7d$$C$_skreaver..a2a..types..PyTask$GT$..$u7b$$u7b$closure$u7d$$u7d$..$u7b$$u7b$closure$u7d$$u7d$$GT$..$u7b$$u7b$closure$u7d$$u7d$$GT$17h0e9a3482cef1a09fE', symObjAddr: 0x1D5C, symBinAddr: 0x4A758, symSize: 0x20 }
  - { offset: 0x1BFC77, size: 0x8, addend: 0x0, symName: '__ZN4core3ptr438drop_in_place$LT$$LT$pyo3_async_runtimes..tokio..TokioRuntime$u20$as$u20$pyo3_async_runtimes..generic..Runtime$GT$..spawn$LT$pyo3_async_runtimes..generic..future_into_py_with_locals$LT$pyo3_async_runtimes..tokio..TokioRuntime$C$_skreaver..a2a..client..PyA2aClient..continue_task..$u7b$$u7b$closure$u7d$$u7d$$C$_skreaver..a2a..types..PyTask$GT$..$u7b$$u7b$closure$u7d$$u7d$..$u7b$$u7b$closure$u7d$$u7d$$GT$..$u7b$$u7b$closure$u7d$$u7d$$GT$17ha226005eee2dcf2cE', symObjAddr: 0x1D7C, symBinAddr: 0x4A778, symSize: 0x20 }
  - { offset: 0x1BFCB3, size: 0x8, addend: 0x0, symName: '__ZN4core3ptr438drop_in_place$LT$$LT$pyo3_async_runtimes..tokio..TokioRuntime$u20$as$u20$pyo3_async_runtimes..generic..Runtime$GT$..spawn$LT$pyo3_async_runtimes..generic..future_into_py_with_locals$LT$pyo3_async_runtimes..tokio..TokioRuntime$C$_skreaver..a2a..client..PyA2aClient..wait_for_task..$u7b$$u7b$closure$u7d$$u7d$$C$_skreaver..a2a..types..PyTask$GT$..$u7b$$u7b$closure$u7d$$u7d$..$u7b$$u7b$closure$u7d$$u7d$$GT$..$u7b$$u7b$closure$u7d$$u7d$$GT$17h85f5bc58eee8cbdeE', symObjAddr: 0x1D9C, symBinAddr: 0x4A798, symSize: 0x1C }
  - { offset: 0x1BFCEF, size: 0x8, addend: 0x0, symName: '__ZN4core3ptr444drop_in_place$LT$$LT$pyo3_async_runtimes..tokio..TokioRuntime$u20$as$u20$pyo3_async_runtimes..generic..Runtime$GT$..spawn$LT$pyo3_async_runtimes..generic..future_into_py_with_locals$LT$pyo3_async_runtimes..tokio..TokioRuntime$C$_skreaver..a2a..client..PyA2aClient..get_agent_card..$u7b$$u7b$closure$u7d$$u7d$$C$_skreaver..a2a..types..PyAgentCard$GT$..$u7b$$u7b$closure$u7d$$u7d$..$u7b$$u7b$closure$u7d$$u7d$$GT$..$u7b$$u7b$closure$u7d$$u7d$$GT$17hc47aaf116382a4aaE', symObjAddr: 0x1DB8, symBinAddr: 0x4A7B4, symSize: 0x1C }
  - { offset: 0x1BFD2B, size: 0x8, addend: 0x0, symName: '__ZN4core3ptr54drop_in_place$LT$alloc..boxed..Box$LT$url..Url$GT$$GT$17h33c498e1cc9d028cE', symObjAddr: 0x1DD4, symBinAddr: 0x4A7D0, symSize: 0xA0 }
  - { offset: 0x1BFF24, size: 0x8, addend: 0x0, symName: '__ZN4core3ptr87drop_in_place$LT$skreaver_a2a..client..A2aClient..send..$u7b$$u7b$closure$u7d$$u7d$$GT$17ha05d40302da99723E', symObjAddr: 0x1E74, symBinAddr: 0x4A870, symSize: 0x19C }
  - { offset: 0x1C00CB, size: 0x8, addend: 0x0, symName: '__ZN4core3ptr91drop_in_place$LT$_skreaver..a2a..client..PyA2aClient..send..$u7b$$u7b$closure$u7d$$u7d$$GT$17h69f189449a5cc56cE', symObjAddr: 0x2010, symBinAddr: 0x4AA0C, symSize: 0xF0 }
  - { offset: 0x1C0355, size: 0x8, addend: 0x0, symName: '__ZN4core3ptr95drop_in_place$LT$_skreaver..a2a..client..PyA2aClient..get_task..$u7b$$u7b$closure$u7d$$u7d$$GT$17h3c20477a76cac2a8E', symObjAddr: 0x2100, symBinAddr: 0x4AAFC, symSize: 0xF8 }
  - { offset: 0x1C063D, size: 0x8, addend: 0x0, symName: '__ZN4core3ptr98drop_in_place$LT$_skreaver..a2a..client..PyA2aClient..cancel_task..$u7b$$u7b$closure$u7d$$u7d$$GT$17h5b978f7c36ac2cb8E', symObjAddr: 0x21F8, symBinAddr: 0x4ABF4, symSize: 0x1E8 }
  - { offset: 0x1C07C3, size: 0x8, addend: 0x0, symName: '__ZN4core3ptr99drop_in_place$LT$_skreaver..a2a..client..PyA2aClient..send_message..$u7b$$u7b$closure$u7d$$u7d$$GT$17h68c6c51163d5a323E', symObjAddr: 0x23E0, symBinAddr: 0x4ADDC, symSize: 0xA4 }
  - { offset: 0x1CDEBF, size: 0x8, addend: 0x0, symName: '__ZN72_$LT$alloc..boxed..Box$LT$T$C$A$GT$$u20$as$u20$core..ops..drop..Drop$GT$4drop17h6627ab489a85c0d2E', symObjAddr: 0x3934, symBinAddr: 0x4C330, symSize: 0x80 }
  - { offset: 0x1D4A1F, size: 0x8, addend: 0x0, symName: __ZN5tokio7runtime7runtime7Runtime5spawn17h0dddbd3560d461c3E, symObjAddr: 0x2484, symBinAddr: 0x4AE80, symSize: 0x180 }
  - { offset: 0x1D4C16, size: 0x8, addend: 0x0, symName: __ZN5tokio7runtime7runtime7Runtime5spawn17h324f721e1a67c60fE, symObjAddr: 0x2604, symBinAddr: 0x4B000, symSize: 0x178 }
  - { offset: 0x1D4E0D, size: 0x8, addend: 0x0, symName: __ZN5tokio7runtime7runtime7Runtime5spawn17h450e87f1e35fb419E, symObjAddr: 0x277C, symBinAddr: 0x4B178, symSize: 0x178 }
  - { offset: 0x1D5004, size: 0x8, addend: 0x0, symName: __ZN5tokio7runtime7runtime7Runtime5spawn17h47fa82106e595ad0E, symObjAddr: 0x28F4, symBinAddr: 0x4B2F0, symSize: 0x178 }
  - { offset: 0x1D51FB, size: 0x8, addend: 0x0, symName: __ZN5tokio7runtime7runtime7Runtime5spawn17h7daa3e04cab15a0cE, symObjAddr: 0x2A6C, symBinAddr: 0x4B468, symSize: 0x178 }
  - { offset: 0x1D53F2, size: 0x8, addend: 0x0, symName: __ZN5tokio7runtime7runtime7Runtime5spawn17h838c6ac86a10d882E, symObjAddr: 0x2BE4, symBinAddr: 0x4B5E0, symSize: 0x17C }
  - { offset: 0x1D5617, size: 0x8, addend: 0x0, symName: __ZN5tokio7runtime7runtime7Runtime5spawn17ha5c06a3b14098ffeE, symObjAddr: 0x2D60, symBinAddr: 0x4B75C, symSize: 0x178 }
  - { offset: 0x1D580E, size: 0x8, addend: 0x0, symName: __ZN5tokio7runtime7runtime7Runtime5spawn17ha77b69ae582ef51fE, symObjAddr: 0x2ED8, symBinAddr: 0x4B8D4, symSize: 0x17C }
  - { offset: 0x1D5A05, size: 0x8, addend: 0x0, symName: __ZN5tokio7runtime7runtime7Runtime5spawn17ha85d5f1d51ff3398E, symObjAddr: 0x3054, symBinAddr: 0x4BA50, symSize: 0x178 }
  - { offset: 0x1D5BFC, size: 0x8, addend: 0x0, symName: __ZN5tokio7runtime7runtime7Runtime5spawn17ha9d68de025184be9E, symObjAddr: 0x31CC, symBinAddr: 0x4BBC8, symSize: 0x17C }
  - { offset: 0x1D5DF3, size: 0x8, addend: 0x0, symName: __ZN5tokio7runtime7runtime7Runtime5spawn17hccb6e55fb85d39b1E, symObjAddr: 0x3348, symBinAddr: 0x4BD44, symSize: 0x17C }
  - { offset: 0x1D5FEA, size: 0x8, addend: 0x0, symName: __ZN5tokio7runtime7runtime7Runtime5spawn17hdc20b48ea0708088E, symObjAddr: 0x34C4, symBinAddr: 0x4BEC0, symSize: 0x180 }
  - { offset: 0x1D61E1, size: 0x8, addend: 0x0, symName: __ZN5tokio7runtime7runtime7Runtime5spawn17hdf3afe60a15f0658E, symObjAddr: 0x3644, symBinAddr: 0x4C040, symSize: 0x178 }
  - { offset: 0x1D63D8, size: 0x8, addend: 0x0, symName: __ZN5tokio7runtime7runtime7Runtime5spawn17hfe298f2e2bc47926E, symObjAddr: 0x37BC, symBinAddr: 0x4C1B8, symSize: 0x178 }
  - { offset: 0x1D8CD4, size: 0x8, addend: 0x0, symName: __ZN19pyo3_async_runtimes3err10exceptions9RustPanic7new_err17h652b94925a4c0a8bE, symObjAddr: 0x0, symBinAddr: 0x4C3B0, symSize: 0xE0 }
  - { offset: 0x1DA343, size: 0x8, addend: 0x0, symName: '__ZN72_$LT$alloc..boxed..Box$LT$T$C$A$GT$$u20$as$u20$core..ops..drop..Drop$GT$4drop17h6627ab489a85c0d2E', symObjAddr: 0x30E0, symBinAddr: 0x4F448, symSize: 0x80 }
  - { offset: 0x1DA469, size: 0x8, addend: 0x0, symName: '__ZN72_$LT$alloc..boxed..Box$LT$T$C$A$GT$$u20$as$u20$core..ops..drop..Drop$GT$4drop17hcb46f4bf4ceb8de4E', symObjAddr: 0x3160, symBinAddr: 0x4F4C8, symSize: 0xA4 }
  - { offset: 0x1DBF89, size: 0x8, addend: 0x0, symName: __ZN5alloc3fmt6format17h71d6c2af60a0c6e3E, symObjAddr: 0x2F1C, symBinAddr: 0x4F2CC, symSize: 0x17C }
  - { offset: 0x1DCF16, size: 0x8, addend: 0x0, symName: '__ZN4core3ptr100drop_in_place$LT$_skreaver..a2a..client..PyA2aClient..continue_task..$u7b$$u7b$closure$u7d$$u7d$$GT$17hb8bd7c48dfea49e7E', symObjAddr: 0x1AC, symBinAddr: 0x4C55C, symSize: 0xDC }
  - { offset: 0x1DD282, size: 0x8, addend: 0x0, symName: '__ZN4core3ptr100drop_in_place$LT$_skreaver..a2a..client..PyA2aClient..wait_for_task..$u7b$$u7b$closure$u7d$$u7d$$GT$17h42c76a5ad820f21bE', symObjAddr: 0x288, symBinAddr: 0x4C638, symSize: 0x134 }
  - { offset: 0x1DD614, size: 0x8, addend: 0x0, symName: '__ZN4core3ptr101drop_in_place$LT$_skreaver..a2a..client..PyA2aClient..get_agent_card..$u7b$$u7b$closure$u7d$$u7d$$GT$17hb30f2347b02d9a8fE', symObjAddr: 0x3BC, symBinAddr: 0x4C76C, symSize: 0x110 }
  - { offset: 0x1DD687, size: 0x8, addend: 0x0, symName: '__ZN4core3ptr102drop_in_place$LT$core..result..Result$LT$_skreaver..a2a..types..PyAgentCard$C$pyo3..err..PyErr$GT$$GT$17hfae05afee6d652a1E', symObjAddr: 0x4CC, symBinAddr: 0x4C87C, symSize: 0x5C }
  - { offset: 0x1DD852, size: 0x8, addend: 0x0, symName: '__ZN4core3ptr104drop_in_place$LT$skreaver_a2a..client..A2aClient..handle_error_response..$u7b$$u7b$closure$u7d$$u7d$$GT$17h478d008dde96428eE', symObjAddr: 0x528, symBinAddr: 0x4C8D8, symSize: 0xF4 }
  - { offset: 0x1DD922, size: 0x8, addend: 0x0, symName: '__ZN4core3ptr134drop_in_place$LT$reqwest..async_impl..response..Response..json$LT$skreaver_a2a..types..task..Task$GT$..$u7b$$u7b$closure$u7d$$u7d$$GT$17h9f7823f99a0e2560E', symObjAddr: 0x61C, symBinAddr: 0x4C9CC, symSize: 0x80 }
  - { offset: 0x1DD980, size: 0x8, addend: 0x0, symName: '__ZN4core3ptr150drop_in_place$LT$pyo3..err..PyErr..new$LT$pyo3_async_runtimes..err..exceptions..RustPanic$C$alloc..string..String$GT$..$u7b$$u7b$closure$u7d$$u7d$$GT$17h1dca991a31bb114bE', symObjAddr: 0x69C, symBinAddr: 0x4CA4C, symSize: 0x4 }
  - { offset: 0x1DD99B, size: 0x8, addend: 0x0, symName: '__ZN4core3ptr259drop_in_place$LT$pyo3_async_runtimes..generic..future_into_py_with_locals$LT$pyo3_async_runtimes..tokio..TokioRuntime$C$_skreaver..a2a..client..PyA2aClient..send..$u7b$$u7b$closure$u7d$$u7d$$C$_skreaver..a2a..types..PyTask$GT$..$u7b$$u7b$closure$u7d$$u7d$$GT$17h1532463bb5a15777E', symObjAddr: 0x6A0, symBinAddr: 0x4CA50, symSize: 0x1C4 }
  - { offset: 0x1DDCAD, size: 0x8, addend: 0x0, symName: '__ZN4core3ptr263drop_in_place$LT$pyo3_async_runtimes..generic..future_into_py_with_locals$LT$pyo3_async_runtimes..tokio..TokioRuntime$C$_skreaver..a2a..client..PyA2aClient..get_task..$u7b$$u7b$closure$u7d$$u7d$$C$_skreaver..a2a..types..PyTask$GT$..$u7b$$u7b$closure$u7d$$u7d$$GT$17h459068b4cf290653E', symObjAddr: 0x864, symBinAddr: 0x4CC14, symSize: 0x1C4 }
  - { offset: 0x1DDFBF, size: 0x8, addend: 0x0, symName: '__ZN4core3ptr266drop_in_place$LT$pyo3_async_runtimes..generic..future_into_py_with_locals$LT$pyo3_async_runtimes..tokio..TokioRuntime$C$_skreaver..a2a..client..PyA2aClient..cancel_task..$u7b$$u7b$closure$u7d$$u7d$$C$_skreaver..a2a..types..PyTask$GT$..$u7b$$u7b$closure$u7d$$u7d$$GT$17h4f23fba6d1940a5fE', symObjAddr: 0xA28, symBinAddr: 0x4CDD8, symSize: 0x1C4 }
  - { offset: 0x1DE2D1, size: 0x8, addend: 0x0, symName: '__ZN4core3ptr267drop_in_place$LT$pyo3_async_runtimes..generic..future_into_py_with_locals$LT$pyo3_async_runtimes..tokio..TokioRuntime$C$_skreaver..a2a..client..PyA2aClient..send_message..$u7b$$u7b$closure$u7d$$u7d$$C$_skreaver..a2a..types..PyTask$GT$..$u7b$$u7b$closure$u7d$$u7d$$GT$17hc4400d43b0c04680E', symObjAddr: 0xBEC, symBinAddr: 0x4CF9C, symSize: 0x1C4 }
  - { offset: 0x1DE5B3, size: 0x8, addend: 0x0, symName: '__ZN4core3ptr268drop_in_place$LT$pyo3_async_runtimes..generic..future_into_py_with_locals$LT$pyo3_async_runtimes..tokio..TokioRuntime$C$_skreaver..a2a..client..PyA2aClient..continue_task..$u7b$$u7b$closure$u7d$$u7d$$C$_skreaver..a2a..types..PyTask$GT$..$u7b$$u7b$closure$u7d$$u7d$$GT$17hcc95eab0dc351d4cE', symObjAddr: 0xDB0, symBinAddr: 0x4D160, symSize: 0x1C4 }
  - { offset: 0x1DE895, size: 0x8, addend: 0x0, symName: '__ZN4core3ptr268drop_in_place$LT$pyo3_async_runtimes..generic..future_into_py_with_locals$LT$pyo3_async_runtimes..tokio..TokioRuntime$C$_skreaver..a2a..client..PyA2aClient..wait_for_task..$u7b$$u7b$closure$u7d$$u7d$$C$_skreaver..a2a..types..PyTask$GT$..$u7b$$u7b$closure$u7d$$u7d$$GT$17h6308346499182bbbE', symObjAddr: 0xF74, symBinAddr: 0x4D324, symSize: 0x1C4 }
  - { offset: 0x1DEB77, size: 0x8, addend: 0x0, symName: '__ZN4core3ptr274drop_in_place$LT$pyo3_async_runtimes..generic..future_into_py_with_locals$LT$pyo3_async_runtimes..tokio..TokioRuntime$C$_skreaver..a2a..client..PyA2aClient..get_agent_card..$u7b$$u7b$closure$u7d$$u7d$$C$_skreaver..a2a..types..PyAgentCard$GT$..$u7b$$u7b$closure$u7d$$u7d$$GT$17h7bebb759383aba8aE', symObjAddr: 0x1138, symBinAddr: 0x4D4E8, symSize: 0x1C4 }
  - { offset: 0x1DEE59, size: 0x8, addend: 0x0, symName: '__ZN4core3ptr288drop_in_place$LT$pyo3_async_runtimes..generic..future_into_py_with_locals$LT$pyo3_async_runtimes..tokio..TokioRuntime$C$_skreaver..a2a..client..PyA2aClient..send..$u7b$$u7b$closure$u7d$$u7d$$C$_skreaver..a2a..types..PyTask$GT$..$u7b$$u7b$closure$u7d$$u7d$..$u7b$$u7b$closure$u7d$$u7d$$GT$17h8f9c8c59acc5c1dbE', symObjAddr: 0x12FC, symBinAddr: 0x4D6AC, symSize: 0x19C }
  - { offset: 0x1DF0DC, size: 0x8, addend: 0x0, symName: '__ZN4core3ptr288drop_in_place$LT$pyo3_async_runtimes..generic..future_into_py_with_locals$LT$pyo3_async_runtimes..tokio..TokioRuntime$C$_skreaver..a2a..client..PyA2aClient..send..$u7b$$u7b$closure$u7d$$u7d$$C$_skreaver..a2a..types..PyTask$GT$..$u7b$$u7b$closure$u7d$$u7d$..$u7b$$u7b$closure$u7d$$u7d$$GT$17hddaa6689f0a6d467E', symObjAddr: 0x1498, symBinAddr: 0x4D848, symSize: 0x6C }
  - { offset: 0x1DF132, size: 0x8, addend: 0x0, symName: '__ZN4core3ptr292drop_in_place$LT$pyo3_async_runtimes..generic..future_into_py_with_locals$LT$pyo3_async_runtimes..tokio..TokioRuntime$C$_skreaver..a2a..client..PyA2aClient..get_task..$u7b$$u7b$closure$u7d$$u7d$$C$_skreaver..a2a..types..PyTask$GT$..$u7b$$u7b$closure$u7d$$u7d$..$u7b$$u7b$closure$u7d$$u7d$$GT$17h2cd53f98ce7a6b83E', symObjAddr: 0x1504, symBinAddr: 0x4D8B4, symSize: 0x6C }
  - { offset: 0x1DF188, size: 0x8, addend: 0x0, symName: '__ZN4core3ptr292drop_in_place$LT$pyo3_async_runtimes..generic..future_into_py_with_locals$LT$pyo3_async_runtimes..tokio..TokioRuntime$C$_skreaver..a2a..client..PyA2aClient..get_task..$u7b$$u7b$closure$u7d$$u7d$$C$_skreaver..a2a..types..PyTask$GT$..$u7b$$u7b$closure$u7d$$u7d$..$u7b$$u7b$closure$u7d$$u7d$$GT$17hd46fa6be90ba50f8E', symObjAddr: 0x1570, symBinAddr: 0x4D920, symSize: 0x19C }
  - { offset: 0x1DF40B, size: 0x8, addend: 0x0, symName: '__ZN4core3ptr295drop_in_place$LT$pyo3_async_runtimes..generic..future_into_py_with_locals$LT$pyo3_async_runtimes..tokio..TokioRuntime$C$_skreaver..a2a..client..PyA2aClient..cancel_task..$u7b$$u7b$closure$u7d$$u7d$$C$_skreaver..a2a..types..PyTask$GT$..$u7b$$u7b$closure$u7d$$u7d$..$u7b$$u7b$closure$u7d$$u7d$$GT$17h266345de04ab795bE', symObjAddr: 0x170C, symBinAddr: 0x4DABC, symSize: 0x19C }
  - { offset: 0x1DF68E, size: 0x8, addend: 0x0, symName: '__ZN4core3ptr295drop_in_place$LT$pyo3_async_runtimes..generic..future_into_py_with_locals$LT$pyo3_async_runtimes..tokio..TokioRuntime$C$_skreaver..a2a..client..PyA2aClient..cancel_task..$u7b$$u7b$closure$u7d$$u7d$$C$_skreaver..a2a..types..PyTask$GT$..$u7b$$u7b$closure$u7d$$u7d$..$u7b$$u7b$closure$u7d$$u7d$$GT$17hba70afe84544a514E', symObjAddr: 0x18A8, symBinAddr: 0x4DC58, symSize: 0x6C }
  - { offset: 0x1DF6E4, size: 0x8, addend: 0x0, symName: '__ZN4core3ptr296drop_in_place$LT$pyo3_async_runtimes..generic..future_into_py_with_locals$LT$pyo3_async_runtimes..tokio..TokioRuntime$C$_skreaver..a2a..client..PyA2aClient..send_message..$u7b$$u7b$closure$u7d$$u7d$$C$_skreaver..a2a..types..PyTask$GT$..$u7b$$u7b$closure$u7d$$u7d$..$u7b$$u7b$closure$u7d$$u7d$$GT$17h24ce77fdca32ccfeE', symObjAddr: 0x1914, symBinAddr: 0x4DCC4, symSize: 0x19C }
  - { offset: 0x1DF967, size: 0x8, addend: 0x0, symName: '__ZN4core3ptr296drop_in_place$LT$pyo3_async_runtimes..generic..future_into_py_with_locals$LT$pyo3_async_runtimes..tokio..TokioRuntime$C$_skreaver..a2a..client..PyA2aClient..send_message..$u7b$$u7b$closure$u7d$$u7d$$C$_skreaver..a2a..types..PyTask$GT$..$u7b$$u7b$closure$u7d$$u7d$..$u7b$$u7b$closure$u7d$$u7d$$GT$17h4e2d9583a021516dE', symObjAddr: 0x1AB0, symBinAddr: 0x4DE60, symSize: 0x6C }
  - { offset: 0x1DF9BD, size: 0x8, addend: 0x0, symName: '__ZN4core3ptr297drop_in_place$LT$pyo3_async_runtimes..generic..future_into_py_with_locals$LT$pyo3_async_runtimes..tokio..TokioRuntime$C$_skreaver..a2a..client..PyA2aClient..continue_task..$u7b$$u7b$closure$u7d$$u7d$$C$_skreaver..a2a..types..PyTask$GT$..$u7b$$u7b$closure$u7d$$u7d$..$u7b$$u7b$closure$u7d$$u7d$$GT$17h59942c36ded14b8fE', symObjAddr: 0x1B1C, symBinAddr: 0x4DECC, symSize: 0x19C }
  - { offset: 0x1DFC40, size: 0x8, addend: 0x0, symName: '__ZN4core3ptr297drop_in_place$LT$pyo3_async_runtimes..generic..future_into_py_with_locals$LT$pyo3_async_runtimes..tokio..TokioRuntime$C$_skreaver..a2a..client..PyA2aClient..continue_task..$u7b$$u7b$closure$u7d$$u7d$$C$_skreaver..a2a..types..PyTask$GT$..$u7b$$u7b$closure$u7d$$u7d$..$u7b$$u7b$closure$u7d$$u7d$$GT$17hc47b4eee8f7d364dE', symObjAddr: 0x1CB8, symBinAddr: 0x4E068, symSize: 0x6C }
  - { offset: 0x1DFC96, size: 0x8, addend: 0x0, symName: '__ZN4core3ptr297drop_in_place$LT$pyo3_async_runtimes..generic..future_into_py_with_locals$LT$pyo3_async_runtimes..tokio..TokioRuntime$C$_skreaver..a2a..client..PyA2aClient..wait_for_task..$u7b$$u7b$closure$u7d$$u7d$$C$_skreaver..a2a..types..PyTask$GT$..$u7b$$u7b$closure$u7d$$u7d$..$u7b$$u7b$closure$u7d$$u7d$$GT$17h304cfdd2af2bb187E', symObjAddr: 0x1D24, symBinAddr: 0x4E0D4, symSize: 0x6C }
  - { offset: 0x1DFCEC, size: 0x8, addend: 0x0, symName: '__ZN4core3ptr297drop_in_place$LT$pyo3_async_runtimes..generic..future_into_py_with_locals$LT$pyo3_async_runtimes..tokio..TokioRuntime$C$_skreaver..a2a..client..PyA2aClient..wait_for_task..$u7b$$u7b$closure$u7d$$u7d$$C$_skreaver..a2a..types..PyTask$GT$..$u7b$$u7b$closure$u7d$$u7d$..$u7b$$u7b$closure$u7d$$u7d$$GT$17h9e16a26a83c1f3daE', symObjAddr: 0x1D90, symBinAddr: 0x4E140, symSize: 0x19C }
  - { offset: 0x1DFF6F, size: 0x8, addend: 0x0, symName: '__ZN4core3ptr303drop_in_place$LT$pyo3_async_runtimes..generic..future_into_py_with_locals$LT$pyo3_async_runtimes..tokio..TokioRuntime$C$_skreaver..a2a..client..PyA2aClient..get_agent_card..$u7b$$u7b$closure$u7d$$u7d$$C$_skreaver..a2a..types..PyAgentCard$GT$..$u7b$$u7b$closure$u7d$$u7d$..$u7b$$u7b$closure$u7d$$u7d$$GT$17h3309683e5107eca4E', symObjAddr: 0x1F2C, symBinAddr: 0x4E2DC, symSize: 0x6C }
  - { offset: 0x1DFFC5, size: 0x8, addend: 0x0, symName: '__ZN4core3ptr303drop_in_place$LT$pyo3_async_runtimes..generic..future_into_py_with_locals$LT$pyo3_async_runtimes..tokio..TokioRuntime$C$_skreaver..a2a..client..PyA2aClient..get_agent_card..$u7b$$u7b$closure$u7d$$u7d$$C$_skreaver..a2a..types..PyAgentCard$GT$..$u7b$$u7b$closure$u7d$$u7d$..$u7b$$u7b$closure$u7d$$u7d$$GT$17hf371855f60714ac5E', symObjAddr: 0x1F98, symBinAddr: 0x4E348, symSize: 0x19C }
  - { offset: 0x1E0267, size: 0x8, addend: 0x0, symName: '__ZN4core3ptr317drop_in_place$LT$pyo3_async_runtimes..generic..future_into_py_with_locals$LT$pyo3_async_runtimes..tokio..TokioRuntime$C$_skreaver..a2a..client..PyA2aClient..send..$u7b$$u7b$closure$u7d$$u7d$$C$_skreaver..a2a..types..PyTask$GT$..$u7b$$u7b$closure$u7d$$u7d$..$u7b$$u7b$closure$u7d$$u7d$..$u7b$$u7b$closure$u7d$$u7d$$GT$17h68d4c265acbe9771E', symObjAddr: 0x2134, symBinAddr: 0x4E4E4, symSize: 0xD0 }
  - { offset: 0x1E035F, size: 0x8, addend: 0x0, symName: '__ZN4core3ptr321drop_in_place$LT$pyo3_async_runtimes..generic..future_into_py_with_locals$LT$pyo3_async_runtimes..tokio..TokioRuntime$C$_skreaver..a2a..client..PyA2aClient..get_task..$u7b$$u7b$closure$u7d$$u7d$$C$_skreaver..a2a..types..PyTask$GT$..$u7b$$u7b$closure$u7d$$u7d$..$u7b$$u7b$closure$u7d$$u7d$..$u7b$$u7b$closure$u7d$$u7d$$GT$17h60bb1a1f6d765d19E', symObjAddr: 0x2204, symBinAddr: 0x4E5B4, symSize: 0xD0 }
  - { offset: 0x1E0457, size: 0x8, addend: 0x0, symName: '__ZN4core3ptr324drop_in_place$LT$pyo3_async_runtimes..generic..future_into_py_with_locals$LT$pyo3_async_runtimes..tokio..TokioRuntime$C$_skreaver..a2a..client..PyA2aClient..cancel_task..$u7b$$u7b$closure$u7d$$u7d$$C$_skreaver..a2a..types..PyTask$GT$..$u7b$$u7b$closure$u7d$$u7d$..$u7b$$u7b$closure$u7d$$u7d$..$u7b$$u7b$closure$u7d$$u7d$$GT$17hce0d210992d1c756E', symObjAddr: 0x22D4, symBinAddr: 0x4E684, symSize: 0xD0 }
  - { offset: 0x1E054F, size: 0x8, addend: 0x0, symName: '__ZN4core3ptr325drop_in_place$LT$pyo3_async_runtimes..generic..future_into_py_with_locals$LT$pyo3_async_runtimes..tokio..TokioRuntime$C$_skreaver..a2a..client..PyA2aClient..send_message..$u7b$$u7b$closure$u7d$$u7d$$C$_skreaver..a2a..types..PyTask$GT$..$u7b$$u7b$closure$u7d$$u7d$..$u7b$$u7b$closure$u7d$$u7d$..$u7b$$u7b$closure$u7d$$u7d$$GT$17hf489a1384f2bbe4bE', symObjAddr: 0x23A4, symBinAddr: 0x4E754, symSize: 0xD0 }
  - { offset: 0x1E0647, size: 0x8, addend: 0x0, symName: '__ZN4core3ptr326drop_in_place$LT$pyo3_async_runtimes..generic..future_into_py_with_locals$LT$pyo3_async_runtimes..tokio..TokioRuntime$C$_skreaver..a2a..client..PyA2aClient..continue_task..$u7b$$u7b$closure$u7d$$u7d$$C$_skreaver..a2a..types..PyTask$GT$..$u7b$$u7b$closure$u7d$$u7d$..$u7b$$u7b$closure$u7d$$u7d$..$u7b$$u7b$closure$u7d$$u7d$$GT$17h359f83d3889ca742E', symObjAddr: 0x2474, symBinAddr: 0x4E824, symSize: 0xD0 }
  - { offset: 0x1E073F, size: 0x8, addend: 0x0, symName: '__ZN4core3ptr326drop_in_place$LT$pyo3_async_runtimes..generic..future_into_py_with_locals$LT$pyo3_async_runtimes..tokio..TokioRuntime$C$_skreaver..a2a..client..PyA2aClient..wait_for_task..$u7b$$u7b$closure$u7d$$u7d$$C$_skreaver..a2a..types..PyTask$GT$..$u7b$$u7b$closure$u7d$$u7d$..$u7b$$u7b$closure$u7d$$u7d$..$u7b$$u7b$closure$u7d$$u7d$$GT$17hbe31418d4b3bc961E', symObjAddr: 0x2544, symBinAddr: 0x4E8F4, symSize: 0xD0 }
  - { offset: 0x1E0856, size: 0x8, addend: 0x0, symName: '__ZN4core3ptr332drop_in_place$LT$pyo3_async_runtimes..generic..future_into_py_with_locals$LT$pyo3_async_runtimes..tokio..TokioRuntime$C$_skreaver..a2a..client..PyA2aClient..get_agent_card..$u7b$$u7b$closure$u7d$$u7d$$C$_skreaver..a2a..types..PyAgentCard$GT$..$u7b$$u7b$closure$u7d$$u7d$..$u7b$$u7b$closure$u7d$$u7d$..$u7b$$u7b$closure$u7d$$u7d$$GT$17h64486d2ba09c0c00E', symObjAddr: 0x2614, symBinAddr: 0x4E9C4, symSize: 0xD0 }
  - { offset: 0x1E094E, size: 0x8, addend: 0x0, symName: '__ZN4core3ptr54drop_in_place$LT$alloc..boxed..Box$LT$url..Url$GT$$GT$17h33c498e1cc9d028cE', symObjAddr: 0x26E4, symBinAddr: 0x4EA94, symSize: 0xA0 }
  - { offset: 0x1E0A9D, size: 0x8, addend: 0x0, symName: '__ZN4core3ptr73drop_in_place$LT$pyo3..instance..Bound$LT$pyo3..types..any..PyAny$GT$$GT$17h9618b511440d036eE', symObjAddr: 0x2784, symBinAddr: 0x4EB34, symSize: 0x5C }
  - { offset: 0x1E0BE3, size: 0x8, addend: 0x0, symName: '__ZN4core3ptr87drop_in_place$LT$skreaver_a2a..client..A2aClient..send..$u7b$$u7b$closure$u7d$$u7d$$GT$17ha05d40302da99723E', symObjAddr: 0x27E0, symBinAddr: 0x4EB90, symSize: 0x19C }
  - { offset: 0x1E0D8A, size: 0x8, addend: 0x0, symName: '__ZN4core3ptr91drop_in_place$LT$_skreaver..a2a..client..PyA2aClient..send..$u7b$$u7b$closure$u7d$$u7d$$GT$17h69f189449a5cc56cE', symObjAddr: 0x297C, symBinAddr: 0x4ED2C, symSize: 0xF0 }
  - { offset: 0x1E0E23, size: 0x8, addend: 0x0, symName: '__ZN4core3ptr91drop_in_place$LT$alloc..boxed..Box$LT$dyn$u20$core..any..Any$u2b$core..marker..Send$GT$$GT$17h94a5f798ba86b9f8E', symObjAddr: 0x2A6C, symBinAddr: 0x4EE1C, symSize: 0xD0 }
  - { offset: 0x1E117A, size: 0x8, addend: 0x0, symName: '__ZN4core3ptr95drop_in_place$LT$_skreaver..a2a..client..PyA2aClient..get_task..$u7b$$u7b$closure$u7d$$u7d$$GT$17h3c20477a76cac2a8E', symObjAddr: 0x2B3C, symBinAddr: 0x4EEEC, symSize: 0xF8 }
  - { offset: 0x1E11CE, size: 0x8, addend: 0x0, symName: '__ZN4core3ptr97drop_in_place$LT$core..result..Result$LT$_skreaver..a2a..types..PyTask$C$pyo3..err..PyErr$GT$$GT$17hc6a1811124ae95ffE', symObjAddr: 0x2C34, symBinAddr: 0x4EFE4, symSize: 0x5C }
  - { offset: 0x1E14E0, size: 0x8, addend: 0x0, symName: '__ZN4core3ptr98drop_in_place$LT$_skreaver..a2a..client..PyA2aClient..cancel_task..$u7b$$u7b$closure$u7d$$u7d$$GT$17h5b978f7c36ac2cb8E', symObjAddr: 0x2C90, symBinAddr: 0x4F040, symSize: 0x1E8 }
  - { offset: 0x1E1666, size: 0x8, addend: 0x0, symName: '__ZN4core3ptr99drop_in_place$LT$_skreaver..a2a..client..PyA2aClient..send_message..$u7b$$u7b$closure$u7d$$u7d$$GT$17h68c6c51163d5a323E', symObjAddr: 0x2E78, symBinAddr: 0x4F228, symSize: 0xA4 }
  - { offset: 0x1E6889, size: 0x8, addend: 0x0, symName: '__ZN4core3ops8function6FnOnce40call_once$u7b$$u7b$vtable.shim$u7d$$u7d$17h56e1a2cc2c07d8e8E', symObjAddr: 0xE0, symBinAddr: 0x4C490, symSize: 0xCC }
  - { offset: 0x1E7762, size: 0x8, addend: 0x0, symName: '__ZN72_$LT$core..pin..Pin$LT$P$GT$$u20$as$u20$core..future..future..Future$GT$4poll17h015fef109426882eE', symObjAddr: 0x3204, symBinAddr: 0x4F56C, symSize: 0x6D4 }
  - { offset: 0x1E7C41, size: 0x8, addend: 0x0, symName: '__ZN72_$LT$core..pin..Pin$LT$P$GT$$u20$as$u20$core..future..future..Future$GT$4poll17h0d347d8b911e84a3E', symObjAddr: 0x38D8, symBinAddr: 0x4FC40, symSize: 0x728 }
  - { offset: 0x1E80C2, size: 0x8, addend: 0x0, symName: '__ZN72_$LT$core..pin..Pin$LT$P$GT$$u20$as$u20$core..future..future..Future$GT$4poll17h1d52754191af55e5E', symObjAddr: 0x4000, symBinAddr: 0x50368, symSize: 0x758 }
  - { offset: 0x1E8543, size: 0x8, addend: 0x0, symName: '__ZN72_$LT$core..pin..Pin$LT$P$GT$$u20$as$u20$core..future..future..Future$GT$4poll17h462b75f41a4f7cbcE', symObjAddr: 0x4758, symBinAddr: 0x50AC0, symSize: 0x6BC }
  - { offset: 0x1E8A22, size: 0x8, addend: 0x0, symName: '__ZN72_$LT$core..pin..Pin$LT$P$GT$$u20$as$u20$core..future..future..Future$GT$4poll17h48dd5c5a318ee4d0E', symObjAddr: 0x4E14, symBinAddr: 0x5117C, symSize: 0x76C }
  - { offset: 0x1E8EA3, size: 0x8, addend: 0x0, symName: '__ZN72_$LT$core..pin..Pin$LT$P$GT$$u20$as$u20$core..future..future..Future$GT$4poll17h4eb26dd13877e7fcE', symObjAddr: 0x5580, symBinAddr: 0x518E8, symSize: 0x72C }
  - { offset: 0x1E9324, size: 0x8, addend: 0x0, symName: '__ZN72_$LT$core..pin..Pin$LT$P$GT$$u20$as$u20$core..future..future..Future$GT$4poll17h6f3d519fae13fedaE', symObjAddr: 0x5CAC, symBinAddr: 0x52014, symSize: 0x72C }
  - { offset: 0x1E97A5, size: 0x8, addend: 0x0, symName: '__ZN72_$LT$core..pin..Pin$LT$P$GT$$u20$as$u20$core..future..future..Future$GT$4poll17h81a872e3ad06ed37E', symObjAddr: 0x63D8, symBinAddr: 0x52740, symSize: 0x6BC }
  - { offset: 0x1E9C84, size: 0x8, addend: 0x0, symName: '__ZN72_$LT$core..pin..Pin$LT$P$GT$$u20$as$u20$core..future..future..Future$GT$4poll17hb1a0ef40f153f915E', symObjAddr: 0x6A94, symBinAddr: 0x52DFC, symSize: 0x6BC }
  - { offset: 0x1EA193, size: 0x8, addend: 0x0, symName: '__ZN72_$LT$core..pin..Pin$LT$P$GT$$u20$as$u20$core..future..future..Future$GT$4poll17hce707f1b66b0653dE', symObjAddr: 0x7150, symBinAddr: 0x534B8, symSize: 0x648 }
  - { offset: 0x1EA67B, size: 0x8, addend: 0x0, symName: '__ZN72_$LT$core..pin..Pin$LT$P$GT$$u20$as$u20$core..future..future..Future$GT$4poll17hd0fb3d42189612efE', symObjAddr: 0x7798, symBinAddr: 0x53B00, symSize: 0x72C }
  - { offset: 0x1EAAFC, size: 0x8, addend: 0x0, symName: '__ZN72_$LT$core..pin..Pin$LT$P$GT$$u20$as$u20$core..future..future..Future$GT$4poll17he0c7af84f7f89d05E', symObjAddr: 0x7EC4, symBinAddr: 0x5422C, symSize: 0x6C8 }
  - { offset: 0x1EAFDB, size: 0x8, addend: 0x0, symName: '__ZN72_$LT$core..pin..Pin$LT$P$GT$$u20$as$u20$core..future..future..Future$GT$4poll17hf8c0b0f8eaf43c23E', symObjAddr: 0x858C, symBinAddr: 0x548F4, symSize: 0x6DC }
  - { offset: 0x1EB4BA, size: 0x8, addend: 0x0, symName: '__ZN72_$LT$core..pin..Pin$LT$P$GT$$u20$as$u20$core..future..future..Future$GT$4poll17hfdb7e21d07e17771E', symObjAddr: 0x8C68, symBinAddr: 0x54FD0, symSize: 0x73C }
  - { offset: 0x1F71A5, size: 0x8, addend: 0x0, symName: __ZN19pyo3_async_runtimes3err10exceptions9RustPanic7new_err17h652b94925a4c0a8bE, symObjAddr: 0x0, symBinAddr: 0x4C3B0, symSize: 0xE0 }
  - { offset: 0x1FDACB, size: 0x8, addend: 0x0, symName: '__ZN12skreaver_a2a5types4task1_88_$LT$impl$u20$serde_core..ser..Serialize$u20$for$u20$skreaver_a2a..types..task..Task$GT$9serialize17h178f8b8c4b9f09a1E', symObjAddr: 0x0, symBinAddr: 0x5570C, symSize: 0x270 }
  - { offset: 0x1FDAE3, size: 0x8, addend: 0x0, symName: _anon.421e655c3d10514870cdcd0e92cc5a94.2, symObjAddr: 0x1310, symBinAddr: 0x5134D8, symSize: 0x0 }
  - { offset: 0x1FDEC4, size: 0x8, addend: 0x0, symName: '__ZN192_$LT$skreaver_a2a..types..task.._..$LT$impl$u20$serde_core..de..Deserialize$u20$for$u20$skreaver_a2a..types..task..TaskStatus$GT$..deserialize..__Visitor$u20$as$u20$serde_core..de..Visitor$GT$10visit_enum17h68dce00a7304ff1bE', symObjAddr: 0xDD8, symBinAddr: 0x56484, symSize: 0x8C }
  - { offset: 0x1FDF77, size: 0x8, addend: 0x0, symName: '__ZN191_$LT$skreaver_a2a..types..task.._..$LT$impl$u20$serde_core..de..Deserialize$u20$for$u20$skreaver_a2a..types..task..Task$GT$..deserialize..__FieldVisitor$u20$as$u20$serde_core..de..Visitor$GT$9visit_str17h9ef88ac520b82e53E', symObjAddr: 0xC84, symBinAddr: 0x56330, symSize: 0x154 }
  - { offset: 0x1FE2EA, size: 0x8, addend: 0x0, symName: '__ZN12skreaver_a2a5types4task1_88_$LT$impl$u20$serde_core..ser..Serialize$u20$for$u20$skreaver_a2a..types..task..Task$GT$9serialize17h178f8b8c4b9f09a1E', symObjAddr: 0x0, symBinAddr: 0x5570C, symSize: 0x270 }
  - { offset: 0x1FE545, size: 0x8, addend: 0x0, symName: '__ZN12skreaver_a2a5types4task1_94_$LT$impl$u20$serde_core..ser..Serialize$u20$for$u20$skreaver_a2a..types..task..TaskStatus$GT$9serialize17h3e9944fdfc890a5cE', symObjAddr: 0x2D0, symBinAddr: 0x5597C, symSize: 0x330 }
  - { offset: 0x1FF825, size: 0x8, addend: 0x0, symName: '__ZN12skreaver_a2a5types4task1_94_$LT$impl$u20$serde_core..ser..Serialize$u20$for$u20$skreaver_a2a..types..task..TaskStatus$GT$9serialize17h574b23e561356fadE', symObjAddr: 0x600, symBinAddr: 0x55CAC, symSize: 0xC0 }
  - { offset: 0x1FF866, size: 0x8, addend: 0x0, symName: '__ZN12skreaver_a2a5types4task1_95_$LT$impl$u20$serde_core..de..Deserialize$u20$for$u20$skreaver_a2a..types..task..TaskStatus$GT$11deserialize17h40c8a1162ae10809E', symObjAddr: 0x6C0, symBinAddr: 0x55D6C, symSize: 0x338 }
  - { offset: 0x1FFA08, size: 0x8, addend: 0x0, symName: '__ZN12skreaver_a2a5types4task1_95_$LT$impl$u20$serde_core..de..Deserialize$u20$for$u20$skreaver_a2a..types..task..TaskStatus$GT$11deserialize17h7818a9f07adc30eeE', symObjAddr: 0x9F8, symBinAddr: 0x560A4, symSize: 0x14C }
  - { offset: 0x2005CE, size: 0x8, addend: 0x0, symName: '__ZN4core3ptr45drop_in_place$LT$serde_json..value..Value$GT$17hc94cdcf2b4baa5acE', symObjAddr: 0xEA4, symBinAddr: 0x56548, symSize: 0x2C }
  - { offset: 0x20060A, size: 0x8, addend: 0x0, symName: '__ZN4core3ptr57drop_in_place$LT$serde_json..value..ser..SerializeMap$GT$17ha8e1ad11403c96aeE', symObjAddr: 0xED0, symBinAddr: 0x56574, symSize: 0xD4 }
  - { offset: 0x20115B, size: 0x8, addend: 0x0, symName: __ZN4core3ops8function6FnOnce9call_once17h8621167faccf7d06E, symObjAddr: 0xE70, symBinAddr: 0x56514, symSize: 0x34 }
  - { offset: 0x202C95, size: 0x8, addend: 0x0, symName: '__ZN46_$LT$T$u20$as$u20$serde_core..de..Expected$GT$3fmt17h2a557dafba748f42E', symObjAddr: 0xE6C, symBinAddr: 0x56510, symSize: 0x4 }
  - { offset: 0x202D44, size: 0x8, addend: 0x0, symName: __ZN12skreaver_a2a5types4task4Task3new17hb5cac69864974689E, symObjAddr: 0xB44, symBinAddr: 0x561F0, symSize: 0x140 }
  - { offset: 0x20339A, size: 0x8, addend: 0x0, symName: '__ZN4core3ops8function6FnOnce40call_once$u7b$$u7b$vtable.shim$u7d$$u7d$17h3b24fc56eaf24ff0E', symObjAddr: 0x0, symBinAddr: 0x56648, symSize: 0xB0 }
  - { offset: 0x20348D, size: 0x8, addend: 0x0, symName: '__ZN58_$LT$alloc..string..String$u20$as$u20$core..fmt..Write$GT$10write_char17h5afa657ba1086fe6E', symObjAddr: 0x8CC, symBinAddr: 0x56F14, symSize: 0x108 }
  - { offset: 0x20369A, size: 0x8, addend: 0x0, symName: '__ZN58_$LT$alloc..string..String$u20$as$u20$core..fmt..Write$GT$9write_str17hba5566b7261b3df3E', symObjAddr: 0x9D4, symBinAddr: 0x5701C, symSize: 0x24 }
  - { offset: 0x2037F8, size: 0x8, addend: 0x0, symName: '__ZN60_$LT$alloc..string..String$u20$as$u20$core..fmt..Display$GT$3fmt17h55315b95f551f900E', symObjAddr: 0xB74, symBinAddr: 0x571BC, symSize: 0x5C }
  - { offset: 0x2044DC, size: 0x8, addend: 0x0, symName: __ZN5alloc3fmt6format17h71d6c2af60a0c6e3E, symObjAddr: 0x9F8, symBinAddr: 0x57040, symSize: 0x17C }
  - { offset: 0x204FFE, size: 0x8, addend: 0x0, symName: '__ZN4core3ptr105drop_in_place$LT$std..sync..poison..mutex..MutexGuard$LT$skreaver_memory..file_memory..FileMemory$GT$$GT$17hfb598c9a622d7c08E', symObjAddr: 0x2E8, symBinAddr: 0x56930, symSize: 0x50 }
  - { offset: 0x205187, size: 0x8, addend: 0x0, symName: '__ZN4core3ptr131drop_in_place$LT$pyo3..err..PyErr..new$LT$pyo3..exceptions..PyKeyError$C$alloc..string..String$GT$..$u7b$$u7b$closure$u7d$$u7d$$GT$17h3a8a94cfbf824d24E', symObjAddr: 0x338, symBinAddr: 0x56980, symSize: 0x4 }
  - { offset: 0x2051A2, size: 0x8, addend: 0x0, symName: '__ZN4core3ptr133drop_in_place$LT$pyo3..err..PyErr..new$LT$_skreaver..errors..MemoryError$C$alloc..string..String$GT$..$u7b$$u7b$closure$u7d$$u7d$$GT$17h90f92dbafaa9f922E', symObjAddr: 0x33C, symBinAddr: 0x56984, symSize: 0x4 }
  - { offset: 0x2051BD, size: 0x8, addend: 0x0, symName: '__ZN4core3ptr62drop_in_place$LT$skreaver_core..error..memory..MemoryError$GT$17h9ccc640e8a9a596fE', symObjAddr: 0x340, symBinAddr: 0x56988, symSize: 0x90 }
  - { offset: 0x2051ED, size: 0x8, addend: 0x0, symName: '__ZN4core3ptr65drop_in_place$LT$skreaver_core..error..types..MemoryErrorKind$GT$17h7d046f7cd5ba77ccE', symObjAddr: 0x3D0, symBinAddr: 0x56A18, symSize: 0x88 }
  - { offset: 0x20521D, size: 0x8, addend: 0x0, symName: '__ZN4core3ptr73drop_in_place$LT$pyo3..instance..Bound$LT$pyo3..types..any..PyAny$GT$$GT$17h9618b511440d036eE', symObjAddr: 0x458, symBinAddr: 0x56AA0, symSize: 0x5C }
  - { offset: 0x205B0C, size: 0x8, addend: 0x0, symName: '__ZN53_$LT$core..fmt..Error$u20$as$u20$core..fmt..Debug$GT$3fmt17haea4712e43834251E', symObjAddr: 0x8B8, symBinAddr: 0x56F00, symSize: 0x14 }
  - { offset: 0x209309, size: 0x8, addend: 0x0, symName: '__ZN4core3ops8function6FnOnce40call_once$u7b$$u7b$vtable.shim$u7d$$u7d$17h3b24fc56eaf24ff0E', symObjAddr: 0x0, symBinAddr: 0x56648, symSize: 0xB0 }
  - { offset: 0x20944E, size: 0x8, addend: 0x0, symName: '__ZN4core3ops8function6FnOnce40call_once$u7b$$u7b$vtable.shim$u7d$$u7d$17h4763f29b9aa0c11fE', symObjAddr: 0xB0, symBinAddr: 0x566F8, symSize: 0xA8 }
  - { offset: 0x2095B1, size: 0x8, addend: 0x0, symName: '__ZN4core3ops8function6FnOnce40call_once$u7b$$u7b$vtable.shim$u7d$$u7d$17h81b291381c5f2bdbE', symObjAddr: 0x158, symBinAddr: 0x567A0, symSize: 0xD4 }
  - { offset: 0x2096F8, size: 0x8, addend: 0x0, symName: '__ZN4core3ops8function6FnOnce40call_once$u7b$$u7b$vtable.shim$u7d$$u7d$17hb68c1a0c75022db5E', symObjAddr: 0x22C, symBinAddr: 0x56874, symSize: 0xBC }
  - { offset: 0x20AF64, size: 0x8, addend: 0x0, symName: __ZN4pyo35impl_10trampoline22fastcall_with_keywords17h1eccd5e128be3cc4E, symObjAddr: 0x4B4, symBinAddr: 0x56AFC, symSize: 0x14C }
  - { offset: 0x20B142, size: 0x8, addend: 0x0, symName: __ZN4pyo35impl_10trampoline6noargs17h8970b7ea902e63e1E, symObjAddr: 0x600, symBinAddr: 0x56C48, symSize: 0x148 }
  - { offset: 0x20B304, size: 0x8, addend: 0x0, symName: __ZN4pyo35impl_10trampoline8reprfunc17h5e9c0243b0604387E, symObjAddr: 0x748, symBinAddr: 0x56D90, symSize: 0x170 }
  - { offset: 0x20D519, size: 0x8, addend: 0x0, symName: _anon.ad0b01e022540089d2a31634b0cb074c.17, symObjAddr: 0x7A90, symBinAddr: 0x513758, symSize: 0x0 }
  - { offset: 0x20D57D, size: 0x8, addend: 0x0, symName: '__ZN85_$LT$_skreaver..memory..PyFileMemory$u20$as$u20$pyo3..impl_..pyclass..PyClassImpl$GT$10items_iter15INTRINSIC_ITEMS17hf8c433238c190389E', symObjAddr: 0x88C0, symBinAddr: 0x361180, symSize: 0x0 }
  - { offset: 0x20D59E, size: 0x8, addend: 0x0, symName: '__ZN85_$LT$_skreaver..memory..PyFileMemory$u20$as$u20$pyo3..impl_..pyclass..PyClassImpl$GT$3doc3DOC17hdf142e312e7b26b4E', symObjAddr: 0x73758, symBinAddr: 0x55C040, symSize: 0x0 }
  - { offset: 0x20D5C6, size: 0x8, addend: 0x0, symName: '__ZN85_$LT$_skreaver..memory..PyFileMemory$u20$as$u20$pyo3..impl_..pyclass..PyClassImpl$GT$16lazy_type_object11TYPE_OBJECT17h615e9c889b858217E', symObjAddr: 0x8978, symBinAddr: 0x5588E8, symSize: 0x0 }
  - { offset: 0x20DA11, size: 0x8, addend: 0x0, symName: '__ZN9_skreaver6memory182_$LT$impl$u20$pyo3..impl_..pyclass..PyMethods$LT$_skreaver..memory..PyFileMemory$GT$$u20$for$u20$pyo3..impl_..pyclass..PyClassImplCollector$LT$_skreaver..memory..PyFileMemory$GT$$GT$10py_methods5ITEMS17h609704dca33fcaadE', symObjAddr: 0x8268, symBinAddr: 0x513F30, symSize: 0x0 }
  - { offset: 0x20DA23, size: 0x8, addend: 0x0, symName: '__ZN9_skreaver6memory182_$LT$impl$u20$pyo3..impl_..pyclass..PyMethods$LT$_skreaver..memory..PyFileMemory$GT$$u20$for$u20$pyo3..impl_..pyclass..PyClassImplCollector$LT$_skreaver..memory..PyFileMemory$GT$$GT$10py_methods5ITEMS10trampoline17h1c81278e2735eae8E', symObjAddr: 0x1C00, symBinAddr: 0x5817C, symSize: 0x20 }
  - { offset: 0x20DA5F, size: 0x8, addend: 0x0, symName: '__ZN9_skreaver6memory182_$LT$impl$u20$pyo3..impl_..pyclass..PyMethods$LT$_skreaver..memory..PyFileMemory$GT$$u20$for$u20$pyo3..impl_..pyclass..PyClassImplCollector$LT$_skreaver..memory..PyFileMemory$GT$$GT$10py_methods5ITEMS10trampoline17h9782d1c123dab334E', symObjAddr: 0x1C20, symBinAddr: 0x5819C, symSize: 0x20 }
  - { offset: 0x20DAB9, size: 0x8, addend: 0x0, symName: '__ZN9_skreaver6memory182_$LT$impl$u20$pyo3..impl_..pyclass..PyMethods$LT$_skreaver..memory..PyFileMemory$GT$$u20$for$u20$pyo3..impl_..pyclass..PyClassImplCollector$LT$_skreaver..memory..PyFileMemory$GT$$GT$10py_methods5ITEMS10trampoline17h062e8045f764ea23E', symObjAddr: 0x1C40, symBinAddr: 0x581BC, symSize: 0x20 }
  - { offset: 0x20DB13, size: 0x8, addend: 0x0, symName: '__ZN9_skreaver6memory182_$LT$impl$u20$pyo3..impl_..pyclass..PyMethods$LT$_skreaver..memory..PyFileMemory$GT$$u20$for$u20$pyo3..impl_..pyclass..PyClassImplCollector$LT$_skreaver..memory..PyFileMemory$GT$$GT$10py_methods5ITEMS10trampoline17h6bcb146293c96b56E', symObjAddr: 0x1C60, symBinAddr: 0x581DC, symSize: 0x20 }
  - { offset: 0x20DB6D, size: 0x8, addend: 0x0, symName: '__ZN9_skreaver6memory182_$LT$impl$u20$pyo3..impl_..pyclass..PyMethods$LT$_skreaver..memory..PyFileMemory$GT$$u20$for$u20$pyo3..impl_..pyclass..PyClassImplCollector$LT$_skreaver..memory..PyFileMemory$GT$$GT$10py_methods5ITEMS10trampoline17hc9a8c7cc41a7b105E', symObjAddr: 0x1C80, symBinAddr: 0x581FC, symSize: 0x20 }
  - { offset: 0x20DBC7, size: 0x8, addend: 0x0, symName: '__ZN9_skreaver6memory182_$LT$impl$u20$pyo3..impl_..pyclass..PyMethods$LT$_skreaver..memory..PyFileMemory$GT$$u20$for$u20$pyo3..impl_..pyclass..PyClassImplCollector$LT$_skreaver..memory..PyFileMemory$GT$$GT$10py_methods5ITEMS10trampoline17h50435b257b50976bE', symObjAddr: 0x1CA0, symBinAddr: 0x5821C, symSize: 0x20 }
  - { offset: 0x20DC03, size: 0x8, addend: 0x0, symName: '__ZN9_skreaver6memory182_$LT$impl$u20$pyo3..impl_..pyclass..PyMethods$LT$_skreaver..memory..PyFileMemory$GT$$u20$for$u20$pyo3..impl_..pyclass..PyClassImplCollector$LT$_skreaver..memory..PyFileMemory$GT$$GT$10py_methods5ITEMS10trampoline17h80d0481610881612E', symObjAddr: 0x1CC0, symBinAddr: 0x5823C, symSize: 0x20 }
  - { offset: 0x20DC5D, size: 0x8, addend: 0x0, symName: '__ZN9_skreaver6memory182_$LT$impl$u20$pyo3..impl_..pyclass..PyMethods$LT$_skreaver..memory..PyFileMemory$GT$$u20$for$u20$pyo3..impl_..pyclass..PyClassImplCollector$LT$_skreaver..memory..PyFileMemory$GT$$GT$10py_methods5ITEMS10trampoline17h9572b870839600e0E', symObjAddr: 0x1CE0, symBinAddr: 0x5825C, symSize: 0x20 }
  - { offset: 0x20DCB7, size: 0x8, addend: 0x0, symName: '__ZN9_skreaver6memory182_$LT$impl$u20$pyo3..impl_..pyclass..PyMethods$LT$_skreaver..memory..PyFileMemory$GT$$u20$for$u20$pyo3..impl_..pyclass..PyClassImplCollector$LT$_skreaver..memory..PyFileMemory$GT$$GT$10py_methods5ITEMS10trampoline17h94e9543e1270854bE', symObjAddr: 0x1D00, symBinAddr: 0x5827C, symSize: 0x20 }
  - { offset: 0x20DCF3, size: 0x8, addend: 0x0, symName: '__ZN9_skreaver6memory182_$LT$impl$u20$pyo3..impl_..pyclass..PyMethods$LT$_skreaver..memory..PyFileMemory$GT$$u20$for$u20$pyo3..impl_..pyclass..PyClassImplCollector$LT$_skreaver..memory..PyFileMemory$GT$$GT$10py_methods5ITEMS10trampoline17h8116b9f715632b16E', symObjAddr: 0x1D20, symBinAddr: 0x5829C, symSize: 0x20 }
  - { offset: 0x20DD2F, size: 0x8, addend: 0x0, symName: '__ZN9_skreaver6memory182_$LT$impl$u20$pyo3..impl_..pyclass..PyMethods$LT$_skreaver..memory..PyFileMemory$GT$$u20$for$u20$pyo3..impl_..pyclass..PyClassImplCollector$LT$_skreaver..memory..PyFileMemory$GT$$GT$10py_methods5ITEMS10trampoline17h6b3de333a224371bE', symObjAddr: 0x1D40, symBinAddr: 0x582BC, symSize: 0x3C0 }
  - { offset: 0x20E164, size: 0x8, addend: 0x0, symName: '__ZN9_skreaver6memory182_$LT$impl$u20$pyo3..impl_..pyclass..PyMethods$LT$_skreaver..memory..PyFileMemory$GT$$u20$for$u20$pyo3..impl_..pyclass..PyClassImplCollector$LT$_skreaver..memory..PyFileMemory$GT$$GT$10py_methods5ITEMS10trampoline17h5a256bf950b13845E', symObjAddr: 0x2100, symBinAddr: 0x5867C, symSize: 0x31C }
  - { offset: 0x20E6F5, size: 0x8, addend: 0x0, symName: '__ZN9_skreaver6memory182_$LT$impl$u20$pyo3..impl_..pyclass..PyMethods$LT$_skreaver..memory..PyFileMemory$GT$$u20$for$u20$pyo3..impl_..pyclass..PyClassImplCollector$LT$_skreaver..memory..PyFileMemory$GT$$GT$10py_methods5ITEMS10trampoline17hd0709e9e0158a1b7E', symObjAddr: 0x241C, symBinAddr: 0x58998, symSize: 0x39C }
  - { offset: 0x20EC6C, size: 0x8, addend: 0x0, symName: '__ZN9_skreaver6memory182_$LT$impl$u20$pyo3..impl_..pyclass..PyMethods$LT$_skreaver..memory..PyFileMemory$GT$$u20$for$u20$pyo3..impl_..pyclass..PyClassImplCollector$LT$_skreaver..memory..PyFileMemory$GT$$GT$10py_methods5ITEMS10trampoline17hdf0fb1121e7be260E', symObjAddr: 0x27B8, symBinAddr: 0x58D34, symSize: 0x538 }
  - { offset: 0x20F6CC, size: 0x8, addend: 0x0, symName: '__ZN9_skreaver6memory182_$LT$impl$u20$pyo3..impl_..pyclass..PyMethods$LT$_skreaver..memory..PyFileMemory$GT$$u20$for$u20$pyo3..impl_..pyclass..PyClassImplCollector$LT$_skreaver..memory..PyFileMemory$GT$$GT$10py_methods5ITEMS10trampoline17h6ce07628fde3da81E', symObjAddr: 0x2CF0, symBinAddr: 0x5926C, symSize: 0x20 }
  - { offset: 0x20F6F9, size: 0x8, addend: 0x0, symName: '__ZN9_skreaver6memory182_$LT$impl$u20$pyo3..impl_..pyclass..PyMethods$LT$_skreaver..memory..PyFileMemory$GT$$u20$for$u20$pyo3..impl_..pyclass..PyClassImplCollector$LT$_skreaver..memory..PyFileMemory$GT$$GT$10py_methods5ITEMS10trampoline17hd93fee9beba777baE', symObjAddr: 0x2D10, symBinAddr: 0x5928C, symSize: 0x20 }
  - { offset: 0x20F7A4, size: 0x8, addend: 0x0, symName: '__ZN9_skreaver6memory182_$LT$impl$u20$pyo3..impl_..pyclass..PyMethods$LT$_skreaver..memory..PyFileMemory$GT$$u20$for$u20$pyo3..impl_..pyclass..PyClassImplCollector$LT$_skreaver..memory..PyFileMemory$GT$$GT$10py_methods5ITEMS6__wrap17h6fb5295bda45d951E', symObjAddr: 0x609C, symBinAddr: 0x5C618, symSize: 0x488 }
  - { offset: 0x210024, size: 0x8, addend: 0x0, symName: __ZN9_skreaver6memory15make_memory_key17hfb2dbf8dc35431dcE, symObjAddr: 0xBD0, symBinAddr: 0x57218, symSize: 0x128 }
  - { offset: 0x212E96, size: 0x8, addend: 0x0, symName: __ZN9_skreaver6errors11MemoryError7new_err17hfbc406c9b399c35aE, symObjAddr: 0xCF8, symBinAddr: 0x57340, symSize: 0xE0 }
  - { offset: 0x2131E2, size: 0x8, addend: 0x0, symName: __ZN9_skreaver6memory12PyFileMemory4load17h36d4da01746f3e6dE, symObjAddr: 0xEA4, symBinAddr: 0x57420, symSize: 0x3A8 }
  - { offset: 0x213AF9, size: 0x8, addend: 0x0, symName: __ZN9_skreaver6memory12PyFileMemory5store17h9208fbe25ccf2ed1E, symObjAddr: 0x124C, symBinAddr: 0x577C8, symSize: 0x4C4 }
  - { offset: 0x214CB6, size: 0x8, addend: 0x0, symName: __ZN9_skreaver6memory12PyFileMemory4keys17hd29ba53e86b3a198E, symObjAddr: 0x1710, symBinAddr: 0x57C8C, symSize: 0x4F0 }
  - { offset: 0x2164A6, size: 0x8, addend: 0x0, symName: __ZN9_skreaver6memory12PyFileMemory20__pymethod_default__17hd8461c4674b880b8E, symObjAddr: 0x2D30, symBinAddr: 0x592AC, symSize: 0x364 }
  - { offset: 0x216D1F, size: 0x8, addend: 0x0, symName: __ZN9_skreaver6memory12PyFileMemory21__pymethod_get_path__17h4ae3d4a5984fa723E, symObjAddr: 0x3094, symBinAddr: 0x59610, symSize: 0x150 }
  - { offset: 0x217283, size: 0x8, addend: 0x0, symName: __ZN9_skreaver6memory12PyFileMemory17__pymethod_load__17h4850ee832e8f8b0bE, symObjAddr: 0x31E4, symBinAddr: 0x59760, symSize: 0x308 }
  - { offset: 0x217CDA, size: 0x8, addend: 0x0, symName: __ZN9_skreaver6memory12PyFileMemory22__pymethod_load_many__17h1b8056d7c3ba2378E, symObjAddr: 0x34EC, symBinAddr: 0x59A68, symSize: 0x814 }
  - { offset: 0x218F65, size: 0x8, addend: 0x0, symName: __ZN9_skreaver6memory12PyFileMemory18__pymethod_store__17h0264c5754348260bE, symObjAddr: 0x3D00, symBinAddr: 0x5A27C, symSize: 0x378 }
  - { offset: 0x219AC8, size: 0x8, addend: 0x0, symName: __ZN9_skreaver6memory12PyFileMemory23__pymethod_store_many__17heebdcf309aa49b53E, symObjAddr: 0x4078, symBinAddr: 0x5A5F4, symSize: 0xAF4 }
  - { offset: 0x21B1E5, size: 0x8, addend: 0x0, symName: __ZN9_skreaver6memory12PyFileMemory21__pymethod_snapshot__17h5eb6c1040203af88E, symObjAddr: 0x4B6C, symBinAddr: 0x5B0E8, symSize: 0x390 }
  - { offset: 0x21BDBE, size: 0x8, addend: 0x0, symName: __ZN9_skreaver6memory12PyFileMemory20__pymethod_restore__17h92e32fac5a0b1972E, symObjAddr: 0x4EFC, symBinAddr: 0x5B478, symSize: 0x55C }
  - { offset: 0x21CD38, size: 0x8, addend: 0x0, symName: __ZN9_skreaver6memory12PyFileMemory28__pymethod_cleanup_backups__17h074548ce58cabe3fE, symObjAddr: 0x5458, symBinAddr: 0x5B9D4, symSize: 0x5EC }
  - { offset: 0x21DCB2, size: 0x8, addend: 0x0, symName: __ZN9_skreaver6memory12PyFileMemory17__pymethod_keys__17h3e9d86290242336cE, symObjAddr: 0x5A44, symBinAddr: 0x5BFC0, symSize: 0x1CC }
  - { offset: 0x21E258, size: 0x8, addend: 0x0, symName: __ZN9_skreaver6memory12PyFileMemory21__pymethod_is_empty__17hc458957ccb94c739E, symObjAddr: 0x5C10, symBinAddr: 0x5C18C, symSize: 0x204 }
  - { offset: 0x21E7A9, size: 0x8, addend: 0x0, symName: __ZN9_skreaver6memory12PyFileMemory21__pymethod___repr____17ha15d9cf2f9e7d164E, symObjAddr: 0x5E14, symBinAddr: 0x5C390, symSize: 0x144 }
  - { offset: 0x21EB5A, size: 0x8, addend: 0x0, symName: __ZN9_skreaver6memory12PyFileMemory20__pymethod___str____17h783091cf742d9c31E, symObjAddr: 0x5F58, symBinAddr: 0x5C4D4, symSize: 0x144 }
  - { offset: 0x22174A, size: 0x8, addend: 0x0, symName: '__ZN103_$LT$pyo3..instance..Bound$LT$pyo3..types..any..PyAny$GT$$u20$as$u20$pyo3..types..any..PyAnyMethods$GT$12call_method117hdea2196cfd71bea3E', symObjAddr: 0x0, symBinAddr: 0x5CAA0, symSize: 0x104 }
  - { offset: 0x2234F9, size: 0x8, addend: 0x0, symName: '__ZN4core3ptr73drop_in_place$LT$pyo3..instance..Bound$LT$pyo3..types..any..PyAny$GT$$GT$17h9618b511440d036eE', symObjAddr: 0x1124, symBinAddr: 0x5D62C, symSize: 0x5C }
  - { offset: 0x223595, size: 0x8, addend: 0x0, symName: '__ZN4core3ptr79drop_in_place$LT$pyo3..instance..Bound$LT$pyo3..types..string..PyString$GT$$GT$17hdda10c0f784d5a22E', symObjAddr: 0x1180, symBinAddr: 0x5D688, symSize: 0x5C }
  - { offset: 0x2248AC, size: 0x8, addend: 0x0, symName: '__ZN103_$LT$pyo3..instance..Bound$LT$pyo3..types..any..PyAny$GT$$u20$as$u20$pyo3..types..any..PyAnyMethods$GT$12call_method117hdea2196cfd71bea3E', symObjAddr: 0x0, symBinAddr: 0x5CAA0, symSize: 0x104 }
  - { offset: 0x224AD9, size: 0x8, addend: 0x0, symName: '__ZN103_$LT$pyo3..instance..Bound$LT$pyo3..types..any..PyAny$GT$$u20$as$u20$pyo3..types..any..PyAnyMethods$GT$7extract17h4c7b96516478f064E', symObjAddr: 0x144, symBinAddr: 0x5CBA4, symSize: 0x124 }
  - { offset: 0x224E45, size: 0x8, addend: 0x0, symName: '__ZN115_$LT$pyo3..instance..Bound$LT$pyo3..types..module..PyModule$GT$$u20$as$u20$pyo3..types..module..PyModuleMethods$GT$3add17h75b481aa21c9c941E', symObjAddr: 0x2F8, symBinAddr: 0x5CCC8, symSize: 0xD4 }
  - { offset: 0x224FD3, size: 0x8, addend: 0x0, symName: '__ZN115_$LT$pyo3..instance..Bound$LT$pyo3..types..module..PyModule$GT$$u20$as$u20$pyo3..types..module..PyModuleMethods$GT$3add17hf36c41e9cbd68b60E', symObjAddr: 0x3CC, symBinAddr: 0x5CD9C, symSize: 0x138 }
  - { offset: 0x225224, size: 0x8, addend: 0x0, symName: '__ZN115_$LT$pyo3..instance..Bound$LT$pyo3..types..module..PyModule$GT$$u20$as$u20$pyo3..types..module..PyModuleMethods$GT$9add_class17h271bd3beacc92f58E', symObjAddr: 0x504, symBinAddr: 0x5CED4, symSize: 0xBC }
  - { offset: 0x22535C, size: 0x8, addend: 0x0, symName: '__ZN115_$LT$pyo3..instance..Bound$LT$pyo3..types..module..PyModule$GT$$u20$as$u20$pyo3..types..module..PyModuleMethods$GT$9add_class17h33d01d1810f4f3ffE', symObjAddr: 0x67C, symBinAddr: 0x5CF90, symSize: 0xBC }
  - { offset: 0x225494, size: 0x8, addend: 0x0, symName: '__ZN115_$LT$pyo3..instance..Bound$LT$pyo3..types..module..PyModule$GT$$u20$as$u20$pyo3..types..module..PyModuleMethods$GT$9add_class17h3ce1141c79066cd8E', symObjAddr: 0x738, symBinAddr: 0x5D04C, symSize: 0xBC }
  - { offset: 0x2255CD, size: 0x8, addend: 0x0, symName: '__ZN115_$LT$pyo3..instance..Bound$LT$pyo3..types..module..PyModule$GT$$u20$as$u20$pyo3..types..module..PyModuleMethods$GT$9add_class17h6291561dc26019f8E', symObjAddr: 0x8B0, symBinAddr: 0x5D108, symSize: 0xBC }
  - { offset: 0x225705, size: 0x8, addend: 0x0, symName: '__ZN115_$LT$pyo3..instance..Bound$LT$pyo3..types..module..PyModule$GT$$u20$as$u20$pyo3..types..module..PyModuleMethods$GT$9add_class17h791b8b8b2ff3c65dE', symObjAddr: 0xA28, symBinAddr: 0x5D1C4, symSize: 0xBC }
  - { offset: 0x22583E, size: 0x8, addend: 0x0, symName: '__ZN115_$LT$pyo3..instance..Bound$LT$pyo3..types..module..PyModule$GT$$u20$as$u20$pyo3..types..module..PyModuleMethods$GT$9add_class17h8fc8731354ef4e27E', symObjAddr: 0xAE4, symBinAddr: 0x5D280, symSize: 0xBC }
  - { offset: 0x225976, size: 0x8, addend: 0x0, symName: '__ZN115_$LT$pyo3..instance..Bound$LT$pyo3..types..module..PyModule$GT$$u20$as$u20$pyo3..types..module..PyModuleMethods$GT$9add_class17ha0f6010268842a15E', symObjAddr: 0xBA0, symBinAddr: 0x5D33C, symSize: 0xBC }
  - { offset: 0x225AAE, size: 0x8, addend: 0x0, symName: '__ZN115_$LT$pyo3..instance..Bound$LT$pyo3..types..module..PyModule$GT$$u20$as$u20$pyo3..types..module..PyModuleMethods$GT$9add_class17hb607594021186bb9E', symObjAddr: 0xD18, symBinAddr: 0x5D3F8, symSize: 0xBC }
  - { offset: 0x225BE6, size: 0x8, addend: 0x0, symName: '__ZN115_$LT$pyo3..instance..Bound$LT$pyo3..types..module..PyModule$GT$$u20$as$u20$pyo3..types..module..PyModuleMethods$GT$9add_class17hbb95f100e38826e1E', symObjAddr: 0xE90, symBinAddr: 0x5D4B4, symSize: 0xBC }
  - { offset: 0x225D1E, size: 0x8, addend: 0x0, symName: '__ZN115_$LT$pyo3..instance..Bound$LT$pyo3..types..module..PyModule$GT$$u20$as$u20$pyo3..types..module..PyModuleMethods$GT$9add_class17hed979bf516ac2a6fE', symObjAddr: 0x1008, symBinAddr: 0x5D570, symSize: 0xBC }
  - { offset: 0x2402ED, size: 0x8, addend: 0x0, symName: __ZN3std5panic12catch_unwind17h15b5f46aa12c52b1E, symObjAddr: 0x598, symBinAddr: 0x5D6E4, symSize: 0xC0 }
  - { offset: 0x240458, size: 0x8, addend: 0x0, symName: __ZN3std5panic12catch_unwind17h1810322d3b3509e6E, symObjAddr: 0x6B4, symBinAddr: 0x5D7A4, symSize: 0xC0 }
  - { offset: 0x2405C3, size: 0x8, addend: 0x0, symName: __ZN3std5panic12catch_unwind17h1826cb3a669fcd1fE, symObjAddr: 0x774, symBinAddr: 0x5D864, symSize: 0xC0 }
  - { offset: 0x24072E, size: 0x8, addend: 0x0, symName: __ZN3std5panic12catch_unwind17h3ebd176a3a3d6c0cE, symObjAddr: 0xDA0, symBinAddr: 0x5D924, symSize: 0xC0 }
  - { offset: 0x240899, size: 0x8, addend: 0x0, symName: __ZN3std5panic12catch_unwind17h416ac26998558f0aE, symObjAddr: 0xE60, symBinAddr: 0x5D9E4, symSize: 0xC0 }
  - { offset: 0x240A04, size: 0x8, addend: 0x0, symName: __ZN3std5panic12catch_unwind17h496892793ac9dddfE, symObjAddr: 0x104C, symBinAddr: 0x5DAA4, symSize: 0xC0 }
  - { offset: 0x240B6F, size: 0x8, addend: 0x0, symName: __ZN3std5panic12catch_unwind17h5026d9c7941ed739E, symObjAddr: 0x127C, symBinAddr: 0x5DB64, symSize: 0xC0 }
  - { offset: 0x240CDA, size: 0x8, addend: 0x0, symName: __ZN3std5panic12catch_unwind17h602664dfa941882dE, symObjAddr: 0x1900, symBinAddr: 0x5DC24, symSize: 0xC0 }
  - { offset: 0x240E45, size: 0x8, addend: 0x0, symName: __ZN3std5panic12catch_unwind17h75303e02d7c8550bE, symObjAddr: 0x1EF0, symBinAddr: 0x5DCE4, symSize: 0xC0 }
  - { offset: 0x240FB0, size: 0x8, addend: 0x0, symName: __ZN3std5panic12catch_unwind17h7b38086a29968711E, symObjAddr: 0x20F4, symBinAddr: 0x5DDA4, symSize: 0xC0 }
  - { offset: 0x24111B, size: 0x8, addend: 0x0, symName: __ZN3std5panic12catch_unwind17h91ae4fa28d8b3e12E, symObjAddr: 0x2578, symBinAddr: 0x5DE64, symSize: 0xC0 }
  - { offset: 0x241286, size: 0x8, addend: 0x0, symName: __ZN3std5panic12catch_unwind17h9c20d2b6f247d1a8E, symObjAddr: 0x2984, symBinAddr: 0x5DF24, symSize: 0xC0 }
  - { offset: 0x2413F1, size: 0x8, addend: 0x0, symName: __ZN3std5panic12catch_unwind17ha36221cb0b72368dE, symObjAddr: 0x2C00, symBinAddr: 0x5DFE4, symSize: 0xC0 }
  - { offset: 0x24155C, size: 0x8, addend: 0x0, symName: __ZN3std5panic12catch_unwind17ha803b5692eb722e2E, symObjAddr: 0x2D2C, symBinAddr: 0x5E0A4, symSize: 0xC0 }
  - { offset: 0x2416C7, size: 0x8, addend: 0x0, symName: __ZN3std5panic12catch_unwind17hac6e06d372e621e8E, symObjAddr: 0x2F08, symBinAddr: 0x5E164, symSize: 0xC0 }
  - { offset: 0x241832, size: 0x8, addend: 0x0, symName: __ZN3std5panic12catch_unwind17hba3e015705ea21a7E, symObjAddr: 0x3320, symBinAddr: 0x5E224, symSize: 0xC0 }
  - { offset: 0x24199D, size: 0x8, addend: 0x0, symName: __ZN3std5panic12catch_unwind17hbaaff31a25e092dfE, symObjAddr: 0x33E0, symBinAddr: 0x5E2E4, symSize: 0xC0 }
  - { offset: 0x241B08, size: 0x8, addend: 0x0, symName: __ZN3std5panic12catch_unwind17hc697091b3e5e5989E, symObjAddr: 0x37D4, symBinAddr: 0x5E3A4, symSize: 0xC0 }
  - { offset: 0x241C73, size: 0x8, addend: 0x0, symName: __ZN3std5panic12catch_unwind17hcdff085c88267897E, symObjAddr: 0x3B44, symBinAddr: 0x5E464, symSize: 0xC0 }
  - { offset: 0x241DDE, size: 0x8, addend: 0x0, symName: __ZN3std5panic12catch_unwind17hcfa1dbe6d87a49deE, symObjAddr: 0x3C58, symBinAddr: 0x5E524, symSize: 0xC0 }
  - { offset: 0x241F49, size: 0x8, addend: 0x0, symName: __ZN3std5panic12catch_unwind17hd9565cb86b296e50E, symObjAddr: 0x3DC8, symBinAddr: 0x5E5E4, symSize: 0xC0 }
  - { offset: 0x2420B4, size: 0x8, addend: 0x0, symName: __ZN3std5panic12catch_unwind17hdde90d6355aa1244E, symObjAddr: 0x4064, symBinAddr: 0x5E6A4, symSize: 0xC0 }
  - { offset: 0x24221F, size: 0x8, addend: 0x0, symName: __ZN3std5panic12catch_unwind17hde9ae91f3950daccE, symObjAddr: 0x4180, symBinAddr: 0x5E764, symSize: 0xC0 }
  - { offset: 0x24238A, size: 0x8, addend: 0x0, symName: __ZN3std5panic12catch_unwind17he3305b442dae1021E, symObjAddr: 0x4308, symBinAddr: 0x5E824, symSize: 0xC0 }
  - { offset: 0x2424F5, size: 0x8, addend: 0x0, symName: __ZN3std5panic12catch_unwind17he3f7d076b84e79d8E, symObjAddr: 0x441C, symBinAddr: 0x5E8E4, symSize: 0xC0 }
  - { offset: 0x242660, size: 0x8, addend: 0x0, symName: __ZN3std5panic12catch_unwind17hea390a50d78504b4E, symObjAddr: 0x4680, symBinAddr: 0x5E9A4, symSize: 0xC0 }
  - { offset: 0x2427CB, size: 0x8, addend: 0x0, symName: __ZN3std5panic12catch_unwind17hf35ed9712b5dc699E, symObjAddr: 0x4794, symBinAddr: 0x5EA64, symSize: 0xC0 }
  - { offset: 0x242936, size: 0x8, addend: 0x0, symName: __ZN3std5panic12catch_unwind17hfea3a68f4e3fe532E, symObjAddr: 0x4A38, symBinAddr: 0x5EB24, symSize: 0xC0 }
  - { offset: 0x2504E8, size: 0x8, addend: 0x0, symName: '__ZN103_$LT$alloc..vec..into_iter..IntoIter$LT$T$C$A$GT$$u20$as$u20$core..iter..traits..iterator..Iterator$GT$8try_fold17h4e871ed3a676c2a4E', symObjAddr: 0x0, symBinAddr: 0x5EBE4, symSize: 0x18C }
  - { offset: 0x2536A6, size: 0x8, addend: 0x0, symName: '__ZN103_$LT$alloc..vec..into_iter..IntoIter$LT$T$C$A$GT$$u20$as$u20$core..iter..traits..iterator..Iterator$GT$8try_fold17h4e871ed3a676c2a4E', symObjAddr: 0x0, symBinAddr: 0x5EBE4, symSize: 0x18C }
  - { offset: 0x253A1C, size: 0x8, addend: 0x0, symName: '__ZN103_$LT$alloc..vec..into_iter..IntoIter$LT$T$C$A$GT$$u20$as$u20$core..iter..traits..iterator..Iterator$GT$8try_fold17ha616fe97779f5fe0E', symObjAddr: 0x18C, symBinAddr: 0x5ED70, symSize: 0x1A4 }
  - { offset: 0x253DA3, size: 0x8, addend: 0x0, symName: '__ZN103_$LT$alloc..vec..into_iter..IntoIter$LT$T$C$A$GT$$u20$as$u20$core..iter..traits..iterator..Iterator$GT$8try_fold17heb0161e3d413161dE', symObjAddr: 0x330, symBinAddr: 0x5EF14, symSize: 0x1D8 }
  - { offset: 0x254A2D, size: 0x8, addend: 0x0, symName: '__ZN4core3ptr57drop_in_place$LT$serde_json..value..ser..SerializeMap$GT$17ha8e1ad11403c96aeE', symObjAddr: 0x0, symBinAddr: 0x5F0EC, symSize: 0xD4 }
  - { offset: 0x25554A, size: 0x8, addend: 0x0, symName: '__ZN4core3ptr57drop_in_place$LT$serde_json..value..ser..SerializeMap$GT$17ha8e1ad11403c96aeE', symObjAddr: 0x0, symBinAddr: 0x5F0EC, symSize: 0xD4 }
  - { offset: 0x256058, size: 0x8, addend: 0x0, symName: '__ZN94_$LT$serde..private..ser..TaggedSerializer$LT$S$GT$$u20$as$u20$serde_core..ser..Serializer$GT$16serialize_struct17hae7f20822967d392E', symObjAddr: 0x230, symBinAddr: 0x5F1C0, symSize: 0xD8 }
  - { offset: 0x2560FC, size: 0x8, addend: 0x0, symName: '__ZN94_$LT$serde..private..ser..TaggedSerializer$LT$S$GT$$u20$as$u20$serde_core..ser..Serializer$GT$16serialize_struct17he423caee81728915E', symObjAddr: 0x308, symBinAddr: 0x5F298, symSize: 0x120 }
  - { offset: 0x25681A, size: 0x8, addend: 0x0, symName: '__ZN15futures_channel7oneshot14Inner$LT$T$GT$7drop_rx17h2c285cbbe9ea3ba7E', symObjAddr: 0x0, symBinAddr: 0x5F3B8, symSize: 0x188 }
  - { offset: 0x2578A9, size: 0x8, addend: 0x0, symName: __ZN15futures_channel7oneshot7channel17h025d226091b3dc2eE, symObjAddr: 0x188, symBinAddr: 0x5F540, symSize: 0x148 }
  - { offset: 0x257AD7, size: 0x8, addend: 0x0, symName: '__ZN92_$LT$futures_channel..oneshot..Receiver$LT$T$GT$$u20$as$u20$core..future..future..Future$GT$4poll17h402aa251714128edE', symObjAddr: 0x2D0, symBinAddr: 0x5F688, symSize: 0x168 }
  - { offset: 0x257ED4, size: 0x8, addend: 0x0, symName: '__ZN15futures_channel7oneshot14Inner$LT$T$GT$7drop_rx17h2c285cbbe9ea3ba7E', symObjAddr: 0x0, symBinAddr: 0x5F3B8, symSize: 0x188 }
  - { offset: 0x258AC4, size: 0x8, addend: 0x0, symName: '__ZN102_$LT$core..iter..adapters..map..Map$LT$I$C$F$GT$$u20$as$u20$core..iter..traits..iterator..Iterator$GT$8try_fold17ha4354648592e37aeE', symObjAddr: 0x0, symBinAddr: 0x5F7F0, symSize: 0x1D4 }
  - { offset: 0x25A1D6, size: 0x8, addend: 0x0, symName: '__ZN102_$LT$core..iter..adapters..map..Map$LT$I$C$F$GT$$u20$as$u20$core..iter..traits..iterator..Iterator$GT$8try_fold17ha4354648592e37aeE', symObjAddr: 0x0, symBinAddr: 0x5F7F0, symSize: 0x1D4 }
  - { offset: 0x25BE09, size: 0x8, addend: 0x0, symName: '__ZN4core3ops8function6FnOnce40call_once$u7b$$u7b$vtable.shim$u7d$$u7d$17h83770e30c89e31d8E', symObjAddr: 0x0, symBinAddr: 0x5F9C4, symSize: 0xD4 }
  - { offset: 0x25BEFC, size: 0x8, addend: 0x0, symName: '__ZN58_$LT$alloc..string..String$u20$as$u20$core..fmt..Write$GT$10write_char17h5afa657ba1086fe6E', symObjAddr: 0x318, symBinAddr: 0x5FCDC, symSize: 0x108 }
  - { offset: 0x25C109, size: 0x8, addend: 0x0, symName: '__ZN58_$LT$alloc..string..String$u20$as$u20$core..fmt..Write$GT$9write_str17hba5566b7261b3df3E', symObjAddr: 0x420, symBinAddr: 0x5FDE4, symSize: 0x24 }
  - { offset: 0x25E788, size: 0x8, addend: 0x0, symName: '__ZN4core3ptr133drop_in_place$LT$pyo3..err..PyErr..new$LT$pyo3..exceptions..PyValueError$C$alloc..string..String$GT$..$u7b$$u7b$closure$u7d$$u7d$$GT$17hbebc3b7440907b3aE', symObjAddr: 0xD4, symBinAddr: 0x5FA98, symSize: 0x4 }
  - { offset: 0x25E7A3, size: 0x8, addend: 0x0, symName: '__ZN4core3ptr50drop_in_place$LT$skreaver_a2a..error..A2aError$GT$17h203553bafc4b745aE', symObjAddr: 0xD8, symBinAddr: 0x5FA9C, symSize: 0xE0 }
  - { offset: 0x25F2D1, size: 0x8, addend: 0x0, symName: '__ZN53_$LT$core..fmt..Error$u20$as$u20$core..fmt..Debug$GT$3fmt17haea4712e43834251E', symObjAddr: 0x304, symBinAddr: 0x5FCC8, symSize: 0x14 }
  - { offset: 0x2631C1, size: 0x8, addend: 0x0, symName: '__ZN4core3ops8function6FnOnce40call_once$u7b$$u7b$vtable.shim$u7d$$u7d$17h83770e30c89e31d8E', symObjAddr: 0x0, symBinAddr: 0x5F9C4, symSize: 0xD4 }
  - { offset: 0x264128, size: 0x8, addend: 0x0, symName: __ZN4pyo35impl_10trampoline22fastcall_with_keywords17h1eccd5e128be3cc4E, symObjAddr: 0x1B8, symBinAddr: 0x5FB7C, symSize: 0x14C }
  - { offset: 0x265181, size: 0x8, addend: 0x0, symName: '__ZN89_$LT$_skreaver..a2a..client..PyA2aClient$u20$as$u20$pyo3..impl_..pyclass..PyClassImpl$GT$10items_iter15INTRINSIC_ITEMS17h4fdabec13dc9c570E', symObjAddr: 0x5008, symBinAddr: 0x361BF8, symSize: 0x0 }
  - { offset: 0x2651A2, size: 0x8, addend: 0x0, symName: '__ZN89_$LT$_skreaver..a2a..client..PyA2aClient$u20$as$u20$pyo3..impl_..pyclass..PyClassImpl$GT$3doc3DOC17h274535115fe3cc16E', symObjAddr: 0x630D8, symBinAddr: 0x55C060, symSize: 0x0 }
  - { offset: 0x2651CA, size: 0x8, addend: 0x0, symName: '__ZN89_$LT$_skreaver..a2a..client..PyA2aClient$u20$as$u20$pyo3..impl_..pyclass..PyClassImpl$GT$16lazy_type_object11TYPE_OBJECT17h559986b88b8562a4E', symObjAddr: 0x6998, symBinAddr: 0x558940, symSize: 0x0 }
  - { offset: 0x265574, size: 0x8, addend: 0x0, symName: '__ZN9_skreaver3a2a6client190_$LT$impl$u20$pyo3..impl_..pyclass..PyMethods$LT$_skreaver..a2a..client..PyA2aClient$GT$$u20$for$u20$pyo3..impl_..pyclass..PyClassImplCollector$LT$_skreaver..a2a..client..PyA2aClient$GT$$GT$10py_methods5ITEMS17h96b4f8d6960c9d8aE', symObjAddr: 0x6978, symBinAddr: 0x5149C8, symSize: 0x0 }
  - { offset: 0x265586, size: 0x8, addend: 0x0, symName: '__ZN9_skreaver3a2a6client190_$LT$impl$u20$pyo3..impl_..pyclass..PyMethods$LT$_skreaver..a2a..client..PyA2aClient$GT$$u20$for$u20$pyo3..impl_..pyclass..PyClassImplCollector$LT$_skreaver..a2a..client..PyA2aClient$GT$$GT$10py_methods5ITEMS10trampoline17h48512040a136365fE', symObjAddr: 0x75C, symBinAddr: 0x60054, symSize: 0x20 }
  - { offset: 0x2655E0, size: 0x8, addend: 0x0, symName: '__ZN9_skreaver3a2a6client190_$LT$impl$u20$pyo3..impl_..pyclass..PyMethods$LT$_skreaver..a2a..client..PyA2aClient$GT$$u20$for$u20$pyo3..impl_..pyclass..PyClassImplCollector$LT$_skreaver..a2a..client..PyA2aClient$GT$$GT$10py_methods5ITEMS10trampoline17hc10c8f4b1e9ca612E', symObjAddr: 0x77C, symBinAddr: 0x60074, symSize: 0x20 }
  - { offset: 0x26563A, size: 0x8, addend: 0x0, symName: '__ZN9_skreaver3a2a6client190_$LT$impl$u20$pyo3..impl_..pyclass..PyMethods$LT$_skreaver..a2a..client..PyA2aClient$GT$$u20$for$u20$pyo3..impl_..pyclass..PyClassImplCollector$LT$_skreaver..a2a..client..PyA2aClient$GT$$GT$10py_methods5ITEMS10trampoline17hafe5579b57aa50b4E', symObjAddr: 0x79C, symBinAddr: 0x60094, symSize: 0x20 }
  - { offset: 0x265694, size: 0x8, addend: 0x0, symName: '__ZN9_skreaver3a2a6client190_$LT$impl$u20$pyo3..impl_..pyclass..PyMethods$LT$_skreaver..a2a..client..PyA2aClient$GT$$u20$for$u20$pyo3..impl_..pyclass..PyClassImplCollector$LT$_skreaver..a2a..client..PyA2aClient$GT$$GT$10py_methods5ITEMS10trampoline17hfff99f80386a5858E', symObjAddr: 0x7BC, symBinAddr: 0x600B4, symSize: 0x134 }
  - { offset: 0x2657C7, size: 0x8, addend: 0x0, symName: '__ZN9_skreaver3a2a6client190_$LT$impl$u20$pyo3..impl_..pyclass..PyMethods$LT$_skreaver..a2a..client..PyA2aClient$GT$$u20$for$u20$pyo3..impl_..pyclass..PyClassImplCollector$LT$_skreaver..a2a..client..PyA2aClient$GT$$GT$10py_methods5ITEMS10trampoline17h484f6704948ad95dE', symObjAddr: 0x8F0, symBinAddr: 0x601E8, symSize: 0x20 }
  - { offset: 0x265821, size: 0x8, addend: 0x0, symName: '__ZN9_skreaver3a2a6client190_$LT$impl$u20$pyo3..impl_..pyclass..PyMethods$LT$_skreaver..a2a..client..PyA2aClient$GT$$u20$for$u20$pyo3..impl_..pyclass..PyClassImplCollector$LT$_skreaver..a2a..client..PyA2aClient$GT$$GT$10py_methods5ITEMS10trampoline17h60587a8fda2c780dE', symObjAddr: 0x910, symBinAddr: 0x60208, symSize: 0x20 }
  - { offset: 0x26587B, size: 0x8, addend: 0x0, symName: '__ZN9_skreaver3a2a6client190_$LT$impl$u20$pyo3..impl_..pyclass..PyMethods$LT$_skreaver..a2a..client..PyA2aClient$GT$$u20$for$u20$pyo3..impl_..pyclass..PyClassImplCollector$LT$_skreaver..a2a..client..PyA2aClient$GT$$GT$10py_methods5ITEMS10trampoline17h2c3ada76f20b530cE', symObjAddr: 0x930, symBinAddr: 0x60228, symSize: 0x20 }
  - { offset: 0x2658D5, size: 0x8, addend: 0x0, symName: '__ZN9_skreaver3a2a6client190_$LT$impl$u20$pyo3..impl_..pyclass..PyMethods$LT$_skreaver..a2a..client..PyA2aClient$GT$$u20$for$u20$pyo3..impl_..pyclass..PyClassImplCollector$LT$_skreaver..a2a..client..PyA2aClient$GT$$GT$10py_methods5ITEMS10trampoline17h9fcecb331fae389fE', symObjAddr: 0x950, symBinAddr: 0x60248, symSize: 0x20 }
  - { offset: 0x26592F, size: 0x8, addend: 0x0, symName: '__ZN9_skreaver3a2a6client190_$LT$impl$u20$pyo3..impl_..pyclass..PyMethods$LT$_skreaver..a2a..client..PyA2aClient$GT$$u20$for$u20$pyo3..impl_..pyclass..PyClassImplCollector$LT$_skreaver..a2a..client..PyA2aClient$GT$$GT$10py_methods5ITEMS10trampoline17hb868f3befc7b2a80E', symObjAddr: 0x970, symBinAddr: 0x60268, symSize: 0x20 }
  - { offset: 0x265989, size: 0x8, addend: 0x0, symName: '__ZN9_skreaver3a2a6client190_$LT$impl$u20$pyo3..impl_..pyclass..PyMethods$LT$_skreaver..a2a..client..PyA2aClient$GT$$u20$for$u20$pyo3..impl_..pyclass..PyClassImplCollector$LT$_skreaver..a2a..client..PyA2aClient$GT$$GT$10py_methods5ITEMS10trampoline17h76183238d89bfecbE', symObjAddr: 0x990, symBinAddr: 0x60288, symSize: 0x20 }
  - { offset: 0x2659E3, size: 0x8, addend: 0x0, symName: '__ZN9_skreaver3a2a6client190_$LT$impl$u20$pyo3..impl_..pyclass..PyMethods$LT$_skreaver..a2a..client..PyA2aClient$GT$$u20$for$u20$pyo3..impl_..pyclass..PyClassImplCollector$LT$_skreaver..a2a..client..PyA2aClient$GT$$GT$10py_methods5ITEMS10trampoline17h445a6630e2b0be0bE', symObjAddr: 0x9B0, symBinAddr: 0x602A8, symSize: 0x524 }
  - { offset: 0x26611B, size: 0x8, addend: 0x0, symName: '__ZN9_skreaver3a2a6client190_$LT$impl$u20$pyo3..impl_..pyclass..PyMethods$LT$_skreaver..a2a..client..PyA2aClient$GT$$u20$for$u20$pyo3..impl_..pyclass..PyClassImplCollector$LT$_skreaver..a2a..client..PyA2aClient$GT$$GT$10py_methods5ITEMS10trampoline17h253848ad8c8942ddE', symObjAddr: 0xED4, symBinAddr: 0x607CC, symSize: 0x2EC }
  - { offset: 0x267E81, size: 0x8, addend: 0x0, symName: '__ZN70_$LT$skreaver_a2a..client..A2aClient$u20$as$u20$core..clone..Clone$GT$5clone17h810fa1602d974f7bE', symObjAddr: 0x444, symBinAddr: 0x5FE08, symSize: 0x24C }
  - { offset: 0x26E570, size: 0x8, addend: 0x0, symName: __ZN9_skreaver3a2a6client11PyA2aClient25__pymethod_get_base_url__17h7d3cf72f4107bb68E, symObjAddr: 0x11C0, symBinAddr: 0x60AB8, symSize: 0x1DC }
  - { offset: 0x26EBDD, size: 0x8, addend: 0x0, symName: __ZN9_skreaver3a2a6client11PyA2aClient30__pymethod_with_bearer_token__17h14fa3efcc67cc68cE, symObjAddr: 0x139C, symBinAddr: 0x60C94, symSize: 0x330 }
  - { offset: 0x26F250, size: 0x8, addend: 0x0, symName: __ZN9_skreaver3a2a6client11PyA2aClient25__pymethod_with_api_key__17ha53f48d6d48b4b90E, symObjAddr: 0x16CC, symBinAddr: 0x60FC4, symSize: 0x3EC }
  - { offset: 0x26FB1A, size: 0x8, addend: 0x0, symName: __ZN9_skreaver3a2a6client11PyA2aClient31__pymethod_with_api_key_query__17h59e35b9b1d6a9f1bE, symObjAddr: 0x1AB8, symBinAddr: 0x613B0, symSize: 0x5D0 }
  - { offset: 0x270ADF, size: 0x8, addend: 0x0, symName: __ZN9_skreaver3a2a6client11PyA2aClient27__pymethod_get_agent_card__17h6b87ed27a89e1aceE, symObjAddr: 0x2088, symBinAddr: 0x61980, symSize: 0x190 }
  - { offset: 0x270F70, size: 0x8, addend: 0x0, symName: __ZN9_skreaver3a2a6client11PyA2aClient25__pymethod_send_message__17h3b0a92358f7bd146E, symObjAddr: 0x2218, symBinAddr: 0x61B10, symSize: 0x428 }
  - { offset: 0x271966, size: 0x8, addend: 0x0, symName: __ZN9_skreaver3a2a6client11PyA2aClient26__pymethod_continue_task__17h6616e8bc6c50e62aE, symObjAddr: 0x2640, symBinAddr: 0x61F38, symSize: 0x5A4 }
  - { offset: 0x27286D, size: 0x8, addend: 0x0, symName: __ZN9_skreaver3a2a6client11PyA2aClient21__pymethod_get_task__17hfb1af26466706100E, symObjAddr: 0x2BE4, symBinAddr: 0x624DC, symSize: 0x428 }
  - { offset: 0x2732AC, size: 0x8, addend: 0x0, symName: __ZN9_skreaver3a2a6client11PyA2aClient24__pymethod_cancel_task__17hdd28f93dedcc1f73E, symObjAddr: 0x300C, symBinAddr: 0x62904, symSize: 0x5DC }
  - { offset: 0x2740ED, size: 0x8, addend: 0x0, symName: __ZN9_skreaver3a2a6client11PyA2aClient26__pymethod_wait_for_task__17hd99c422d3dc420a4E, symObjAddr: 0x35E8, symBinAddr: 0x62EE0, symSize: 0x618 }
  - { offset: 0x274F38, size: 0x8, addend: 0x0, symName: __ZN9_skreaver3a2a6client11PyA2aClient17__pymethod_send__17h52627b5c451c106bE, symObjAddr: 0x3C00, symBinAddr: 0x634F8, symSize: 0x830 }
  - { offset: 0x27736B, size: 0x8, addend: 0x0, symName: '__ZN4core3ptr148drop_in_place$LT$core..option..Option$LT$core..result..Result$LT$pyo3..instance..Bound$LT$pyo3..types..any..PyAny$GT$$C$pyo3..err..PyErr$GT$$GT$$GT$17h0f6eb7b1367b0795E', symObjAddr: 0x0, symBinAddr: 0x63D28, symSize: 0xAC }
  - { offset: 0x27754D, size: 0x8, addend: 0x0, symName: '__ZN4core3ptr148drop_in_place$LT$core..option..Option$LT$core..result..Result$LT$pyo3..instance..Bound$LT$pyo3..types..any..PyAny$GT$$C$pyo3..err..PyErr$GT$$GT$$GT$17h0f6eb7b1367b0795E', symObjAddr: 0x0, symBinAddr: 0x63D28, symSize: 0xAC }
  - { offset: 0x277690, size: 0x8, addend: 0x0, symName: '__ZN4core3ptr75drop_in_place$LT$pyo3..instance..Bound$LT$pyo3..types..list..PyList$GT$$GT$17h4d4f4af634b468a6E', symObjAddr: 0xAC, symBinAddr: 0x63DD4, symSize: 0x5C }
  - { offset: 0x27A99E, size: 0x8, addend: 0x0, symName: '__ZN79_$LT$pyo3..types..list..PyList$u20$as$u20$pythonize..ser..PythonizeListType$GT$15create_sequence17h3dabbdf227575c47E', symObjAddr: 0x108, symBinAddr: 0x63E30, symSize: 0x270 }
  - { offset: 0x27B28F, size: 0x8, addend: 0x0, symName: __ZN5tokio7runtime4task3raw15try_read_output17h05a9fd80bbfc52c8E, symObjAddr: 0x0, symBinAddr: 0x640A0, symSize: 0x38 }
  - { offset: 0x27B857, size: 0x8, addend: 0x0, symName: __ZN5tokio7runtime4task3raw15try_read_output17h05a9fd80bbfc52c8E, symObjAddr: 0x0, symBinAddr: 0x640A0, symSize: 0x38 }
  - { offset: 0x27B8F2, size: 0x8, addend: 0x0, symName: __ZN5tokio7runtime4task3raw15try_read_output17h0d085c31ded1bf87E, symObjAddr: 0x38, symBinAddr: 0x640D8, symSize: 0x38 }
  - { offset: 0x27B98D, size: 0x8, addend: 0x0, symName: __ZN5tokio7runtime4task3raw15try_read_output17h0ec98e564c725143E, symObjAddr: 0x70, symBinAddr: 0x64110, symSize: 0x38 }
  - { offset: 0x27BA28, size: 0x8, addend: 0x0, symName: __ZN5tokio7runtime4task3raw15try_read_output17h134ec0adb19c55ecE, symObjAddr: 0xA8, symBinAddr: 0x64148, symSize: 0x38 }
  - { offset: 0x27BAC3, size: 0x8, addend: 0x0, symName: __ZN5tokio7runtime4task3raw15try_read_output17h1ae35eec8e7945f9E, symObjAddr: 0xE0, symBinAddr: 0x64180, symSize: 0x38 }
  - { offset: 0x27BB5E, size: 0x8, addend: 0x0, symName: __ZN5tokio7runtime4task3raw15try_read_output17h1d6c3aeab593a696E, symObjAddr: 0x118, symBinAddr: 0x641B8, symSize: 0x38 }
  - { offset: 0x27BBF9, size: 0x8, addend: 0x0, symName: __ZN5tokio7runtime4task3raw15try_read_output17h21b0aba11c6d61f0E, symObjAddr: 0x150, symBinAddr: 0x641F0, symSize: 0x38 }
  - { offset: 0x27BC94, size: 0x8, addend: 0x0, symName: __ZN5tokio7runtime4task3raw15try_read_output17h26c67f177f8f7ad8E, symObjAddr: 0x188, symBinAddr: 0x64228, symSize: 0x38 }
  - { offset: 0x27BD2F, size: 0x8, addend: 0x0, symName: __ZN5tokio7runtime4task3raw15try_read_output17h337afb9fd62c7a92E, symObjAddr: 0x1C0, symBinAddr: 0x64260, symSize: 0x38 }
  - { offset: 0x27BDCA, size: 0x8, addend: 0x0, symName: __ZN5tokio7runtime4task3raw15try_read_output17h37d5d2b56b0e854fE, symObjAddr: 0x1F8, symBinAddr: 0x64298, symSize: 0x38 }
  - { offset: 0x27BE65, size: 0x8, addend: 0x0, symName: __ZN5tokio7runtime4task3raw15try_read_output17h45bb9f7ddadcfd33E, symObjAddr: 0x230, symBinAddr: 0x642D0, symSize: 0x38 }
  - { offset: 0x27BF00, size: 0x8, addend: 0x0, symName: __ZN5tokio7runtime4task3raw15try_read_output17h5f389c8526475edfE, symObjAddr: 0x268, symBinAddr: 0x64308, symSize: 0x38 }
  - { offset: 0x27BF9B, size: 0x8, addend: 0x0, symName: __ZN5tokio7runtime4task3raw15try_read_output17h75c02278b33e289eE, symObjAddr: 0x2A0, symBinAddr: 0x64340, symSize: 0x38 }
  - { offset: 0x27C036, size: 0x8, addend: 0x0, symName: __ZN5tokio7runtime4task3raw15try_read_output17h7b38a4a08dfca0a5E, symObjAddr: 0x2D8, symBinAddr: 0x64378, symSize: 0x38 }
  - { offset: 0x27C0D1, size: 0x8, addend: 0x0, symName: __ZN5tokio7runtime4task3raw15try_read_output17h89b309d5e99c3955E, symObjAddr: 0x310, symBinAddr: 0x643B0, symSize: 0x38 }
  - { offset: 0x27C16C, size: 0x8, addend: 0x0, symName: __ZN5tokio7runtime4task3raw15try_read_output17h9c9fa7291f2ca6f1E, symObjAddr: 0x348, symBinAddr: 0x643E8, symSize: 0x38 }
  - { offset: 0x27C207, size: 0x8, addend: 0x0, symName: __ZN5tokio7runtime4task3raw15try_read_output17habd6b6e6018e0a80E, symObjAddr: 0x380, symBinAddr: 0x64420, symSize: 0x38 }
  - { offset: 0x27C2A2, size: 0x8, addend: 0x0, symName: __ZN5tokio7runtime4task3raw15try_read_output17hbc75c4b11c718fe2E, symObjAddr: 0x3B8, symBinAddr: 0x64458, symSize: 0x38 }
  - { offset: 0x27C33D, size: 0x8, addend: 0x0, symName: __ZN5tokio7runtime4task3raw15try_read_output17hbec9751f51084370E, symObjAddr: 0x3F0, symBinAddr: 0x64490, symSize: 0x38 }
  - { offset: 0x27C3D8, size: 0x8, addend: 0x0, symName: __ZN5tokio7runtime4task3raw15try_read_output17hbf9b0ffa86968f05E, symObjAddr: 0x428, symBinAddr: 0x644C8, symSize: 0x38 }
  - { offset: 0x27C473, size: 0x8, addend: 0x0, symName: __ZN5tokio7runtime4task3raw15try_read_output17hcaf82d3f707b0d00E, symObjAddr: 0x460, symBinAddr: 0x64500, symSize: 0x38 }
  - { offset: 0x27C50E, size: 0x8, addend: 0x0, symName: __ZN5tokio7runtime4task3raw15try_read_output17hd01137448a733914E, symObjAddr: 0x498, symBinAddr: 0x64538, symSize: 0x38 }
  - { offset: 0x27C5A9, size: 0x8, addend: 0x0, symName: __ZN5tokio7runtime4task3raw15try_read_output17hd75889572ec7d44eE, symObjAddr: 0x4D0, symBinAddr: 0x64570, symSize: 0x38 }
  - { offset: 0x27C644, size: 0x8, addend: 0x0, symName: __ZN5tokio7runtime4task3raw15try_read_output17hd883b3cc52946f88E, symObjAddr: 0x508, symBinAddr: 0x645A8, symSize: 0x38 }
  - { offset: 0x27C6DF, size: 0x8, addend: 0x0, symName: __ZN5tokio7runtime4task3raw15try_read_output17hdaf237c39f4c7ad9E, symObjAddr: 0x540, symBinAddr: 0x645E0, symSize: 0x38 }
  - { offset: 0x27C77A, size: 0x8, addend: 0x0, symName: __ZN5tokio7runtime4task3raw15try_read_output17he2c5cf245ff42676E, symObjAddr: 0x578, symBinAddr: 0x64618, symSize: 0x38 }
  - { offset: 0x27C815, size: 0x8, addend: 0x0, symName: __ZN5tokio7runtime4task3raw15try_read_output17hf35c8385c15e9ff6E, symObjAddr: 0x5B0, symBinAddr: 0x64650, symSize: 0x38 }
  - { offset: 0x27C8B0, size: 0x8, addend: 0x0, symName: __ZN5tokio7runtime4task3raw15try_read_output17hffc2132b37bf8bacE, symObjAddr: 0x5E8, symBinAddr: 0x64688, symSize: 0x38 }
  - { offset: 0x27C94B, size: 0x8, addend: 0x0, symName: __ZN5tokio7runtime4task3raw17drop_abort_handle17h0416e6a6e0ccf285E, symObjAddr: 0x620, symBinAddr: 0x646C0, symSize: 0x54 }
  - { offset: 0x27C9D2, size: 0x8, addend: 0x0, symName: __ZN5tokio7runtime4task3raw17drop_abort_handle17h0d2ba4dcd47e4c72E, symObjAddr: 0x674, symBinAddr: 0x64714, symSize: 0x54 }
  - { offset: 0x27CA59, size: 0x8, addend: 0x0, symName: __ZN5tokio7runtime4task3raw17drop_abort_handle17h164752d07307719aE, symObjAddr: 0x6C8, symBinAddr: 0x64768, symSize: 0x54 }
  - { offset: 0x27CAE0, size: 0x8, addend: 0x0, symName: __ZN5tokio7runtime4task3raw17drop_abort_handle17h1decdbf200717d9eE, symObjAddr: 0x71C, symBinAddr: 0x647BC, symSize: 0x54 }
  - { offset: 0x27CB67, size: 0x8, addend: 0x0, symName: __ZN5tokio7runtime4task3raw17drop_abort_handle17h2b94255679efdd64E, symObjAddr: 0x770, symBinAddr: 0x64810, symSize: 0x54 }
  - { offset: 0x27CBEE, size: 0x8, addend: 0x0, symName: __ZN5tokio7runtime4task3raw17drop_abort_handle17h2f05cb9c85b316c1E, symObjAddr: 0x7C4, symBinAddr: 0x64864, symSize: 0x54 }
  - { offset: 0x27CC75, size: 0x8, addend: 0x0, symName: __ZN5tokio7runtime4task3raw17drop_abort_handle17h37502ddeaeb07636E, symObjAddr: 0x818, symBinAddr: 0x648B8, symSize: 0x54 }
  - { offset: 0x27CCFC, size: 0x8, addend: 0x0, symName: __ZN5tokio7runtime4task3raw17drop_abort_handle17h38a86eea4fe519fcE, symObjAddr: 0x86C, symBinAddr: 0x6490C, symSize: 0x54 }
  - { offset: 0x27CD83, size: 0x8, addend: 0x0, symName: __ZN5tokio7runtime4task3raw17drop_abort_handle17h450ba3745d3d5c86E, symObjAddr: 0x8C0, symBinAddr: 0x64960, symSize: 0x54 }
  - { offset: 0x27CE0A, size: 0x8, addend: 0x0, symName: __ZN5tokio7runtime4task3raw17drop_abort_handle17h4fb4ad7b2eaad9abE, symObjAddr: 0x914, symBinAddr: 0x649B4, symSize: 0x54 }
  - { offset: 0x27CE91, size: 0x8, addend: 0x0, symName: __ZN5tokio7runtime4task3raw17drop_abort_handle17h576e96e54208d629E, symObjAddr: 0x968, symBinAddr: 0x64A08, symSize: 0x54 }
  - { offset: 0x27CF18, size: 0x8, addend: 0x0, symName: __ZN5tokio7runtime4task3raw17drop_abort_handle17h7ae7509d4f6fded4E, symObjAddr: 0x9BC, symBinAddr: 0x64A5C, symSize: 0x54 }
  - { offset: 0x27CF9F, size: 0x8, addend: 0x0, symName: __ZN5tokio7runtime4task3raw17drop_abort_handle17hb94b89edc1a311cfE, symObjAddr: 0xA10, symBinAddr: 0x64AB0, symSize: 0x54 }
  - { offset: 0x27D026, size: 0x8, addend: 0x0, symName: __ZN5tokio7runtime4task3raw17drop_abort_handle17hc821bc3c6c8e3a13E, symObjAddr: 0xA64, symBinAddr: 0x64B04, symSize: 0x54 }
  - { offset: 0x27D0AD, size: 0x8, addend: 0x0, symName: __ZN5tokio7runtime4task3raw17drop_abort_handle17hc98785239620f9ebE, symObjAddr: 0xAB8, symBinAddr: 0x64B58, symSize: 0x54 }
  - { offset: 0x27D134, size: 0x8, addend: 0x0, symName: __ZN5tokio7runtime4task3raw17drop_abort_handle17hcb48c73fdd6565efE, symObjAddr: 0xB0C, symBinAddr: 0x64BAC, symSize: 0x54 }
  - { offset: 0x27D1BB, size: 0x8, addend: 0x0, symName: __ZN5tokio7runtime4task3raw17drop_abort_handle17hceb58dcc66dde2f3E, symObjAddr: 0xB60, symBinAddr: 0x64C00, symSize: 0x54 }
  - { offset: 0x27D242, size: 0x8, addend: 0x0, symName: __ZN5tokio7runtime4task3raw17drop_abort_handle17hd16f62e0ce88dd35E, symObjAddr: 0xBB4, symBinAddr: 0x64C54, symSize: 0x54 }
  - { offset: 0x27D2C9, size: 0x8, addend: 0x0, symName: __ZN5tokio7runtime4task3raw17drop_abort_handle17hd723b28bd83af222E, symObjAddr: 0xC08, symBinAddr: 0x64CA8, symSize: 0x54 }
  - { offset: 0x27D350, size: 0x8, addend: 0x0, symName: __ZN5tokio7runtime4task3raw17drop_abort_handle17hde380eb6902e608dE, symObjAddr: 0xC5C, symBinAddr: 0x64CFC, symSize: 0x54 }
  - { offset: 0x27D3D7, size: 0x8, addend: 0x0, symName: __ZN5tokio7runtime4task3raw17drop_abort_handle17he44be89f01b5f083E, symObjAddr: 0xCB0, symBinAddr: 0x64D50, symSize: 0x54 }
  - { offset: 0x27D45E, size: 0x8, addend: 0x0, symName: __ZN5tokio7runtime4task3raw17drop_abort_handle17he756b32ae4a8d5a9E, symObjAddr: 0xD04, symBinAddr: 0x64DA4, symSize: 0x54 }
  - { offset: 0x27D4E5, size: 0x8, addend: 0x0, symName: __ZN5tokio7runtime4task3raw17drop_abort_handle17heef292b7f9f36a7eE, symObjAddr: 0xD58, symBinAddr: 0x64DF8, symSize: 0x54 }
  - { offset: 0x27D56C, size: 0x8, addend: 0x0, symName: __ZN5tokio7runtime4task3raw17drop_abort_handle17heffd59427bbd8403E, symObjAddr: 0xDAC, symBinAddr: 0x64E4C, symSize: 0x54 }
  - { offset: 0x27D5F3, size: 0x8, addend: 0x0, symName: __ZN5tokio7runtime4task3raw17drop_abort_handle17hf092829cd84d2e88E, symObjAddr: 0xE00, symBinAddr: 0x64EA0, symSize: 0x54 }
  - { offset: 0x27D67A, size: 0x8, addend: 0x0, symName: __ZN5tokio7runtime4task3raw17drop_abort_handle17hfafd42b401245409E, symObjAddr: 0xE54, symBinAddr: 0x64EF4, symSize: 0x54 }
  - { offset: 0x27D701, size: 0x8, addend: 0x0, symName: __ZN5tokio7runtime4task3raw17drop_abort_handle17hffb5ccb7e0d2df0bE, symObjAddr: 0xEA8, symBinAddr: 0x64F48, symSize: 0x54 }
  - { offset: 0x27D788, size: 0x8, addend: 0x0, symName: __ZN5tokio7runtime4task3raw17drop_abort_handle17hffe9e8cda946904aE, symObjAddr: 0xEFC, symBinAddr: 0x64F9C, symSize: 0x54 }
  - { offset: 0x27D80F, size: 0x8, addend: 0x0, symName: __ZN5tokio7runtime4task3raw21drop_join_handle_slow17h032431c2afd255f0E, symObjAddr: 0xF50, symBinAddr: 0x64FF0, symSize: 0x4 }
  - { offset: 0x27D838, size: 0x8, addend: 0x0, symName: __ZN5tokio7runtime4task3raw21drop_join_handle_slow17h032431c2afd255f0E, symObjAddr: 0xF50, symBinAddr: 0x64FF0, symSize: 0x4 }
  - { offset: 0x27D869, size: 0x8, addend: 0x0, symName: __ZN5tokio7runtime4task3raw21drop_join_handle_slow17h0ea209f691f19095E, symObjAddr: 0xF54, symBinAddr: 0x64FF4, symSize: 0x4 }
  - { offset: 0x27D892, size: 0x8, addend: 0x0, symName: __ZN5tokio7runtime4task3raw21drop_join_handle_slow17h0ea209f691f19095E, symObjAddr: 0xF54, symBinAddr: 0x64FF4, symSize: 0x4 }
  - { offset: 0x27D8C3, size: 0x8, addend: 0x0, symName: __ZN5tokio7runtime4task3raw21drop_join_handle_slow17h11cdd3bbe0de0bb4E, symObjAddr: 0xF58, symBinAddr: 0x64FF8, symSize: 0x4 }
  - { offset: 0x27D8EC, size: 0x8, addend: 0x0, symName: __ZN5tokio7runtime4task3raw21drop_join_handle_slow17h11cdd3bbe0de0bb4E, symObjAddr: 0xF58, symBinAddr: 0x64FF8, symSize: 0x4 }
  - { offset: 0x27D91D, size: 0x8, addend: 0x0, symName: __ZN5tokio7runtime4task3raw21drop_join_handle_slow17h1bcf56f0f8da2d9dE, symObjAddr: 0xF5C, symBinAddr: 0x64FFC, symSize: 0x4 }
  - { offset: 0x27D946, size: 0x8, addend: 0x0, symName: __ZN5tokio7runtime4task3raw21drop_join_handle_slow17h1bcf56f0f8da2d9dE, symObjAddr: 0xF5C, symBinAddr: 0x64FFC, symSize: 0x4 }
  - { offset: 0x27D977, size: 0x8, addend: 0x0, symName: __ZN5tokio7runtime4task3raw21drop_join_handle_slow17h2ae0b2a243ced9dfE, symObjAddr: 0xF60, symBinAddr: 0x65000, symSize: 0x4 }
  - { offset: 0x27D9A0, size: 0x8, addend: 0x0, symName: __ZN5tokio7runtime4task3raw21drop_join_handle_slow17h2ae0b2a243ced9dfE, symObjAddr: 0xF60, symBinAddr: 0x65000, symSize: 0x4 }
  - { offset: 0x27D9D1, size: 0x8, addend: 0x0, symName: __ZN5tokio7runtime4task3raw21drop_join_handle_slow17h2cfdb9e246252610E, symObjAddr: 0xF64, symBinAddr: 0x65004, symSize: 0x4 }
  - { offset: 0x27D9FA, size: 0x8, addend: 0x0, symName: __ZN5tokio7runtime4task3raw21drop_join_handle_slow17h2cfdb9e246252610E, symObjAddr: 0xF64, symBinAddr: 0x65004, symSize: 0x4 }
  - { offset: 0x27DA2B, size: 0x8, addend: 0x0, symName: __ZN5tokio7runtime4task3raw21drop_join_handle_slow17h33ab3b8400e87357E, symObjAddr: 0xF68, symBinAddr: 0x65008, symSize: 0x4 }
  - { offset: 0x27DA54, size: 0x8, addend: 0x0, symName: __ZN5tokio7runtime4task3raw21drop_join_handle_slow17h33ab3b8400e87357E, symObjAddr: 0xF68, symBinAddr: 0x65008, symSize: 0x4 }
  - { offset: 0x27DA85, size: 0x8, addend: 0x0, symName: __ZN5tokio7runtime4task3raw21drop_join_handle_slow17h431cdb375a67b07cE, symObjAddr: 0xF6C, symBinAddr: 0x6500C, symSize: 0x4 }
  - { offset: 0x27DAAE, size: 0x8, addend: 0x0, symName: __ZN5tokio7runtime4task3raw21drop_join_handle_slow17h431cdb375a67b07cE, symObjAddr: 0xF6C, symBinAddr: 0x6500C, symSize: 0x4 }
  - { offset: 0x27DADF, size: 0x8, addend: 0x0, symName: __ZN5tokio7runtime4task3raw21drop_join_handle_slow17h4c48afde3627ba58E, symObjAddr: 0xF70, symBinAddr: 0x65010, symSize: 0x4 }
  - { offset: 0x27DB08, size: 0x8, addend: 0x0, symName: __ZN5tokio7runtime4task3raw21drop_join_handle_slow17h4c48afde3627ba58E, symObjAddr: 0xF70, symBinAddr: 0x65010, symSize: 0x4 }
  - { offset: 0x27DB39, size: 0x8, addend: 0x0, symName: __ZN5tokio7runtime4task3raw21drop_join_handle_slow17h631d0ec335b88f91E, symObjAddr: 0xF74, symBinAddr: 0x65014, symSize: 0x4 }
  - { offset: 0x27DB62, size: 0x8, addend: 0x0, symName: __ZN5tokio7runtime4task3raw21drop_join_handle_slow17h631d0ec335b88f91E, symObjAddr: 0xF74, symBinAddr: 0x65014, symSize: 0x4 }
  - { offset: 0x27DB93, size: 0x8, addend: 0x0, symName: __ZN5tokio7runtime4task3raw21drop_join_handle_slow17h6453b0ad7df99e1dE, symObjAddr: 0xF78, symBinAddr: 0x65018, symSize: 0x4 }
  - { offset: 0x27DBBC, size: 0x8, addend: 0x0, symName: __ZN5tokio7runtime4task3raw21drop_join_handle_slow17h6453b0ad7df99e1dE, symObjAddr: 0xF78, symBinAddr: 0x65018, symSize: 0x4 }
  - { offset: 0x27DBED, size: 0x8, addend: 0x0, symName: __ZN5tokio7runtime4task3raw21drop_join_handle_slow17h663aa7e65634c0a6E, symObjAddr: 0xF7C, symBinAddr: 0x6501C, symSize: 0x4 }
  - { offset: 0x27DC16, size: 0x8, addend: 0x0, symName: __ZN5tokio7runtime4task3raw21drop_join_handle_slow17h663aa7e65634c0a6E, symObjAddr: 0xF7C, symBinAddr: 0x6501C, symSize: 0x4 }
  - { offset: 0x27DC47, size: 0x8, addend: 0x0, symName: __ZN5tokio7runtime4task3raw21drop_join_handle_slow17h678692bec5dfedfbE, symObjAddr: 0xF80, symBinAddr: 0x65020, symSize: 0x4 }
  - { offset: 0x27DC70, size: 0x8, addend: 0x0, symName: __ZN5tokio7runtime4task3raw21drop_join_handle_slow17h678692bec5dfedfbE, symObjAddr: 0xF80, symBinAddr: 0x65020, symSize: 0x4 }
  - { offset: 0x27DCA1, size: 0x8, addend: 0x0, symName: __ZN5tokio7runtime4task3raw21drop_join_handle_slow17h841525cce536d0e0E, symObjAddr: 0xF84, symBinAddr: 0x65024, symSize: 0x4 }
  - { offset: 0x27DCCA, size: 0x8, addend: 0x0, symName: __ZN5tokio7runtime4task3raw21drop_join_handle_slow17h841525cce536d0e0E, symObjAddr: 0xF84, symBinAddr: 0x65024, symSize: 0x4 }
  - { offset: 0x27DCFB, size: 0x8, addend: 0x0, symName: __ZN5tokio7runtime4task3raw21drop_join_handle_slow17h8d1c75f3b8580c05E, symObjAddr: 0xF88, symBinAddr: 0x65028, symSize: 0x4 }
  - { offset: 0x27DD24, size: 0x8, addend: 0x0, symName: __ZN5tokio7runtime4task3raw21drop_join_handle_slow17h8d1c75f3b8580c05E, symObjAddr: 0xF88, symBinAddr: 0x65028, symSize: 0x4 }
  - { offset: 0x27DD55, size: 0x8, addend: 0x0, symName: __ZN5tokio7runtime4task3raw21drop_join_handle_slow17h8f1af4aa200ca27fE, symObjAddr: 0xF8C, symBinAddr: 0x6502C, symSize: 0x4 }
  - { offset: 0x27DD7E, size: 0x8, addend: 0x0, symName: __ZN5tokio7runtime4task3raw21drop_join_handle_slow17h8f1af4aa200ca27fE, symObjAddr: 0xF8C, symBinAddr: 0x6502C, symSize: 0x4 }
  - { offset: 0x27DDAF, size: 0x8, addend: 0x0, symName: __ZN5tokio7runtime4task3raw21drop_join_handle_slow17h9e3d8080d28997d3E, symObjAddr: 0xF90, symBinAddr: 0x65030, symSize: 0x4 }
  - { offset: 0x27DDD8, size: 0x8, addend: 0x0, symName: __ZN5tokio7runtime4task3raw21drop_join_handle_slow17h9e3d8080d28997d3E, symObjAddr: 0xF90, symBinAddr: 0x65030, symSize: 0x4 }
  - { offset: 0x27DE09, size: 0x8, addend: 0x0, symName: __ZN5tokio7runtime4task3raw21drop_join_handle_slow17hb85c8992f75fa3b0E, symObjAddr: 0xF94, symBinAddr: 0x65034, symSize: 0x4 }
  - { offset: 0x27DE32, size: 0x8, addend: 0x0, symName: __ZN5tokio7runtime4task3raw21drop_join_handle_slow17hb85c8992f75fa3b0E, symObjAddr: 0xF94, symBinAddr: 0x65034, symSize: 0x4 }
  - { offset: 0x27DE63, size: 0x8, addend: 0x0, symName: __ZN5tokio7runtime4task3raw21drop_join_handle_slow17hb862ed91111201f4E, symObjAddr: 0xF98, symBinAddr: 0x65038, symSize: 0x4 }
  - { offset: 0x27DE8C, size: 0x8, addend: 0x0, symName: __ZN5tokio7runtime4task3raw21drop_join_handle_slow17hb862ed91111201f4E, symObjAddr: 0xF98, symBinAddr: 0x65038, symSize: 0x4 }
  - { offset: 0x27DEBD, size: 0x8, addend: 0x0, symName: __ZN5tokio7runtime4task3raw21drop_join_handle_slow17hbcae6faa7b301ee4E, symObjAddr: 0xF9C, symBinAddr: 0x6503C, symSize: 0x4 }
  - { offset: 0x27DEE6, size: 0x8, addend: 0x0, symName: __ZN5tokio7runtime4task3raw21drop_join_handle_slow17hbcae6faa7b301ee4E, symObjAddr: 0xF9C, symBinAddr: 0x6503C, symSize: 0x4 }
  - { offset: 0x27DF17, size: 0x8, addend: 0x0, symName: __ZN5tokio7runtime4task3raw21drop_join_handle_slow17hbe5d4dae1ac26c30E, symObjAddr: 0xFA0, symBinAddr: 0x65040, symSize: 0x4 }
  - { offset: 0x27DF40, size: 0x8, addend: 0x0, symName: __ZN5tokio7runtime4task3raw21drop_join_handle_slow17hbe5d4dae1ac26c30E, symObjAddr: 0xFA0, symBinAddr: 0x65040, symSize: 0x4 }
  - { offset: 0x27DF71, size: 0x8, addend: 0x0, symName: __ZN5tokio7runtime4task3raw21drop_join_handle_slow17hd8b4b2c9cb7251feE, symObjAddr: 0xFA4, symBinAddr: 0x65044, symSize: 0x4 }
  - { offset: 0x27DF9A, size: 0x8, addend: 0x0, symName: __ZN5tokio7runtime4task3raw21drop_join_handle_slow17hd8b4b2c9cb7251feE, symObjAddr: 0xFA4, symBinAddr: 0x65044, symSize: 0x4 }
  - { offset: 0x27DFCB, size: 0x8, addend: 0x0, symName: __ZN5tokio7runtime4task3raw21drop_join_handle_slow17hdbdb53e7324ff2f2E, symObjAddr: 0xFA8, symBinAddr: 0x65048, symSize: 0x4 }
  - { offset: 0x27DFF4, size: 0x8, addend: 0x0, symName: __ZN5tokio7runtime4task3raw21drop_join_handle_slow17hdbdb53e7324ff2f2E, symObjAddr: 0xFA8, symBinAddr: 0x65048, symSize: 0x4 }
  - { offset: 0x27E025, size: 0x8, addend: 0x0, symName: __ZN5tokio7runtime4task3raw21drop_join_handle_slow17he31d71a65cb7914bE, symObjAddr: 0xFAC, symBinAddr: 0x6504C, symSize: 0x4 }
  - { offset: 0x27E04E, size: 0x8, addend: 0x0, symName: __ZN5tokio7runtime4task3raw21drop_join_handle_slow17he31d71a65cb7914bE, symObjAddr: 0xFAC, symBinAddr: 0x6504C, symSize: 0x4 }
  - { offset: 0x27E07F, size: 0x8, addend: 0x0, symName: __ZN5tokio7runtime4task3raw21drop_join_handle_slow17he954a55ac2bb03c3E, symObjAddr: 0xFB0, symBinAddr: 0x65050, symSize: 0x4 }
  - { offset: 0x27E0A8, size: 0x8, addend: 0x0, symName: __ZN5tokio7runtime4task3raw21drop_join_handle_slow17he954a55ac2bb03c3E, symObjAddr: 0xFB0, symBinAddr: 0x65050, symSize: 0x4 }
  - { offset: 0x27E0D9, size: 0x8, addend: 0x0, symName: __ZN5tokio7runtime4task3raw21drop_join_handle_slow17hf3f14afb8d777660E, symObjAddr: 0xFB4, symBinAddr: 0x65054, symSize: 0x4 }
  - { offset: 0x27E102, size: 0x8, addend: 0x0, symName: __ZN5tokio7runtime4task3raw21drop_join_handle_slow17hf3f14afb8d777660E, symObjAddr: 0xFB4, symBinAddr: 0x65054, symSize: 0x4 }
  - { offset: 0x27E133, size: 0x8, addend: 0x0, symName: __ZN5tokio7runtime4task3raw21drop_join_handle_slow17hf58a15b580492086E, symObjAddr: 0xFB8, symBinAddr: 0x65058, symSize: 0x4 }
  - { offset: 0x27E15C, size: 0x8, addend: 0x0, symName: __ZN5tokio7runtime4task3raw21drop_join_handle_slow17hf58a15b580492086E, symObjAddr: 0xFB8, symBinAddr: 0x65058, symSize: 0x4 }
  - { offset: 0x27E18D, size: 0x8, addend: 0x0, symName: __ZN5tokio7runtime4task3raw21drop_join_handle_slow17hfe836893af700a91E, symObjAddr: 0xFBC, symBinAddr: 0x6505C, symSize: 0x4 }
  - { offset: 0x27E1B6, size: 0x8, addend: 0x0, symName: __ZN5tokio7runtime4task3raw21drop_join_handle_slow17hfe836893af700a91E, symObjAddr: 0xFBC, symBinAddr: 0x6505C, symSize: 0x4 }
  - { offset: 0x27E1E7, size: 0x8, addend: 0x0, symName: __ZN5tokio7runtime4task3raw4poll17h0427804fba929d3aE, symObjAddr: 0xFC0, symBinAddr: 0x65060, symSize: 0x4 }
  - { offset: 0x27E210, size: 0x8, addend: 0x0, symName: __ZN5tokio7runtime4task3raw4poll17h0427804fba929d3aE, symObjAddr: 0xFC0, symBinAddr: 0x65060, symSize: 0x4 }
  - { offset: 0x27E241, size: 0x8, addend: 0x0, symName: __ZN5tokio7runtime4task3raw4poll17h1186abfb506cc4dfE, symObjAddr: 0xFC4, symBinAddr: 0x65064, symSize: 0x4 }
  - { offset: 0x27E26A, size: 0x8, addend: 0x0, symName: __ZN5tokio7runtime4task3raw4poll17h1186abfb506cc4dfE, symObjAddr: 0xFC4, symBinAddr: 0x65064, symSize: 0x4 }
  - { offset: 0x27E29B, size: 0x8, addend: 0x0, symName: __ZN5tokio7runtime4task3raw4poll17h13ac1ef67cba3edbE, symObjAddr: 0xFC8, symBinAddr: 0x65068, symSize: 0x4 }
  - { offset: 0x27E2C4, size: 0x8, addend: 0x0, symName: __ZN5tokio7runtime4task3raw4poll17h13ac1ef67cba3edbE, symObjAddr: 0xFC8, symBinAddr: 0x65068, symSize: 0x4 }
  - { offset: 0x27E2F5, size: 0x8, addend: 0x0, symName: __ZN5tokio7runtime4task3raw4poll17h2ebc6b6c12769c62E, symObjAddr: 0xFCC, symBinAddr: 0x6506C, symSize: 0x4 }
  - { offset: 0x27E31E, size: 0x8, addend: 0x0, symName: __ZN5tokio7runtime4task3raw4poll17h2ebc6b6c12769c62E, symObjAddr: 0xFCC, symBinAddr: 0x6506C, symSize: 0x4 }
  - { offset: 0x27E34F, size: 0x8, addend: 0x0, symName: __ZN5tokio7runtime4task3raw4poll17h3099e633e4fbbe1eE, symObjAddr: 0xFD0, symBinAddr: 0x65070, symSize: 0x4 }
  - { offset: 0x27E378, size: 0x8, addend: 0x0, symName: __ZN5tokio7runtime4task3raw4poll17h3099e633e4fbbe1eE, symObjAddr: 0xFD0, symBinAddr: 0x65070, symSize: 0x4 }
  - { offset: 0x27E3A9, size: 0x8, addend: 0x0, symName: __ZN5tokio7runtime4task3raw4poll17h3a0eb9a02db36840E, symObjAddr: 0xFD4, symBinAddr: 0x65074, symSize: 0x4 }
  - { offset: 0x27E3D2, size: 0x8, addend: 0x0, symName: __ZN5tokio7runtime4task3raw4poll17h3a0eb9a02db36840E, symObjAddr: 0xFD4, symBinAddr: 0x65074, symSize: 0x4 }
  - { offset: 0x27E403, size: 0x8, addend: 0x0, symName: __ZN5tokio7runtime4task3raw4poll17h3c445f4dee267f00E, symObjAddr: 0xFD8, symBinAddr: 0x65078, symSize: 0x4 }
  - { offset: 0x27E42C, size: 0x8, addend: 0x0, symName: __ZN5tokio7runtime4task3raw4poll17h3c445f4dee267f00E, symObjAddr: 0xFD8, symBinAddr: 0x65078, symSize: 0x4 }
  - { offset: 0x27E45D, size: 0x8, addend: 0x0, symName: __ZN5tokio7runtime4task3raw4poll17h6a385ba1ecc47b30E, symObjAddr: 0xFDC, symBinAddr: 0x6507C, symSize: 0x4 }
  - { offset: 0x27E486, size: 0x8, addend: 0x0, symName: __ZN5tokio7runtime4task3raw4poll17h6a385ba1ecc47b30E, symObjAddr: 0xFDC, symBinAddr: 0x6507C, symSize: 0x4 }
  - { offset: 0x27E4B7, size: 0x8, addend: 0x0, symName: __ZN5tokio7runtime4task3raw4poll17h79d135d4b99b7fddE, symObjAddr: 0xFE0, symBinAddr: 0x65080, symSize: 0x4 }
  - { offset: 0x27E4E0, size: 0x8, addend: 0x0, symName: __ZN5tokio7runtime4task3raw4poll17h79d135d4b99b7fddE, symObjAddr: 0xFE0, symBinAddr: 0x65080, symSize: 0x4 }
  - { offset: 0x27E511, size: 0x8, addend: 0x0, symName: __ZN5tokio7runtime4task3raw4poll17h7a2dfd1a1336f8e2E, symObjAddr: 0xFE4, symBinAddr: 0x65084, symSize: 0x4 }
  - { offset: 0x27E53A, size: 0x8, addend: 0x0, symName: __ZN5tokio7runtime4task3raw4poll17h7a2dfd1a1336f8e2E, symObjAddr: 0xFE4, symBinAddr: 0x65084, symSize: 0x4 }
  - { offset: 0x27E56B, size: 0x8, addend: 0x0, symName: __ZN5tokio7runtime4task3raw4poll17h80ee018d6d8cc9f4E, symObjAddr: 0xFE8, symBinAddr: 0x65088, symSize: 0x4 }
  - { offset: 0x27E594, size: 0x8, addend: 0x0, symName: __ZN5tokio7runtime4task3raw4poll17h80ee018d6d8cc9f4E, symObjAddr: 0xFE8, symBinAddr: 0x65088, symSize: 0x4 }
  - { offset: 0x27E5C5, size: 0x8, addend: 0x0, symName: __ZN5tokio7runtime4task3raw4poll17h8b284b7e3ba4da9dE, symObjAddr: 0xFEC, symBinAddr: 0x6508C, symSize: 0x4 }
  - { offset: 0x27E5EE, size: 0x8, addend: 0x0, symName: __ZN5tokio7runtime4task3raw4poll17h8b284b7e3ba4da9dE, symObjAddr: 0xFEC, symBinAddr: 0x6508C, symSize: 0x4 }
  - { offset: 0x27E61F, size: 0x8, addend: 0x0, symName: __ZN5tokio7runtime4task3raw4poll17h8c333dce287576edE, symObjAddr: 0xFF0, symBinAddr: 0x65090, symSize: 0x4 }
  - { offset: 0x27E648, size: 0x8, addend: 0x0, symName: __ZN5tokio7runtime4task3raw4poll17h8c333dce287576edE, symObjAddr: 0xFF0, symBinAddr: 0x65090, symSize: 0x4 }
  - { offset: 0x27E679, size: 0x8, addend: 0x0, symName: __ZN5tokio7runtime4task3raw4poll17h8c838b535f70950cE, symObjAddr: 0xFF4, symBinAddr: 0x65094, symSize: 0x4 }
  - { offset: 0x27E6A2, size: 0x8, addend: 0x0, symName: __ZN5tokio7runtime4task3raw4poll17h8c838b535f70950cE, symObjAddr: 0xFF4, symBinAddr: 0x65094, symSize: 0x4 }
  - { offset: 0x27E6D3, size: 0x8, addend: 0x0, symName: __ZN5tokio7runtime4task3raw4poll17h8d4de82c23468c28E, symObjAddr: 0xFF8, symBinAddr: 0x65098, symSize: 0x4 }
  - { offset: 0x27E6FC, size: 0x8, addend: 0x0, symName: __ZN5tokio7runtime4task3raw4poll17h8d4de82c23468c28E, symObjAddr: 0xFF8, symBinAddr: 0x65098, symSize: 0x4 }
  - { offset: 0x27E72D, size: 0x8, addend: 0x0, symName: __ZN5tokio7runtime4task3raw4poll17h8f5ff290767bbaecE, symObjAddr: 0xFFC, symBinAddr: 0x6509C, symSize: 0x4 }
  - { offset: 0x27E756, size: 0x8, addend: 0x0, symName: __ZN5tokio7runtime4task3raw4poll17h8f5ff290767bbaecE, symObjAddr: 0xFFC, symBinAddr: 0x6509C, symSize: 0x4 }
  - { offset: 0x27E787, size: 0x8, addend: 0x0, symName: __ZN5tokio7runtime4task3raw4poll17h96e3fe6c0567d07fE, symObjAddr: 0x1000, symBinAddr: 0x650A0, symSize: 0x4 }
  - { offset: 0x27E7B0, size: 0x8, addend: 0x0, symName: __ZN5tokio7runtime4task3raw4poll17h96e3fe6c0567d07fE, symObjAddr: 0x1000, symBinAddr: 0x650A0, symSize: 0x4 }
  - { offset: 0x27E7E1, size: 0x8, addend: 0x0, symName: __ZN5tokio7runtime4task3raw4poll17ha906629b2099efb2E, symObjAddr: 0x1004, symBinAddr: 0x650A4, symSize: 0x4 }
  - { offset: 0x27E80A, size: 0x8, addend: 0x0, symName: __ZN5tokio7runtime4task3raw4poll17ha906629b2099efb2E, symObjAddr: 0x1004, symBinAddr: 0x650A4, symSize: 0x4 }
  - { offset: 0x27E83B, size: 0x8, addend: 0x0, symName: __ZN5tokio7runtime4task3raw4poll17hae4aede4eb8d9d51E, symObjAddr: 0x1008, symBinAddr: 0x650A8, symSize: 0x4 }
  - { offset: 0x27E864, size: 0x8, addend: 0x0, symName: __ZN5tokio7runtime4task3raw4poll17hae4aede4eb8d9d51E, symObjAddr: 0x1008, symBinAddr: 0x650A8, symSize: 0x4 }
  - { offset: 0x27E895, size: 0x8, addend: 0x0, symName: __ZN5tokio7runtime4task3raw4poll17hbc82ad0a4b230a55E, symObjAddr: 0x100C, symBinAddr: 0x650AC, symSize: 0x4 }
  - { offset: 0x27E8BE, size: 0x8, addend: 0x0, symName: __ZN5tokio7runtime4task3raw4poll17hbc82ad0a4b230a55E, symObjAddr: 0x100C, symBinAddr: 0x650AC, symSize: 0x4 }
  - { offset: 0x27E8EF, size: 0x8, addend: 0x0, symName: __ZN5tokio7runtime4task3raw4poll17hcdf7880b295d70adE, symObjAddr: 0x1010, symBinAddr: 0x650B0, symSize: 0x4 }
  - { offset: 0x27E918, size: 0x8, addend: 0x0, symName: __ZN5tokio7runtime4task3raw4poll17hcdf7880b295d70adE, symObjAddr: 0x1010, symBinAddr: 0x650B0, symSize: 0x4 }
  - { offset: 0x27E949, size: 0x8, addend: 0x0, symName: __ZN5tokio7runtime4task3raw4poll17hd284ff6c20604f87E, symObjAddr: 0x1014, symBinAddr: 0x650B4, symSize: 0x4 }
  - { offset: 0x27E972, size: 0x8, addend: 0x0, symName: __ZN5tokio7runtime4task3raw4poll17hd284ff6c20604f87E, symObjAddr: 0x1014, symBinAddr: 0x650B4, symSize: 0x4 }
  - { offset: 0x27E9A3, size: 0x8, addend: 0x0, symName: __ZN5tokio7runtime4task3raw4poll17he852efb13380192fE, symObjAddr: 0x1018, symBinAddr: 0x650B8, symSize: 0x4 }
  - { offset: 0x27E9CC, size: 0x8, addend: 0x0, symName: __ZN5tokio7runtime4task3raw4poll17he852efb13380192fE, symObjAddr: 0x1018, symBinAddr: 0x650B8, symSize: 0x4 }
  - { offset: 0x27E9FD, size: 0x8, addend: 0x0, symName: __ZN5tokio7runtime4task3raw4poll17hea67c492cedee1cbE, symObjAddr: 0x101C, symBinAddr: 0x650BC, symSize: 0x4 }
  - { offset: 0x27EA26, size: 0x8, addend: 0x0, symName: __ZN5tokio7runtime4task3raw4poll17hea67c492cedee1cbE, symObjAddr: 0x101C, symBinAddr: 0x650BC, symSize: 0x4 }
  - { offset: 0x27EA57, size: 0x8, addend: 0x0, symName: __ZN5tokio7runtime4task3raw4poll17hecb334e80045fd77E, symObjAddr: 0x1020, symBinAddr: 0x650C0, symSize: 0x4 }
  - { offset: 0x27EA80, size: 0x8, addend: 0x0, symName: __ZN5tokio7runtime4task3raw4poll17hecb334e80045fd77E, symObjAddr: 0x1020, symBinAddr: 0x650C0, symSize: 0x4 }
  - { offset: 0x27EAB1, size: 0x8, addend: 0x0, symName: __ZN5tokio7runtime4task3raw4poll17hf3e61395b14f6939E, symObjAddr: 0x1024, symBinAddr: 0x650C4, symSize: 0x4 }
  - { offset: 0x27EADA, size: 0x8, addend: 0x0, symName: __ZN5tokio7runtime4task3raw4poll17hf3e61395b14f6939E, symObjAddr: 0x1024, symBinAddr: 0x650C4, symSize: 0x4 }
  - { offset: 0x27EB0B, size: 0x8, addend: 0x0, symName: __ZN5tokio7runtime4task3raw4poll17hfb247d4d5ea73c56E, symObjAddr: 0x1028, symBinAddr: 0x650C8, symSize: 0x4 }
  - { offset: 0x27EB34, size: 0x8, addend: 0x0, symName: __ZN5tokio7runtime4task3raw4poll17hfb247d4d5ea73c56E, symObjAddr: 0x1028, symBinAddr: 0x650C8, symSize: 0x4 }
  - { offset: 0x27EB65, size: 0x8, addend: 0x0, symName: __ZN5tokio7runtime4task3raw4poll17hfcbd037504069923E, symObjAddr: 0x102C, symBinAddr: 0x650CC, symSize: 0x4 }
  - { offset: 0x27EB8E, size: 0x8, addend: 0x0, symName: __ZN5tokio7runtime4task3raw4poll17hfcbd037504069923E, symObjAddr: 0x102C, symBinAddr: 0x650CC, symSize: 0x4 }
  - { offset: 0x27EBBF, size: 0x8, addend: 0x0, symName: __ZN5tokio7runtime4task3raw7dealloc17h15fbd2bcf9c9e5a2E, symObjAddr: 0x1FF0, symBinAddr: 0x650D0, symSize: 0x4 }
  - { offset: 0x27EBE8, size: 0x8, addend: 0x0, symName: __ZN5tokio7runtime4task3raw7dealloc17h15fbd2bcf9c9e5a2E, symObjAddr: 0x1FF0, symBinAddr: 0x650D0, symSize: 0x4 }
  - { offset: 0x27EC19, size: 0x8, addend: 0x0, symName: __ZN5tokio7runtime4task3raw7dealloc17h18ce90b9074813b7E, symObjAddr: 0x1FF4, symBinAddr: 0x650D4, symSize: 0x4 }
  - { offset: 0x27EC42, size: 0x8, addend: 0x0, symName: __ZN5tokio7runtime4task3raw7dealloc17h18ce90b9074813b7E, symObjAddr: 0x1FF4, symBinAddr: 0x650D4, symSize: 0x4 }
  - { offset: 0x27EC73, size: 0x8, addend: 0x0, symName: __ZN5tokio7runtime4task3raw7dealloc17h19da57312a27ea6bE, symObjAddr: 0x1FF8, symBinAddr: 0x650D8, symSize: 0x4 }
  - { offset: 0x27EC9C, size: 0x8, addend: 0x0, symName: __ZN5tokio7runtime4task3raw7dealloc17h19da57312a27ea6bE, symObjAddr: 0x1FF8, symBinAddr: 0x650D8, symSize: 0x4 }
  - { offset: 0x27ECCD, size: 0x8, addend: 0x0, symName: __ZN5tokio7runtime4task3raw7dealloc17h244897e81e6ef446E, symObjAddr: 0x1FFC, symBinAddr: 0x650DC, symSize: 0x4 }
  - { offset: 0x27ECF6, size: 0x8, addend: 0x0, symName: __ZN5tokio7runtime4task3raw7dealloc17h244897e81e6ef446E, symObjAddr: 0x1FFC, symBinAddr: 0x650DC, symSize: 0x4 }
  - { offset: 0x27ED27, size: 0x8, addend: 0x0, symName: __ZN5tokio7runtime4task3raw7dealloc17h25f0200a9ebf1409E, symObjAddr: 0x2000, symBinAddr: 0x650E0, symSize: 0x4 }
  - { offset: 0x27ED50, size: 0x8, addend: 0x0, symName: __ZN5tokio7runtime4task3raw7dealloc17h25f0200a9ebf1409E, symObjAddr: 0x2000, symBinAddr: 0x650E0, symSize: 0x4 }
  - { offset: 0x27ED81, size: 0x8, addend: 0x0, symName: __ZN5tokio7runtime4task3raw7dealloc17h2ae2a3e77929e0a6E, symObjAddr: 0x2004, symBinAddr: 0x650E4, symSize: 0x4 }
  - { offset: 0x27EDAA, size: 0x8, addend: 0x0, symName: __ZN5tokio7runtime4task3raw7dealloc17h2ae2a3e77929e0a6E, symObjAddr: 0x2004, symBinAddr: 0x650E4, symSize: 0x4 }
  - { offset: 0x27EDDB, size: 0x8, addend: 0x0, symName: __ZN5tokio7runtime4task3raw7dealloc17h436631ad2c60de70E, symObjAddr: 0x2008, symBinAddr: 0x650E8, symSize: 0x4 }
  - { offset: 0x27EE04, size: 0x8, addend: 0x0, symName: __ZN5tokio7runtime4task3raw7dealloc17h436631ad2c60de70E, symObjAddr: 0x2008, symBinAddr: 0x650E8, symSize: 0x4 }
  - { offset: 0x27EE35, size: 0x8, addend: 0x0, symName: __ZN5tokio7runtime4task3raw7dealloc17h46b6618292d4c4abE, symObjAddr: 0x200C, symBinAddr: 0x650EC, symSize: 0x4 }
  - { offset: 0x27EE5E, size: 0x8, addend: 0x0, symName: __ZN5tokio7runtime4task3raw7dealloc17h46b6618292d4c4abE, symObjAddr: 0x200C, symBinAddr: 0x650EC, symSize: 0x4 }
  - { offset: 0x27EE8F, size: 0x8, addend: 0x0, symName: __ZN5tokio7runtime4task3raw7dealloc17h526b8a41ee25e88fE, symObjAddr: 0x2010, symBinAddr: 0x650F0, symSize: 0x4 }
  - { offset: 0x27EEB8, size: 0x8, addend: 0x0, symName: __ZN5tokio7runtime4task3raw7dealloc17h526b8a41ee25e88fE, symObjAddr: 0x2010, symBinAddr: 0x650F0, symSize: 0x4 }
  - { offset: 0x27EEE9, size: 0x8, addend: 0x0, symName: __ZN5tokio7runtime4task3raw7dealloc17h538e3997ac22a87bE, symObjAddr: 0x2014, symBinAddr: 0x650F4, symSize: 0x4 }
  - { offset: 0x27EF12, size: 0x8, addend: 0x0, symName: __ZN5tokio7runtime4task3raw7dealloc17h538e3997ac22a87bE, symObjAddr: 0x2014, symBinAddr: 0x650F4, symSize: 0x4 }
  - { offset: 0x27EF43, size: 0x8, addend: 0x0, symName: __ZN5tokio7runtime4task3raw7dealloc17h659d2197a8d5dfd1E, symObjAddr: 0x2018, symBinAddr: 0x650F8, symSize: 0x4 }
  - { offset: 0x27EF6C, size: 0x8, addend: 0x0, symName: __ZN5tokio7runtime4task3raw7dealloc17h659d2197a8d5dfd1E, symObjAddr: 0x2018, symBinAddr: 0x650F8, symSize: 0x4 }
  - { offset: 0x27EF9D, size: 0x8, addend: 0x0, symName: __ZN5tokio7runtime4task3raw7dealloc17h65eb8eb2654bf205E, symObjAddr: 0x201C, symBinAddr: 0x650FC, symSize: 0x4 }
  - { offset: 0x27EFC6, size: 0x8, addend: 0x0, symName: __ZN5tokio7runtime4task3raw7dealloc17h65eb8eb2654bf205E, symObjAddr: 0x201C, symBinAddr: 0x650FC, symSize: 0x4 }
  - { offset: 0x27EFF7, size: 0x8, addend: 0x0, symName: __ZN5tokio7runtime4task3raw7dealloc17h6b5787329b380ee5E, symObjAddr: 0x2020, symBinAddr: 0x65100, symSize: 0x4 }
  - { offset: 0x27F020, size: 0x8, addend: 0x0, symName: __ZN5tokio7runtime4task3raw7dealloc17h6b5787329b380ee5E, symObjAddr: 0x2020, symBinAddr: 0x65100, symSize: 0x4 }
  - { offset: 0x27F051, size: 0x8, addend: 0x0, symName: __ZN5tokio7runtime4task3raw7dealloc17h7374c704ae9f663dE, symObjAddr: 0x2024, symBinAddr: 0x65104, symSize: 0x4 }
  - { offset: 0x27F07A, size: 0x8, addend: 0x0, symName: __ZN5tokio7runtime4task3raw7dealloc17h7374c704ae9f663dE, symObjAddr: 0x2024, symBinAddr: 0x65104, symSize: 0x4 }
  - { offset: 0x27F0AB, size: 0x8, addend: 0x0, symName: __ZN5tokio7runtime4task3raw7dealloc17h7511e947bb95de94E, symObjAddr: 0x2028, symBinAddr: 0x65108, symSize: 0x4 }
  - { offset: 0x27F0D4, size: 0x8, addend: 0x0, symName: __ZN5tokio7runtime4task3raw7dealloc17h7511e947bb95de94E, symObjAddr: 0x2028, symBinAddr: 0x65108, symSize: 0x4 }
  - { offset: 0x27F105, size: 0x8, addend: 0x0, symName: __ZN5tokio7runtime4task3raw7dealloc17h98b5e1b93af806e7E, symObjAddr: 0x202C, symBinAddr: 0x6510C, symSize: 0x4 }
  - { offset: 0x27F12E, size: 0x8, addend: 0x0, symName: __ZN5tokio7runtime4task3raw7dealloc17h98b5e1b93af806e7E, symObjAddr: 0x202C, symBinAddr: 0x6510C, symSize: 0x4 }
  - { offset: 0x27F15F, size: 0x8, addend: 0x0, symName: __ZN5tokio7runtime4task3raw7dealloc17h9a5b7e65e344616fE, symObjAddr: 0x2030, symBinAddr: 0x65110, symSize: 0x4 }
  - { offset: 0x27F188, size: 0x8, addend: 0x0, symName: __ZN5tokio7runtime4task3raw7dealloc17h9a5b7e65e344616fE, symObjAddr: 0x2030, symBinAddr: 0x65110, symSize: 0x4 }
  - { offset: 0x27F1B9, size: 0x8, addend: 0x0, symName: __ZN5tokio7runtime4task3raw7dealloc17h9c2801f41a4f495aE, symObjAddr: 0x2034, symBinAddr: 0x65114, symSize: 0x4 }
  - { offset: 0x27F1E2, size: 0x8, addend: 0x0, symName: __ZN5tokio7runtime4task3raw7dealloc17h9c2801f41a4f495aE, symObjAddr: 0x2034, symBinAddr: 0x65114, symSize: 0x4 }
  - { offset: 0x27F213, size: 0x8, addend: 0x0, symName: __ZN5tokio7runtime4task3raw7dealloc17h9f901bd1dfcba199E, symObjAddr: 0x2038, symBinAddr: 0x65118, symSize: 0x4 }
  - { offset: 0x27F23C, size: 0x8, addend: 0x0, symName: __ZN5tokio7runtime4task3raw7dealloc17h9f901bd1dfcba199E, symObjAddr: 0x2038, symBinAddr: 0x65118, symSize: 0x4 }
  - { offset: 0x27F26D, size: 0x8, addend: 0x0, symName: __ZN5tokio7runtime4task3raw7dealloc17ha9661f8087df5fa0E, symObjAddr: 0x203C, symBinAddr: 0x6511C, symSize: 0x4 }
  - { offset: 0x27F296, size: 0x8, addend: 0x0, symName: __ZN5tokio7runtime4task3raw7dealloc17ha9661f8087df5fa0E, symObjAddr: 0x203C, symBinAddr: 0x6511C, symSize: 0x4 }
  - { offset: 0x27F2C7, size: 0x8, addend: 0x0, symName: __ZN5tokio7runtime4task3raw7dealloc17hc39d67ca0f46c965E, symObjAddr: 0x2040, symBinAddr: 0x65120, symSize: 0x4 }
  - { offset: 0x27F2F0, size: 0x8, addend: 0x0, symName: __ZN5tokio7runtime4task3raw7dealloc17hc39d67ca0f46c965E, symObjAddr: 0x2040, symBinAddr: 0x65120, symSize: 0x4 }
  - { offset: 0x27F321, size: 0x8, addend: 0x0, symName: __ZN5tokio7runtime4task3raw7dealloc17hc433aa29d4c212a4E, symObjAddr: 0x2044, symBinAddr: 0x65124, symSize: 0x4 }
  - { offset: 0x27F34A, size: 0x8, addend: 0x0, symName: __ZN5tokio7runtime4task3raw7dealloc17hc433aa29d4c212a4E, symObjAddr: 0x2044, symBinAddr: 0x65124, symSize: 0x4 }
  - { offset: 0x27F37B, size: 0x8, addend: 0x0, symName: __ZN5tokio7runtime4task3raw7dealloc17hcd7db4c2626f0bdbE, symObjAddr: 0x2048, symBinAddr: 0x65128, symSize: 0x4 }
  - { offset: 0x27F3A4, size: 0x8, addend: 0x0, symName: __ZN5tokio7runtime4task3raw7dealloc17hcd7db4c2626f0bdbE, symObjAddr: 0x2048, symBinAddr: 0x65128, symSize: 0x4 }
  - { offset: 0x27F3D5, size: 0x8, addend: 0x0, symName: __ZN5tokio7runtime4task3raw7dealloc17hd43cc1112e03e29bE, symObjAddr: 0x204C, symBinAddr: 0x6512C, symSize: 0x4 }
  - { offset: 0x27F3FE, size: 0x8, addend: 0x0, symName: __ZN5tokio7runtime4task3raw7dealloc17hd43cc1112e03e29bE, symObjAddr: 0x204C, symBinAddr: 0x6512C, symSize: 0x4 }
  - { offset: 0x27F42F, size: 0x8, addend: 0x0, symName: __ZN5tokio7runtime4task3raw7dealloc17hdbb93ca2bc6e2738E, symObjAddr: 0x2050, symBinAddr: 0x65130, symSize: 0x4 }
  - { offset: 0x27F458, size: 0x8, addend: 0x0, symName: __ZN5tokio7runtime4task3raw7dealloc17hdbb93ca2bc6e2738E, symObjAddr: 0x2050, symBinAddr: 0x65130, symSize: 0x4 }
  - { offset: 0x27F489, size: 0x8, addend: 0x0, symName: __ZN5tokio7runtime4task3raw7dealloc17hdf7df392ca469386E, symObjAddr: 0x2054, symBinAddr: 0x65134, symSize: 0x4 }
  - { offset: 0x27F4B2, size: 0x8, addend: 0x0, symName: __ZN5tokio7runtime4task3raw7dealloc17hdf7df392ca469386E, symObjAddr: 0x2054, symBinAddr: 0x65134, symSize: 0x4 }
  - { offset: 0x27F4E3, size: 0x8, addend: 0x0, symName: __ZN5tokio7runtime4task3raw7dealloc17hedb38613f5efb755E, symObjAddr: 0x2058, symBinAddr: 0x65138, symSize: 0x4 }
  - { offset: 0x27F50C, size: 0x8, addend: 0x0, symName: __ZN5tokio7runtime4task3raw7dealloc17hedb38613f5efb755E, symObjAddr: 0x2058, symBinAddr: 0x65138, symSize: 0x4 }
  - { offset: 0x27F53D, size: 0x8, addend: 0x0, symName: __ZN5tokio7runtime4task3raw7dealloc17hef62250cc21ad0f4E, symObjAddr: 0x205C, symBinAddr: 0x6513C, symSize: 0x4 }
  - { offset: 0x27F566, size: 0x8, addend: 0x0, symName: __ZN5tokio7runtime4task3raw7dealloc17hef62250cc21ad0f4E, symObjAddr: 0x205C, symBinAddr: 0x6513C, symSize: 0x4 }
  - { offset: 0x27F597, size: 0x8, addend: 0x0, symName: __ZN5tokio7runtime4task3raw8shutdown17h08aca0066370ce6dE, symObjAddr: 0x2060, symBinAddr: 0x65140, symSize: 0x4 }
  - { offset: 0x27F5C0, size: 0x8, addend: 0x0, symName: __ZN5tokio7runtime4task3raw8shutdown17h08aca0066370ce6dE, symObjAddr: 0x2060, symBinAddr: 0x65140, symSize: 0x4 }
  - { offset: 0x27F5F1, size: 0x8, addend: 0x0, symName: __ZN5tokio7runtime4task3raw8shutdown17h0a0a1862f9a0c858E, symObjAddr: 0x2064, symBinAddr: 0x65144, symSize: 0x4 }
  - { offset: 0x27F61A, size: 0x8, addend: 0x0, symName: __ZN5tokio7runtime4task3raw8shutdown17h0a0a1862f9a0c858E, symObjAddr: 0x2064, symBinAddr: 0x65144, symSize: 0x4 }
  - { offset: 0x27F64B, size: 0x8, addend: 0x0, symName: __ZN5tokio7runtime4task3raw8shutdown17h0a5479be37e9cf41E, symObjAddr: 0x2068, symBinAddr: 0x65148, symSize: 0x4 }
  - { offset: 0x27F674, size: 0x8, addend: 0x0, symName: __ZN5tokio7runtime4task3raw8shutdown17h0a5479be37e9cf41E, symObjAddr: 0x2068, symBinAddr: 0x65148, symSize: 0x4 }
  - { offset: 0x27F6A5, size: 0x8, addend: 0x0, symName: __ZN5tokio7runtime4task3raw8shutdown17h1daadbcc1a848d6dE, symObjAddr: 0x206C, symBinAddr: 0x6514C, symSize: 0x4 }
  - { offset: 0x27F6CE, size: 0x8, addend: 0x0, symName: __ZN5tokio7runtime4task3raw8shutdown17h1daadbcc1a848d6dE, symObjAddr: 0x206C, symBinAddr: 0x6514C, symSize: 0x4 }
  - { offset: 0x27F6FF, size: 0x8, addend: 0x0, symName: __ZN5tokio7runtime4task3raw8shutdown17h209e3cf3c7451b8aE, symObjAddr: 0x2070, symBinAddr: 0x65150, symSize: 0x4 }
  - { offset: 0x27F728, size: 0x8, addend: 0x0, symName: __ZN5tokio7runtime4task3raw8shutdown17h209e3cf3c7451b8aE, symObjAddr: 0x2070, symBinAddr: 0x65150, symSize: 0x4 }
  - { offset: 0x27F759, size: 0x8, addend: 0x0, symName: __ZN5tokio7runtime4task3raw8shutdown17h317a655bdb42dc7bE, symObjAddr: 0x2074, symBinAddr: 0x65154, symSize: 0x4 }
  - { offset: 0x27F782, size: 0x8, addend: 0x0, symName: __ZN5tokio7runtime4task3raw8shutdown17h317a655bdb42dc7bE, symObjAddr: 0x2074, symBinAddr: 0x65154, symSize: 0x4 }
  - { offset: 0x27F7B3, size: 0x8, addend: 0x0, symName: __ZN5tokio7runtime4task3raw8shutdown17h3d3b3e70b87559b5E, symObjAddr: 0x2078, symBinAddr: 0x65158, symSize: 0x4 }
  - { offset: 0x27F7DC, size: 0x8, addend: 0x0, symName: __ZN5tokio7runtime4task3raw8shutdown17h3d3b3e70b87559b5E, symObjAddr: 0x2078, symBinAddr: 0x65158, symSize: 0x4 }
  - { offset: 0x27F80D, size: 0x8, addend: 0x0, symName: __ZN5tokio7runtime4task3raw8shutdown17h3d9c8eab0f856b63E, symObjAddr: 0x207C, symBinAddr: 0x6515C, symSize: 0x4 }
  - { offset: 0x27F836, size: 0x8, addend: 0x0, symName: __ZN5tokio7runtime4task3raw8shutdown17h3d9c8eab0f856b63E, symObjAddr: 0x207C, symBinAddr: 0x6515C, symSize: 0x4 }
  - { offset: 0x27F867, size: 0x8, addend: 0x0, symName: __ZN5tokio7runtime4task3raw8shutdown17h3ec90f42ebc4bdb2E, symObjAddr: 0x2080, symBinAddr: 0x65160, symSize: 0x4 }
  - { offset: 0x27F890, size: 0x8, addend: 0x0, symName: __ZN5tokio7runtime4task3raw8shutdown17h3ec90f42ebc4bdb2E, symObjAddr: 0x2080, symBinAddr: 0x65160, symSize: 0x4 }
  - { offset: 0x27F8C1, size: 0x8, addend: 0x0, symName: __ZN5tokio7runtime4task3raw8shutdown17h47f42cd476f2e23cE, symObjAddr: 0x2084, symBinAddr: 0x65164, symSize: 0x4 }
  - { offset: 0x27F8EA, size: 0x8, addend: 0x0, symName: __ZN5tokio7runtime4task3raw8shutdown17h47f42cd476f2e23cE, symObjAddr: 0x2084, symBinAddr: 0x65164, symSize: 0x4 }
  - { offset: 0x27F91B, size: 0x8, addend: 0x0, symName: __ZN5tokio7runtime4task3raw8shutdown17h4ebfb6ad72c41a36E, symObjAddr: 0x2088, symBinAddr: 0x65168, symSize: 0x4 }
  - { offset: 0x27F944, size: 0x8, addend: 0x0, symName: __ZN5tokio7runtime4task3raw8shutdown17h4ebfb6ad72c41a36E, symObjAddr: 0x2088, symBinAddr: 0x65168, symSize: 0x4 }
  - { offset: 0x27F975, size: 0x8, addend: 0x0, symName: __ZN5tokio7runtime4task3raw8shutdown17h4f9a11b839eb0b37E, symObjAddr: 0x208C, symBinAddr: 0x6516C, symSize: 0x4 }
  - { offset: 0x27F99E, size: 0x8, addend: 0x0, symName: __ZN5tokio7runtime4task3raw8shutdown17h4f9a11b839eb0b37E, symObjAddr: 0x208C, symBinAddr: 0x6516C, symSize: 0x4 }
  - { offset: 0x27F9CF, size: 0x8, addend: 0x0, symName: __ZN5tokio7runtime4task3raw8shutdown17h607022914c2d6a9aE, symObjAddr: 0x2090, symBinAddr: 0x65170, symSize: 0x4 }
  - { offset: 0x27F9F8, size: 0x8, addend: 0x0, symName: __ZN5tokio7runtime4task3raw8shutdown17h607022914c2d6a9aE, symObjAddr: 0x2090, symBinAddr: 0x65170, symSize: 0x4 }
  - { offset: 0x27FA29, size: 0x8, addend: 0x0, symName: __ZN5tokio7runtime4task3raw8shutdown17h6c6d0a134ef05894E, symObjAddr: 0x2094, symBinAddr: 0x65174, symSize: 0x4 }
  - { offset: 0x27FA52, size: 0x8, addend: 0x0, symName: __ZN5tokio7runtime4task3raw8shutdown17h6c6d0a134ef05894E, symObjAddr: 0x2094, symBinAddr: 0x65174, symSize: 0x4 }
  - { offset: 0x27FA83, size: 0x8, addend: 0x0, symName: __ZN5tokio7runtime4task3raw8shutdown17h7027b174f00eb338E, symObjAddr: 0x2098, symBinAddr: 0x65178, symSize: 0x4 }
  - { offset: 0x27FAAC, size: 0x8, addend: 0x0, symName: __ZN5tokio7runtime4task3raw8shutdown17h7027b174f00eb338E, symObjAddr: 0x2098, symBinAddr: 0x65178, symSize: 0x4 }
  - { offset: 0x27FADD, size: 0x8, addend: 0x0, symName: __ZN5tokio7runtime4task3raw8shutdown17h7dc09fe405d278aaE, symObjAddr: 0x209C, symBinAddr: 0x6517C, symSize: 0x4 }
  - { offset: 0x27FB06, size: 0x8, addend: 0x0, symName: __ZN5tokio7runtime4task3raw8shutdown17h7dc09fe405d278aaE, symObjAddr: 0x209C, symBinAddr: 0x6517C, symSize: 0x4 }
  - { offset: 0x27FB37, size: 0x8, addend: 0x0, symName: __ZN5tokio7runtime4task3raw8shutdown17h7fc10b5ad1b733beE, symObjAddr: 0x20A0, symBinAddr: 0x65180, symSize: 0x4 }
  - { offset: 0x27FB60, size: 0x8, addend: 0x0, symName: __ZN5tokio7runtime4task3raw8shutdown17h7fc10b5ad1b733beE, symObjAddr: 0x20A0, symBinAddr: 0x65180, symSize: 0x4 }
  - { offset: 0x27FB91, size: 0x8, addend: 0x0, symName: __ZN5tokio7runtime4task3raw8shutdown17h928ca77067b8ef42E, symObjAddr: 0x20A4, symBinAddr: 0x65184, symSize: 0x4 }
  - { offset: 0x27FBBA, size: 0x8, addend: 0x0, symName: __ZN5tokio7runtime4task3raw8shutdown17h928ca77067b8ef42E, symObjAddr: 0x20A4, symBinAddr: 0x65184, symSize: 0x4 }
  - { offset: 0x27FBEB, size: 0x8, addend: 0x0, symName: __ZN5tokio7runtime4task3raw8shutdown17h9471d65520a01f0cE, symObjAddr: 0x20A8, symBinAddr: 0x65188, symSize: 0x4 }
  - { offset: 0x27FC14, size: 0x8, addend: 0x0, symName: __ZN5tokio7runtime4task3raw8shutdown17h9471d65520a01f0cE, symObjAddr: 0x20A8, symBinAddr: 0x65188, symSize: 0x4 }
  - { offset: 0x27FC45, size: 0x8, addend: 0x0, symName: __ZN5tokio7runtime4task3raw8shutdown17ha7930d4c2d9d1ceeE, symObjAddr: 0x20AC, symBinAddr: 0x6518C, symSize: 0x4 }
  - { offset: 0x27FC6E, size: 0x8, addend: 0x0, symName: __ZN5tokio7runtime4task3raw8shutdown17ha7930d4c2d9d1ceeE, symObjAddr: 0x20AC, symBinAddr: 0x6518C, symSize: 0x4 }
  - { offset: 0x27FC9F, size: 0x8, addend: 0x0, symName: __ZN5tokio7runtime4task3raw8shutdown17had4a9478e61b8a19E, symObjAddr: 0x20B0, symBinAddr: 0x65190, symSize: 0x4 }
  - { offset: 0x27FCC8, size: 0x8, addend: 0x0, symName: __ZN5tokio7runtime4task3raw8shutdown17had4a9478e61b8a19E, symObjAddr: 0x20B0, symBinAddr: 0x65190, symSize: 0x4 }
  - { offset: 0x27FCF9, size: 0x8, addend: 0x0, symName: __ZN5tokio7runtime4task3raw8shutdown17hade8d983fe5dd823E, symObjAddr: 0x20B4, symBinAddr: 0x65194, symSize: 0x4 }
  - { offset: 0x27FD22, size: 0x8, addend: 0x0, symName: __ZN5tokio7runtime4task3raw8shutdown17hade8d983fe5dd823E, symObjAddr: 0x20B4, symBinAddr: 0x65194, symSize: 0x4 }
  - { offset: 0x27FD53, size: 0x8, addend: 0x0, symName: __ZN5tokio7runtime4task3raw8shutdown17hb024e2b70a28eba6E, symObjAddr: 0x20B8, symBinAddr: 0x65198, symSize: 0x4 }
  - { offset: 0x27FD7C, size: 0x8, addend: 0x0, symName: __ZN5tokio7runtime4task3raw8shutdown17hb024e2b70a28eba6E, symObjAddr: 0x20B8, symBinAddr: 0x65198, symSize: 0x4 }
  - { offset: 0x27FDAD, size: 0x8, addend: 0x0, symName: __ZN5tokio7runtime4task3raw8shutdown17hb1a8d59895ddfac3E, symObjAddr: 0x20BC, symBinAddr: 0x6519C, symSize: 0x4 }
  - { offset: 0x27FDD6, size: 0x8, addend: 0x0, symName: __ZN5tokio7runtime4task3raw8shutdown17hb1a8d59895ddfac3E, symObjAddr: 0x20BC, symBinAddr: 0x6519C, symSize: 0x4 }
  - { offset: 0x27FE07, size: 0x8, addend: 0x0, symName: __ZN5tokio7runtime4task3raw8shutdown17hbc035d26c34fc712E, symObjAddr: 0x20C0, symBinAddr: 0x651A0, symSize: 0x4 }
  - { offset: 0x27FE30, size: 0x8, addend: 0x0, symName: __ZN5tokio7runtime4task3raw8shutdown17hbc035d26c34fc712E, symObjAddr: 0x20C0, symBinAddr: 0x651A0, symSize: 0x4 }
  - { offset: 0x27FE61, size: 0x8, addend: 0x0, symName: __ZN5tokio7runtime4task3raw8shutdown17hc6646611186c24ffE, symObjAddr: 0x20C4, symBinAddr: 0x651A4, symSize: 0x4 }
  - { offset: 0x27FE8A, size: 0x8, addend: 0x0, symName: __ZN5tokio7runtime4task3raw8shutdown17hc6646611186c24ffE, symObjAddr: 0x20C4, symBinAddr: 0x651A4, symSize: 0x4 }
  - { offset: 0x27FEBB, size: 0x8, addend: 0x0, symName: __ZN5tokio7runtime4task3raw8shutdown17he0f1f15201b9e5bfE, symObjAddr: 0x20C8, symBinAddr: 0x651A8, symSize: 0x4 }
  - { offset: 0x27FEE4, size: 0x8, addend: 0x0, symName: __ZN5tokio7runtime4task3raw8shutdown17he0f1f15201b9e5bfE, symObjAddr: 0x20C8, symBinAddr: 0x651A8, symSize: 0x4 }
  - { offset: 0x27FF15, size: 0x8, addend: 0x0, symName: __ZN5tokio7runtime4task3raw8shutdown17he33e59a1a8ec8ebfE, symObjAddr: 0x20CC, symBinAddr: 0x651AC, symSize: 0x4 }
  - { offset: 0x27FF3E, size: 0x8, addend: 0x0, symName: __ZN5tokio7runtime4task3raw8shutdown17he33e59a1a8ec8ebfE, symObjAddr: 0x20CC, symBinAddr: 0x651AC, symSize: 0x4 }
  - { offset: 0x29784D, size: 0x8, addend: 0x0, symName: '__ZN76_$LT$serde_json..raw..BoxedFromString$u20$as$u20$serde_core..de..Visitor$GT$9visit_str17h6fd0568867b35f6eE', symObjAddr: 0x0, symBinAddr: 0x651B0, symSize: 0x134 }
  - { offset: 0x299A9E, size: 0x8, addend: 0x0, symName: '__ZN76_$LT$serde_json..raw..BoxedFromString$u20$as$u20$serde_core..de..Visitor$GT$9visit_str17h6fd0568867b35f6eE', symObjAddr: 0x0, symBinAddr: 0x651B0, symSize: 0x134 }
  - { offset: 0x29A6C5, size: 0x8, addend: 0x0, symName: '__ZN4core3ptr315drop_in_place$LT$hashbrown..scopeguard..ScopeGuard$LT$$LP$usize$C$$RF$mut$u20$hashbrown..raw..RawTable$LT$$LP$alloc..string..String$C$serde_json..value..Value$RP$$GT$$RP$$C$hashbrown..raw..RawTable$LT$$LP$alloc..string..String$C$serde_json..value..Value$RP$$GT$..clone_from_impl..$u7b$$u7b$closure$u7d$$u7d$$GT$$GT$17h80f9b24f7cae2c74E', symObjAddr: 0x0, symBinAddr: 0x652E4, symSize: 0xC4 }
  - { offset: 0x29AB71, size: 0x8, addend: 0x0, symName: '__ZN4core3ptr315drop_in_place$LT$hashbrown..scopeguard..ScopeGuard$LT$$LP$usize$C$$RF$mut$u20$hashbrown..raw..RawTable$LT$$LP$alloc..string..String$C$serde_json..value..Value$RP$$GT$$RP$$C$hashbrown..raw..RawTable$LT$$LP$alloc..string..String$C$serde_json..value..Value$RP$$GT$..clone_from_impl..$u7b$$u7b$closure$u7d$$u7d$$GT$$GT$17h80f9b24f7cae2c74E', symObjAddr: 0x0, symBinAddr: 0x652E4, symSize: 0xC4 }
  - { offset: 0x29ACE2, size: 0x8, addend: 0x0, symName: '__ZN4core3ptr45drop_in_place$LT$serde_json..value..Value$GT$17hc94cdcf2b4baa5acE', symObjAddr: 0xC4, symBinAddr: 0x653A8, symSize: 0x2C }
  - { offset: 0x29B9AD, size: 0x8, addend: 0x0, symName: '__ZN76_$LT$hashbrown..raw..RawTable$LT$T$C$A$GT$$u20$as$u20$core..clone..Clone$GT$5clone17h2a2802d48220bec6E', symObjAddr: 0xF0, symBinAddr: 0x653D4, symSize: 0x274 }
  - { offset: 0x29CAB0, size: 0x8, addend: 0x0, symName: __ZN10serde_core2de9SeqAccess12next_element17h72ba691f2c53103aE, symObjAddr: 0x0, symBinAddr: 0x65648, symSize: 0x8C }
  - { offset: 0x29CD5A, size: 0x8, addend: 0x0, symName: '__ZN86_$LT$core..marker..PhantomData$LT$T$GT$$u20$as$u20$serde_core..de..DeserializeSeed$GT$11deserialize17h1119be18e16f31bcE', symObjAddr: 0x1198, symBinAddr: 0x65E20, symSize: 0x21C }
  - { offset: 0x29D028, size: 0x8, addend: 0x0, symName: '__ZN86_$LT$core..marker..PhantomData$LT$T$GT$$u20$as$u20$serde_core..de..DeserializeSeed$GT$11deserialize17h353cfc81946585aaE', symObjAddr: 0x13B4, symBinAddr: 0x6603C, symSize: 0x154 }
  - { offset: 0x29D1B2, size: 0x8, addend: 0x0, symName: '__ZN86_$LT$core..marker..PhantomData$LT$T$GT$$u20$as$u20$serde_core..de..DeserializeSeed$GT$11deserialize17h6376c5ec375fe401E', symObjAddr: 0x1508, symBinAddr: 0x66190, symSize: 0x154 }
  - { offset: 0x29D33C, size: 0x8, addend: 0x0, symName: '__ZN86_$LT$core..marker..PhantomData$LT$T$GT$$u20$as$u20$serde_core..de..DeserializeSeed$GT$11deserialize17hb3f318b2d3b36fbcE', symObjAddr: 0x165C, symBinAddr: 0x662E4, symSize: 0x274 }
  - { offset: 0x29D6CF, size: 0x8, addend: 0x0, symName: '__ZN86_$LT$core..marker..PhantomData$LT$T$GT$$u20$as$u20$serde_core..de..DeserializeSeed$GT$11deserialize17hba57559ca6e11d69E', symObjAddr: 0x18D0, symBinAddr: 0x66558, symSize: 0x154 }
  - { offset: 0x29DE08, size: 0x8, addend: 0x0, symName: __ZN10serde_core2de9SeqAccess12next_element17h72ba691f2c53103aE, symObjAddr: 0x0, symBinAddr: 0x65648, symSize: 0x8C }
  - { offset: 0x29DE5F, size: 0x8, addend: 0x0, symName: __ZN10serde_core2de9SeqAccess12next_element17h97b09fd832bc0e35E, symObjAddr: 0x8C, symBinAddr: 0x656D4, symSize: 0xA0 }
  - { offset: 0x29DEDA, size: 0x8, addend: 0x0, symName: __ZN10serde_core2de9SeqAccess12next_element17h9c73d1cdb2b3850cE, symObjAddr: 0x12C, symBinAddr: 0x65774, symSize: 0x8C }
  - { offset: 0x29DF72, size: 0x8, addend: 0x0, symName: __ZN10serde_core2de9SeqAccess12next_element17he292129fa4c21e98E, symObjAddr: 0x1B8, symBinAddr: 0x65800, symSize: 0x8C }
  - { offset: 0x29E00A, size: 0x8, addend: 0x0, symName: __ZN10serde_core2de9SeqAccess12next_element17hf0c2fec28eef2bb5E, symObjAddr: 0x244, symBinAddr: 0x6588C, symSize: 0x8C }
  - { offset: 0x2A2D8A, size: 0x8, addend: 0x0, symName: '__ZN4core3ptr107drop_in_place$LT$core..result..Result$LT$skreaver_a2a..types..task..Task$C$serde_json..error..Error$GT$$GT$17h43abd8929b43c633E', symObjAddr: 0x708, symBinAddr: 0x65C18, symSize: 0x1C }
  - { offset: 0x2A2DBA, size: 0x8, addend: 0x0, symName: '__ZN4core3ptr113drop_in_place$LT$core..result..Result$LT$skreaver_a2a..types..message..Message$C$serde_json..error..Error$GT$$GT$17h1ab8fbe678234e33E', symObjAddr: 0x724, symBinAddr: 0x65C34, symSize: 0x1C }
  - { offset: 0x2A2DEA, size: 0x8, addend: 0x0, symName: '__ZN4core3ptr115drop_in_place$LT$core..result..Result$LT$skreaver_a2a..types..artifact..Artifact$C$serde_json..error..Error$GT$$GT$17hc7e56a4e82e7350dE', symObjAddr: 0x740, symBinAddr: 0x65C50, symSize: 0x1C }
  - { offset: 0x2A2E1A, size: 0x8, addend: 0x0, symName: '__ZN4core3ptr118drop_in_place$LT$core..result..Result$LT$skreaver_a2a..types..agent_card..AgentCard$C$serde_json..error..Error$GT$$GT$17h071e0e4237019486E', symObjAddr: 0x75C, symBinAddr: 0x65C6C, symSize: 0x1C }
  - { offset: 0x2A2E4A, size: 0x8, addend: 0x0, symName: '__ZN4core3ptr119drop_in_place$LT$core..result..Result$LT$skreaver_a2a..types..agent_card..AgentSkill$C$serde_json..error..Error$GT$$GT$17he27d5d0f1743145eE', symObjAddr: 0x778, symBinAddr: 0x65C88, symSize: 0x1C }
  - { offset: 0x2A2E7A, size: 0x8, addend: 0x0, symName: '__ZN4core3ptr122drop_in_place$LT$core..result..Result$LT$skreaver_a2a..types..agent_card..AgentProvider$C$serde_json..error..Error$GT$$GT$17hf075f0977bc50f04E', symObjAddr: 0x794, symBinAddr: 0x65CA4, symSize: 0x1C }
  - { offset: 0x2A2EAA, size: 0x8, addend: 0x0, symName: '__ZN4core3ptr123drop_in_place$LT$core..result..Result$LT$skreaver_a2a..types..agent_card..AgentExtension$C$serde_json..error..Error$GT$$GT$17h80ac7db07d4cd578E', symObjAddr: 0x7B0, symBinAddr: 0x65CC0, symSize: 0x1C }
  - { offset: 0x2A2EDA, size: 0x8, addend: 0x0, symName: '__ZN4core3ptr125drop_in_place$LT$core..result..Result$LT$skreaver_a2a..types..request..SendMessageResponse$C$serde_json..error..Error$GT$$GT$17h3c7e722a20638716E', symObjAddr: 0x7CC, symBinAddr: 0x65CDC, symSize: 0x1C }
  - { offset: 0x2A2F27, size: 0x8, addend: 0x0, symName: '__ZN4core3ptr127drop_in_place$LT$core..result..Result$LT$skreaver_a2a..types..agent_card..AgentCardSignature$C$serde_json..error..Error$GT$$GT$17hfff98f129649a867E', symObjAddr: 0x7E8, symBinAddr: 0x65CF8, symSize: 0x1C }
  - { offset: 0x2A2F57, size: 0x8, addend: 0x0, symName: '__ZN4core3ptr130drop_in_place$LT$core..result..Result$LT$alloc..vec..Vec$LT$skreaver_a2a..types..part..Part$GT$$C$serde_json..error..Error$GT$$GT$17h7f4d242b43ce5891E', symObjAddr: 0x804, symBinAddr: 0x65D14, symSize: 0x1C }
  - { offset: 0x2A2F87, size: 0x8, addend: 0x0, symName: '__ZN4core3ptr136drop_in_place$LT$core..result..Result$LT$alloc..vec..Vec$LT$skreaver_a2a..types..message..Message$GT$$C$serde_json..error..Error$GT$$GT$17he1eef7622c7afc60E', symObjAddr: 0x820, symBinAddr: 0x65D30, symSize: 0x1C }
  - { offset: 0x2A2FB7, size: 0x8, addend: 0x0, symName: '__ZN4core3ptr138drop_in_place$LT$core..result..Result$LT$alloc..vec..Vec$LT$skreaver_a2a..types..artifact..Artifact$GT$$C$serde_json..error..Error$GT$$GT$17h574a4f6ed987a697E', symObjAddr: 0x83C, symBinAddr: 0x65D4C, symSize: 0x1C }
  - { offset: 0x2A2FE7, size: 0x8, addend: 0x0, symName: '__ZN4core3ptr142drop_in_place$LT$core..result..Result$LT$alloc..vec..Vec$LT$skreaver_a2a..types..agent_card..AgentSkill$GT$$C$serde_json..error..Error$GT$$GT$17h2ae6ce1cefaf7c4aE', symObjAddr: 0x858, symBinAddr: 0x65D68, symSize: 0x1C }
  - { offset: 0x2A3017, size: 0x8, addend: 0x0, symName: '__ZN4core3ptr146drop_in_place$LT$core..result..Result$LT$alloc..vec..Vec$LT$skreaver_a2a..types..agent_card..AgentExtension$GT$$C$serde_json..error..Error$GT$$GT$17h3baf8073a41ae4efE', symObjAddr: 0x874, symBinAddr: 0x65D84, symSize: 0x1C }
  - { offset: 0x2A3047, size: 0x8, addend: 0x0, symName: '__ZN4core3ptr146drop_in_place$LT$core..result..Result$LT$alloc..vec..Vec$LT$skreaver_a2a..types..agent_card..AgentInterface$GT$$C$serde_json..error..Error$GT$$GT$17he9efe4b893aebf1eE', symObjAddr: 0x890, symBinAddr: 0x65DA0, symSize: 0x1C }
  - { offset: 0x2A3077, size: 0x8, addend: 0x0, symName: '__ZN4core3ptr146drop_in_place$LT$core..result..Result$LT$alloc..vec..Vec$LT$skreaver_a2a..types..agent_card..SecurityScheme$GT$$C$serde_json..error..Error$GT$$GT$17h909c3ade1c10be0eE', symObjAddr: 0x8AC, symBinAddr: 0x65DBC, symSize: 0x1C }
  - { offset: 0x2A30C6, size: 0x8, addend: 0x0, symName: '__ZN4core3ptr73drop_in_place$LT$core..option..Option$LT$serde_json..value..Value$GT$$GT$17h306169b5bf800653E', symObjAddr: 0x8C8, symBinAddr: 0x65DD8, symSize: 0x48 }
  - { offset: 0x2A6B85, size: 0x8, addend: 0x0, symName: __ZN4core3ops8function6FnOnce9call_once17h8621167faccf7d06E, symObjAddr: 0x6D4, symBinAddr: 0x65BE4, symSize: 0x34 }
  - { offset: 0x2A99BD, size: 0x8, addend: 0x0, symName: __ZN10serde_json2de10from_slice17h83e201b6df13e56eE, symObjAddr: 0x2D0, symBinAddr: 0x65918, symSize: 0x104 }
  - { offset: 0x2A9B0D, size: 0x8, addend: 0x0, symName: __ZN10serde_json2de10from_slice17hc4d5d39bfee9725fE, symObjAddr: 0x3D4, symBinAddr: 0x65A1C, symSize: 0xC4 }
  - { offset: 0x2A9C5D, size: 0x8, addend: 0x0, symName: __ZN10serde_json2de10from_slice17hf91753267fb099cbE, symObjAddr: 0x498, symBinAddr: 0x65AE0, symSize: 0x104 }
  - { offset: 0x2AAD4F, size: 0x8, addend: 0x0, symName: '__ZN98_$LT$$RF$mut$u20$serde_json..de..Deserializer$LT$R$GT$$u20$as$u20$serde_core..de..Deserializer$GT$15deserialize_seq17h019b21d2133cff12E', symObjAddr: 0x1ADC, symBinAddr: 0x666AC, symSize: 0x1E4 }
  - { offset: 0x2AAE23, size: 0x8, addend: 0x0, symName: '__ZN98_$LT$$RF$mut$u20$serde_json..de..Deserializer$LT$R$GT$$u20$as$u20$serde_core..de..Deserializer$GT$15deserialize_seq17h332319e4c3b196d5E', symObjAddr: 0x1CC0, symBinAddr: 0x66890, symSize: 0x1E4 }
  - { offset: 0x2AAEF7, size: 0x8, addend: 0x0, symName: '__ZN98_$LT$$RF$mut$u20$serde_json..de..Deserializer$LT$R$GT$$u20$as$u20$serde_core..de..Deserializer$GT$15deserialize_seq17h50a5a758813754e2E', symObjAddr: 0x1EA4, symBinAddr: 0x66A74, symSize: 0x1E4 }
  - { offset: 0x2AAFCB, size: 0x8, addend: 0x0, symName: '__ZN98_$LT$$RF$mut$u20$serde_json..de..Deserializer$LT$R$GT$$u20$as$u20$serde_core..de..Deserializer$GT$15deserialize_seq17h542baa0cd32149c5E', symObjAddr: 0x2088, symBinAddr: 0x66C58, symSize: 0x1E4 }
  - { offset: 0x2AB09F, size: 0x8, addend: 0x0, symName: '__ZN98_$LT$$RF$mut$u20$serde_json..de..Deserializer$LT$R$GT$$u20$as$u20$serde_core..de..Deserializer$GT$15deserialize_seq17h7b14d83ba6f46583E', symObjAddr: 0x226C, symBinAddr: 0x66E3C, symSize: 0x1E4 }
  - { offset: 0x2AB173, size: 0x8, addend: 0x0, symName: '__ZN98_$LT$$RF$mut$u20$serde_json..de..Deserializer$LT$R$GT$$u20$as$u20$serde_core..de..Deserializer$GT$15deserialize_seq17ha3c467efadce146fE', symObjAddr: 0x2450, symBinAddr: 0x67020, symSize: 0x1E4 }
  - { offset: 0x2AB247, size: 0x8, addend: 0x0, symName: '__ZN98_$LT$$RF$mut$u20$serde_json..de..Deserializer$LT$R$GT$$u20$as$u20$serde_core..de..Deserializer$GT$15deserialize_seq17hf157c4a62341487cE', symObjAddr: 0x2634, symBinAddr: 0x67204, symSize: 0x1E4 }
  - { offset: 0x2AB31A, size: 0x8, addend: 0x0, symName: '__ZN98_$LT$$RF$mut$u20$serde_json..de..Deserializer$LT$R$GT$$u20$as$u20$serde_core..de..Deserializer$GT$15deserialize_str17h4ae9a084f3f6d8e3E', symObjAddr: 0x2818, symBinAddr: 0x673E8, symSize: 0x13C }
  - { offset: 0x2AB472, size: 0x8, addend: 0x0, symName: '__ZN98_$LT$$RF$mut$u20$serde_json..de..Deserializer$LT$R$GT$$u20$as$u20$serde_core..de..Deserializer$GT$16deserialize_bool17h994646b78208858fE', symObjAddr: 0x2954, symBinAddr: 0x67524, symSize: 0x100 }
  - { offset: 0x2AB52A, size: 0x8, addend: 0x0, symName: '__ZN98_$LT$$RF$mut$u20$serde_json..de..Deserializer$LT$R$GT$$u20$as$u20$serde_core..de..Deserializer$GT$18deserialize_struct17h296e28c414844cfdE', symObjAddr: 0x2A54, symBinAddr: 0x67624, symSize: 0x1484 }
  - { offset: 0x2AC60F, size: 0x8, addend: 0x0, symName: '__ZN98_$LT$$RF$mut$u20$serde_json..de..Deserializer$LT$R$GT$$u20$as$u20$serde_core..de..Deserializer$GT$18deserialize_struct17h32a5d08e3a78b6f4E', symObjAddr: 0x3ED8, symBinAddr: 0x68AA8, symSize: 0xB1C }
  - { offset: 0x2AD263, size: 0x8, addend: 0x0, symName: '__ZN98_$LT$$RF$mut$u20$serde_json..de..Deserializer$LT$R$GT$$u20$as$u20$serde_core..de..Deserializer$GT$18deserialize_struct17h594fb0ec0d66d39eE', symObjAddr: 0x49F4, symBinAddr: 0x695C4, symSize: 0x7C8 }
  - { offset: 0x2AD795, size: 0x8, addend: 0x0, symName: '__ZN98_$LT$$RF$mut$u20$serde_json..de..Deserializer$LT$R$GT$$u20$as$u20$serde_core..de..Deserializer$GT$18deserialize_struct17h663e80a241ca50d3E', symObjAddr: 0x51BC, symBinAddr: 0x69D8C, symSize: 0x858 }
  - { offset: 0x2ADFFB, size: 0x8, addend: 0x0, symName: '__ZN98_$LT$$RF$mut$u20$serde_json..de..Deserializer$LT$R$GT$$u20$as$u20$serde_core..de..Deserializer$GT$18deserialize_struct17h8c3e921cda07684fE', symObjAddr: 0x5A14, symBinAddr: 0x6A5E4, symSize: 0x1C2C }
  - { offset: 0x2AF6CF, size: 0x8, addend: 0x0, symName: '__ZN98_$LT$$RF$mut$u20$serde_json..de..Deserializer$LT$R$GT$$u20$as$u20$serde_core..de..Deserializer$GT$18deserialize_struct17h905ef883b6341339E', symObjAddr: 0x7640, symBinAddr: 0x6C210, symSize: 0x136C }
  - { offset: 0x2B06DE, size: 0x8, addend: 0x0, symName: '__ZN98_$LT$$RF$mut$u20$serde_json..de..Deserializer$LT$R$GT$$u20$as$u20$serde_core..de..Deserializer$GT$18deserialize_struct17h9509ddc3a4340608E', symObjAddr: 0x89AC, symBinAddr: 0x6D57C, symSize: 0x10D8 }
  - { offset: 0x2B15D1, size: 0x8, addend: 0x0, symName: '__ZN98_$LT$$RF$mut$u20$serde_json..de..Deserializer$LT$R$GT$$u20$as$u20$serde_core..de..Deserializer$GT$18deserialize_struct17h964542595d19d873E', symObjAddr: 0x9A84, symBinAddr: 0x6E654, symSize: 0x1390 }
  - { offset: 0x2B23CE, size: 0x8, addend: 0x0, symName: '__ZN98_$LT$$RF$mut$u20$serde_json..de..Deserializer$LT$R$GT$$u20$as$u20$serde_core..de..Deserializer$GT$18deserialize_struct17h983ca1e55133914bE', symObjAddr: 0xAE14, symBinAddr: 0x6F9E4, symSize: 0x7A0 }
  - { offset: 0x2B2B09, size: 0x8, addend: 0x0, symName: '__ZN98_$LT$$RF$mut$u20$serde_json..de..Deserializer$LT$R$GT$$u20$as$u20$serde_core..de..Deserializer$GT$18deserialize_struct17ha0e7a647f8347130E', symObjAddr: 0xB5B4, symBinAddr: 0x70184, symSize: 0xAF4 }
  - { offset: 0x2B43DC, size: 0x8, addend: 0x0, symName: _anon.a274e82f980faa8e7a8fe3495b6d4126.80, symObjAddr: 0xD378, symBinAddr: 0x514DA8, symSize: 0x0 }
  - { offset: 0x2B5A65, size: 0x8, addend: 0x0, symName: '__ZN113_$LT$pyo3..pycell..impl_..PyClassObject$LT$T$GT$$u20$as$u20$pyo3..pycell..impl_..PyClassObjectLayout$LT$T$GT$$GT$10tp_dealloc17h036c07962c58eb0cE', symObjAddr: 0x0, symBinAddr: 0x70C78, symSize: 0x54 }
  - { offset: 0x2B76DD, size: 0x8, addend: 0x0, symName: '__ZN113_$LT$pyo3..pycell..impl_..PyClassObject$LT$T$GT$$u20$as$u20$pyo3..pycell..impl_..PyClassObjectLayout$LT$T$GT$$GT$10tp_dealloc17h036c07962c58eb0cE', symObjAddr: 0x0, symBinAddr: 0x70C78, symSize: 0x54 }
  - { offset: 0x2B7783, size: 0x8, addend: 0x0, symName: '__ZN113_$LT$pyo3..pycell..impl_..PyClassObject$LT$T$GT$$u20$as$u20$pyo3..pycell..impl_..PyClassObjectLayout$LT$T$GT$$GT$10tp_dealloc17h398ac1fc8f019505E', symObjAddr: 0x54, symBinAddr: 0x70CCC, symSize: 0x54 }
  - { offset: 0x2B7829, size: 0x8, addend: 0x0, symName: '__ZN113_$LT$pyo3..pycell..impl_..PyClassObject$LT$T$GT$$u20$as$u20$pyo3..pycell..impl_..PyClassObjectLayout$LT$T$GT$$GT$10tp_dealloc17h3fc33579ff1f8805E', symObjAddr: 0xA8, symBinAddr: 0x70D20, symSize: 0x40 }
  - { offset: 0x2B788D, size: 0x8, addend: 0x0, symName: '__ZN113_$LT$pyo3..pycell..impl_..PyClassObject$LT$T$GT$$u20$as$u20$pyo3..pycell..impl_..PyClassObjectLayout$LT$T$GT$$GT$10tp_dealloc17h437026b67fd80f38E', symObjAddr: 0xE8, symBinAddr: 0x70D60, symSize: 0x40 }
  - { offset: 0x2B78F1, size: 0x8, addend: 0x0, symName: '__ZN113_$LT$pyo3..pycell..impl_..PyClassObject$LT$T$GT$$u20$as$u20$pyo3..pycell..impl_..PyClassObjectLayout$LT$T$GT$$GT$10tp_dealloc17h5824f295d9989f2fE', symObjAddr: 0x128, symBinAddr: 0x70DA0, symSize: 0x54 }
  - { offset: 0x2B7981, size: 0x8, addend: 0x0, symName: '__ZN113_$LT$pyo3..pycell..impl_..PyClassObject$LT$T$GT$$u20$as$u20$pyo3..pycell..impl_..PyClassObjectLayout$LT$T$GT$$GT$10tp_dealloc17h5cb78d9228610f6aE', symObjAddr: 0x17C, symBinAddr: 0x70DF4, symSize: 0x40 }
  - { offset: 0x2B79E5, size: 0x8, addend: 0x0, symName: '__ZN113_$LT$pyo3..pycell..impl_..PyClassObject$LT$T$GT$$u20$as$u20$pyo3..pycell..impl_..PyClassObjectLayout$LT$T$GT$$GT$10tp_dealloc17h63b9138ffa09f8f2E', symObjAddr: 0x1BC, symBinAddr: 0x70E34, symSize: 0x54 }
  - { offset: 0x2B7A8B, size: 0x8, addend: 0x0, symName: '__ZN113_$LT$pyo3..pycell..impl_..PyClassObject$LT$T$GT$$u20$as$u20$pyo3..pycell..impl_..PyClassObjectLayout$LT$T$GT$$GT$10tp_dealloc17h6a030a350feb908fE', symObjAddr: 0x210, symBinAddr: 0x70E88, symSize: 0x54 }
  - { offset: 0x2B7B1B, size: 0x8, addend: 0x0, symName: '__ZN113_$LT$pyo3..pycell..impl_..PyClassObject$LT$T$GT$$u20$as$u20$pyo3..pycell..impl_..PyClassObjectLayout$LT$T$GT$$GT$10tp_dealloc17h82c785a430825ff3E', symObjAddr: 0x264, symBinAddr: 0x70EDC, symSize: 0x40 }
  - { offset: 0x2B7B7F, size: 0x8, addend: 0x0, symName: '__ZN113_$LT$pyo3..pycell..impl_..PyClassObject$LT$T$GT$$u20$as$u20$pyo3..pycell..impl_..PyClassObjectLayout$LT$T$GT$$GT$10tp_dealloc17h85a2dfeaec40e255E', symObjAddr: 0x2A4, symBinAddr: 0x70F1C, symSize: 0x54 }
  - { offset: 0x2B7C25, size: 0x8, addend: 0x0, symName: '__ZN113_$LT$pyo3..pycell..impl_..PyClassObject$LT$T$GT$$u20$as$u20$pyo3..pycell..impl_..PyClassObjectLayout$LT$T$GT$$GT$10tp_dealloc17h9ec18128a5519d5fE', symObjAddr: 0x2F8, symBinAddr: 0x70F70, symSize: 0x88 }
  - { offset: 0x2B7D05, size: 0x8, addend: 0x0, symName: '__ZN113_$LT$pyo3..pycell..impl_..PyClassObject$LT$T$GT$$u20$as$u20$pyo3..pycell..impl_..PyClassObjectLayout$LT$T$GT$$GT$10tp_dealloc17hace01e02d6d0c5c2E', symObjAddr: 0x380, symBinAddr: 0x70FF8, symSize: 0x54 }
  - { offset: 0x2B7DAB, size: 0x8, addend: 0x0, symName: '__ZN113_$LT$pyo3..pycell..impl_..PyClassObject$LT$T$GT$$u20$as$u20$pyo3..pycell..impl_..PyClassObjectLayout$LT$T$GT$$GT$10tp_dealloc17hb1639a2834e95b3fE', symObjAddr: 0x3D4, symBinAddr: 0x7104C, symSize: 0x54 }
  - { offset: 0x2B7E51, size: 0x8, addend: 0x0, symName: '__ZN113_$LT$pyo3..pycell..impl_..PyClassObject$LT$T$GT$$u20$as$u20$pyo3..pycell..impl_..PyClassObjectLayout$LT$T$GT$$GT$10tp_dealloc17hbdffbc0c4c65180bE', symObjAddr: 0x428, symBinAddr: 0x710A0, symSize: 0x54 }
  - { offset: 0x2B7EF7, size: 0x8, addend: 0x0, symName: '__ZN113_$LT$pyo3..pycell..impl_..PyClassObject$LT$T$GT$$u20$as$u20$pyo3..pycell..impl_..PyClassObjectLayout$LT$T$GT$$GT$10tp_dealloc17hbee6ee7d8fc32712E', symObjAddr: 0x47C, symBinAddr: 0x710F4, symSize: 0x54 }
  - { offset: 0x2B7F9D, size: 0x8, addend: 0x0, symName: '__ZN113_$LT$pyo3..pycell..impl_..PyClassObject$LT$T$GT$$u20$as$u20$pyo3..pycell..impl_..PyClassObjectLayout$LT$T$GT$$GT$10tp_dealloc17hcd2b3ae67fd0a635E', symObjAddr: 0x4D0, symBinAddr: 0x71148, symSize: 0x40 }
  - { offset: 0x2C3853, size: 0x8, addend: 0x0, symName: '__ZN4core3ptr100drop_in_place$LT$core..result..Result$LT$serde_json..value..Value$C$serde_json..error..Error$GT$$GT$17h7b00b6259f29db2eE', symObjAddr: 0xFD4, symBinAddr: 0x71EF0, symSize: 0x50 }
  - { offset: 0x2C38D6, size: 0x8, addend: 0x0, symName: '__ZN4core3ptr148drop_in_place$LT$core..option..Option$LT$core..result..Result$LT$pyo3..instance..Bound$LT$pyo3..types..any..PyAny$GT$$C$pyo3..err..PyErr$GT$$GT$$GT$17h0f6eb7b1367b0795E', symObjAddr: 0x1024, symBinAddr: 0x71F40, symSize: 0xAC }
  - { offset: 0x2C3A19, size: 0x8, addend: 0x0, symName: '__ZN4core3ptr45drop_in_place$LT$serde_json..value..Value$GT$17hc94cdcf2b4baa5acE', symObjAddr: 0x10D0, symBinAddr: 0x71FEC, symSize: 0x2C }
  - { offset: 0x2C3A36, size: 0x8, addend: 0x0, symName: '__ZN4core3ptr75drop_in_place$LT$pyo3..instance..Bound$LT$pyo3..types..list..PyList$GT$$GT$17h4d4f4af634b468a6E', symObjAddr: 0x10FC, symBinAddr: 0x72018, symSize: 0x5C }
  - { offset: 0x2C62D2, size: 0x8, addend: 0x0, symName: '__ZN10serde_core2de5impls87_$LT$impl$u20$serde_core..de..Deserialize$u20$for$u20$core..option..Option$LT$T$GT$$GT$11deserialize17h1e58ee1e3e85f05bE', symObjAddr: 0xC, symBinAddr: 0x71188, symSize: 0xF8 }
  - { offset: 0x2C63AD, size: 0x8, addend: 0x0, symName: '__ZN10serde_core2de5impls87_$LT$impl$u20$serde_core..de..Deserialize$u20$for$u20$core..option..Option$LT$T$GT$$GT$11deserialize17h4956c85bdf9c736aE', symObjAddr: 0x1A4, symBinAddr: 0x71280, symSize: 0xB0 }
  - { offset: 0x2C6512, size: 0x8, addend: 0x0, symName: '__ZN10serde_core2de5impls87_$LT$impl$u20$serde_core..de..Deserialize$u20$for$u20$core..option..Option$LT$T$GT$$GT$11deserialize17hcbc3a7ac745e7a6fE', symObjAddr: 0x384, symBinAddr: 0x71330, symSize: 0x90 }
  - { offset: 0x2C6611, size: 0x8, addend: 0x0, symName: '__ZN10serde_core2de5impls87_$LT$impl$u20$serde_core..de..Deserialize$u20$for$u20$core..option..Option$LT$T$GT$$GT$11deserialize17he5aca417687174b2E', symObjAddr: 0x420, symBinAddr: 0x713C0, symSize: 0xE8 }
  - { offset: 0x2C66ED, size: 0x8, addend: 0x0, symName: '__ZN10serde_core2de5impls87_$LT$impl$u20$serde_core..de..Deserialize$u20$for$u20$core..option..Option$LT$T$GT$$GT$11deserialize17he845e0789c0f1f80E', symObjAddr: 0x514, symBinAddr: 0x714A8, symSize: 0x11C }
  - { offset: 0x2C6863, size: 0x8, addend: 0x0, symName: '__ZN10serde_core2de5impls87_$LT$impl$u20$serde_core..de..Deserialize$u20$for$u20$core..option..Option$LT$T$GT$$GT$11deserialize17hf6b8e929139fc1f2E', symObjAddr: 0x6A8, symBinAddr: 0x715C4, symSize: 0x700 }
  - { offset: 0x2C6C4D, size: 0x8, addend: 0x0, symName: '__ZN10serde_core2de5impls87_$LT$impl$u20$serde_core..de..Deserialize$u20$for$u20$core..option..Option$LT$T$GT$$GT$11deserialize17hff768f1c08bcade7E', symObjAddr: 0xDA8, symBinAddr: 0x71CC4, symSize: 0x104 }
  - { offset: 0x2C7825, size: 0x8, addend: 0x0, symName: '__ZN175_$LT$serde_json..value..de..$LT$impl$u20$serde_core..de..Deserialize$u20$for$u20$serde_json..value..Value$GT$..deserialize..ValueVisitor$u20$as$u20$serde_core..de..Visitor$GT$9visit_str17h3ff5a1ddb86c92e7E', symObjAddr: 0xEAC, symBinAddr: 0x71DC8, symSize: 0x128 }
  - { offset: 0x2C8B7B, size: 0x8, addend: 0x0, symName: __ZN4pyo310conversion12IntoPyObject28owned_sequence_into_pyobject17hd03a58e545219e2fE, symObjAddr: 0x1158, symBinAddr: 0x72074, symSize: 0x2C4 }
  - { offset: 0x2CB9A2, size: 0x8, addend: 0x0, symName: __ZN5tokio7runtime9scheduler14current_thread6Handle5spawn17h0d6ce2988dc1120aE, symObjAddr: 0x0, symBinAddr: 0x72338, symSize: 0xB0 }
  - { offset: 0x2DF4F5, size: 0x8, addend: 0x0, symName: __ZN5tokio7runtime9scheduler14current_thread6Handle5spawn17h0d6ce2988dc1120aE, symObjAddr: 0x0, symBinAddr: 0x72338, symSize: 0xB0 }
  - { offset: 0x2DF679, size: 0x8, addend: 0x0, symName: __ZN5tokio7runtime9scheduler14current_thread6Handle5spawn17h1a088a17e305598bE, symObjAddr: 0xB0, symBinAddr: 0x723E8, symSize: 0xB0 }
  - { offset: 0x2DF80A, size: 0x8, addend: 0x0, symName: __ZN5tokio7runtime9scheduler14current_thread6Handle5spawn17h3d2a5dce749234a7E, symObjAddr: 0x160, symBinAddr: 0x72498, symSize: 0xB0 }
  - { offset: 0x2DF98E, size: 0x8, addend: 0x0, symName: __ZN5tokio7runtime9scheduler14current_thread6Handle5spawn17h3f8b36ee97c5e9a4E, symObjAddr: 0x210, symBinAddr: 0x72548, symSize: 0xB0 }
  - { offset: 0x2DFB40, size: 0x8, addend: 0x0, symName: __ZN5tokio7runtime9scheduler14current_thread6Handle5spawn17h524b314d4518738dE, symObjAddr: 0x2C0, symBinAddr: 0x725F8, symSize: 0xB0 }
  - { offset: 0x2DFCC4, size: 0x8, addend: 0x0, symName: __ZN5tokio7runtime9scheduler14current_thread6Handle5spawn17h593483fb8fc1028fE, symObjAddr: 0x370, symBinAddr: 0x726A8, symSize: 0xB0 }
  - { offset: 0x2DFE48, size: 0x8, addend: 0x0, symName: __ZN5tokio7runtime9scheduler14current_thread6Handle5spawn17h6701b52f86a472e5E, symObjAddr: 0x420, symBinAddr: 0x72758, symSize: 0xB0 }
  - { offset: 0x2DFFCC, size: 0x8, addend: 0x0, symName: __ZN5tokio7runtime9scheduler14current_thread6Handle5spawn17h9349f85b9c0a2deeE, symObjAddr: 0x4D0, symBinAddr: 0x72808, symSize: 0xB0 }
  - { offset: 0x2E0150, size: 0x8, addend: 0x0, symName: __ZN5tokio7runtime9scheduler14current_thread6Handle5spawn17ha389dd8f111a75b1E, symObjAddr: 0x580, symBinAddr: 0x728B8, symSize: 0xB0 }
  - { offset: 0x2E02D4, size: 0x8, addend: 0x0, symName: __ZN5tokio7runtime9scheduler14current_thread6Handle5spawn17ha49f53e3fa8a493dE, symObjAddr: 0x630, symBinAddr: 0x72968, symSize: 0xB0 }
  - { offset: 0x2E0458, size: 0x8, addend: 0x0, symName: __ZN5tokio7runtime9scheduler14current_thread6Handle5spawn17hbb4ba3702b7d46b5E, symObjAddr: 0x6E0, symBinAddr: 0x72A18, symSize: 0xB0 }
  - { offset: 0x2E05DC, size: 0x8, addend: 0x0, symName: __ZN5tokio7runtime9scheduler14current_thread6Handle5spawn17hcfbe0bede744a9c5E, symObjAddr: 0x790, symBinAddr: 0x72AC8, symSize: 0xB0 }
  - { offset: 0x2E078E, size: 0x8, addend: 0x0, symName: __ZN5tokio7runtime9scheduler14current_thread6Handle5spawn17hec5250c63e1bb48bE, symObjAddr: 0x840, symBinAddr: 0x72B78, symSize: 0xB0 }
  - { offset: 0x2E0912, size: 0x8, addend: 0x0, symName: __ZN5tokio7runtime9scheduler14current_thread6Handle5spawn17hfef6ddec3ea512d7E, symObjAddr: 0x8F0, symBinAddr: 0x72C28, symSize: 0xB0 }
  - { offset: 0x2E0AA7, size: 0x8, addend: 0x0, symName: __ZN5tokio7runtime9scheduler12multi_thread6handle6Handle5spawn17h24d7ea1f7056a07aE, symObjAddr: 0x0, symBinAddr: 0x72CD8, symSize: 0xA0 }
  - { offset: 0x2F47E2, size: 0x8, addend: 0x0, symName: __ZN5tokio7runtime9scheduler12multi_thread6handle6Handle5spawn17h24d7ea1f7056a07aE, symObjAddr: 0x0, symBinAddr: 0x72CD8, symSize: 0xA0 }
  - { offset: 0x2F4A66, size: 0x8, addend: 0x0, symName: __ZN5tokio7runtime9scheduler12multi_thread6handle6Handle5spawn17h2d38f7823206f845E, symObjAddr: 0xA0, symBinAddr: 0x72D78, symSize: 0xA0 }
  - { offset: 0x2F4C24, size: 0x8, addend: 0x0, symName: __ZN5tokio7runtime9scheduler12multi_thread6handle6Handle5spawn17h2eb63d3d8395d494E, symObjAddr: 0x140, symBinAddr: 0x72E18, symSize: 0xA0 }
  - { offset: 0x2F4E10, size: 0x8, addend: 0x0, symName: __ZN5tokio7runtime9scheduler12multi_thread6handle6Handle5spawn17h316dc0283f3b7106E, symObjAddr: 0x1E0, symBinAddr: 0x72EB8, symSize: 0xA0 }
  - { offset: 0x2F4FCE, size: 0x8, addend: 0x0, symName: __ZN5tokio7runtime9scheduler12multi_thread6handle6Handle5spawn17h42a65a7274acd1d8E, symObjAddr: 0x280, symBinAddr: 0x72F58, symSize: 0xA0 }
  - { offset: 0x2F518C, size: 0x8, addend: 0x0, symName: __ZN5tokio7runtime9scheduler12multi_thread6handle6Handle5spawn17h4cba73b9a13e3a25E, symObjAddr: 0x320, symBinAddr: 0x72FF8, symSize: 0xA0 }
  - { offset: 0x2F534A, size: 0x8, addend: 0x0, symName: __ZN5tokio7runtime9scheduler12multi_thread6handle6Handle5spawn17h60033388e7bf0d9fE, symObjAddr: 0x3C0, symBinAddr: 0x73098, symSize: 0xA0 }
  - { offset: 0x2F5508, size: 0x8, addend: 0x0, symName: __ZN5tokio7runtime9scheduler12multi_thread6handle6Handle5spawn17h7339a7eb825acb0dE, symObjAddr: 0x460, symBinAddr: 0x73138, symSize: 0xA0 }
  - { offset: 0x2F56C6, size: 0x8, addend: 0x0, symName: __ZN5tokio7runtime9scheduler12multi_thread6handle6Handle5spawn17h930e6ec7e3f536b9E, symObjAddr: 0x500, symBinAddr: 0x731D8, symSize: 0xA0 }
  - { offset: 0x2F5884, size: 0x8, addend: 0x0, symName: __ZN5tokio7runtime9scheduler12multi_thread6handle6Handle5spawn17ha1f0521a00cdf655E, symObjAddr: 0x5A0, symBinAddr: 0x73278, symSize: 0xA0 }
  - { offset: 0x2F5A42, size: 0x8, addend: 0x0, symName: __ZN5tokio7runtime9scheduler12multi_thread6handle6Handle5spawn17hae0a298f2b81778aE, symObjAddr: 0x640, symBinAddr: 0x73318, symSize: 0xA0 }
  - { offset: 0x2F5C00, size: 0x8, addend: 0x0, symName: __ZN5tokio7runtime9scheduler12multi_thread6handle6Handle5spawn17hb1bc8e7bf1c77932E, symObjAddr: 0x6E0, symBinAddr: 0x733B8, symSize: 0xA0 }
  - { offset: 0x2F5DBE, size: 0x8, addend: 0x0, symName: __ZN5tokio7runtime9scheduler12multi_thread6handle6Handle5spawn17hcfe087a8829df6acE, symObjAddr: 0x780, symBinAddr: 0x73458, symSize: 0xA0 }
  - { offset: 0x2F5F7C, size: 0x8, addend: 0x0, symName: __ZN5tokio7runtime9scheduler12multi_thread6handle6Handle5spawn17hf8e3e68e986093f1E, symObjAddr: 0x820, symBinAddr: 0x734F8, symSize: 0xA0 }
  - { offset: 0x2F60ED, size: 0x8, addend: 0x0, symName: '__ZN4core3ptr130drop_in_place$LT$core..result..Result$LT$$LP$$RP$$C$alloc..boxed..Box$LT$dyn$u20$core..any..Any$u2b$core..marker..Send$GT$$GT$$GT$17h811ef5336b4b86feE', symObjAddr: 0x0, symBinAddr: 0x73598, symSize: 0xD4 }
  - { offset: 0x2F7603, size: 0x8, addend: 0x0, symName: '__ZN4core3ptr130drop_in_place$LT$core..result..Result$LT$$LP$$RP$$C$alloc..boxed..Box$LT$dyn$u20$core..any..Any$u2b$core..marker..Send$GT$$GT$$GT$17h811ef5336b4b86feE', symObjAddr: 0x0, symBinAddr: 0x73598, symSize: 0xD4 }
  - { offset: 0x30C857, size: 0x8, addend: 0x0, symName: '__ZN72_$LT$alloc..boxed..Box$LT$T$C$A$GT$$u20$as$u20$core..ops..drop..Drop$GT$4drop17h0369c2f3108b9113E', symObjAddr: 0xCCB4, symBinAddr: 0x7F13C, symSize: 0x80 }
  - { offset: 0x30C97D, size: 0x8, addend: 0x0, symName: '__ZN72_$LT$alloc..boxed..Box$LT$T$C$A$GT$$u20$as$u20$core..ops..drop..Drop$GT$4drop17h120a552859f8255eE', symObjAddr: 0xCD34, symBinAddr: 0x7F1BC, symSize: 0x80 }
  - { offset: 0x30CAA3, size: 0x8, addend: 0x0, symName: '__ZN72_$LT$alloc..boxed..Box$LT$T$C$A$GT$$u20$as$u20$core..ops..drop..Drop$GT$4drop17h1448f6eae6567878E', symObjAddr: 0xCDB4, symBinAddr: 0x7F23C, symSize: 0x80 }
  - { offset: 0x30CBC9, size: 0x8, addend: 0x0, symName: '__ZN72_$LT$alloc..boxed..Box$LT$T$C$A$GT$$u20$as$u20$core..ops..drop..Drop$GT$4drop17h170505cbd07599beE', symObjAddr: 0xCE34, symBinAddr: 0x7F2BC, symSize: 0x80 }
  - { offset: 0x30CCEF, size: 0x8, addend: 0x0, symName: '__ZN72_$LT$alloc..boxed..Box$LT$T$C$A$GT$$u20$as$u20$core..ops..drop..Drop$GT$4drop17h1ac29ef77b83c322E', symObjAddr: 0xCEB4, symBinAddr: 0x7F33C, symSize: 0x80 }
  - { offset: 0x30CE15, size: 0x8, addend: 0x0, symName: '__ZN72_$LT$alloc..boxed..Box$LT$T$C$A$GT$$u20$as$u20$core..ops..drop..Drop$GT$4drop17h249adfc2b8fc8810E', symObjAddr: 0xCF34, symBinAddr: 0x7F3BC, symSize: 0x80 }
  - { offset: 0x30CF3B, size: 0x8, addend: 0x0, symName: '__ZN72_$LT$alloc..boxed..Box$LT$T$C$A$GT$$u20$as$u20$core..ops..drop..Drop$GT$4drop17h32f330a7fd383d36E', symObjAddr: 0xCFB4, symBinAddr: 0x7F43C, symSize: 0x80 }
  - { offset: 0x30D061, size: 0x8, addend: 0x0, symName: '__ZN72_$LT$alloc..boxed..Box$LT$T$C$A$GT$$u20$as$u20$core..ops..drop..Drop$GT$4drop17h3467d94e71e40c9fE', symObjAddr: 0xD034, symBinAddr: 0x7F4BC, symSize: 0x80 }
  - { offset: 0x30D187, size: 0x8, addend: 0x0, symName: '__ZN72_$LT$alloc..boxed..Box$LT$T$C$A$GT$$u20$as$u20$core..ops..drop..Drop$GT$4drop17h3ebaed69ca35eb58E', symObjAddr: 0xD0B4, symBinAddr: 0x7F53C, symSize: 0x80 }
  - { offset: 0x30D2AD, size: 0x8, addend: 0x0, symName: '__ZN72_$LT$alloc..boxed..Box$LT$T$C$A$GT$$u20$as$u20$core..ops..drop..Drop$GT$4drop17h472e161cba766befE', symObjAddr: 0xD134, symBinAddr: 0x7F5BC, symSize: 0x80 }
  - { offset: 0x30D3D3, size: 0x8, addend: 0x0, symName: '__ZN72_$LT$alloc..boxed..Box$LT$T$C$A$GT$$u20$as$u20$core..ops..drop..Drop$GT$4drop17h5f6667b18c637329E', symObjAddr: 0xD1B4, symBinAddr: 0x7F63C, symSize: 0x80 }
  - { offset: 0x30D4F9, size: 0x8, addend: 0x0, symName: '__ZN72_$LT$alloc..boxed..Box$LT$T$C$A$GT$$u20$as$u20$core..ops..drop..Drop$GT$4drop17h6a13affb1b3569aaE', symObjAddr: 0xD234, symBinAddr: 0x7F6BC, symSize: 0x80 }
  - { offset: 0x30D61F, size: 0x8, addend: 0x0, symName: '__ZN72_$LT$alloc..boxed..Box$LT$T$C$A$GT$$u20$as$u20$core..ops..drop..Drop$GT$4drop17h8ad1412a6b375adfE', symObjAddr: 0xD2B4, symBinAddr: 0x7F73C, symSize: 0x80 }
  - { offset: 0x30D745, size: 0x8, addend: 0x0, symName: '__ZN72_$LT$alloc..boxed..Box$LT$T$C$A$GT$$u20$as$u20$core..ops..drop..Drop$GT$4drop17h9431e7d6e512b188E', symObjAddr: 0xD334, symBinAddr: 0x7F7BC, symSize: 0x80 }
  - { offset: 0x30D86B, size: 0x8, addend: 0x0, symName: '__ZN72_$LT$alloc..boxed..Box$LT$T$C$A$GT$$u20$as$u20$core..ops..drop..Drop$GT$4drop17h99fd7fad93a9d5cfE', symObjAddr: 0xD3B4, symBinAddr: 0x7F83C, symSize: 0x80 }
  - { offset: 0x30D991, size: 0x8, addend: 0x0, symName: '__ZN72_$LT$alloc..boxed..Box$LT$T$C$A$GT$$u20$as$u20$core..ops..drop..Drop$GT$4drop17h9a595919e3034b27E', symObjAddr: 0xD434, symBinAddr: 0x7F8BC, symSize: 0x80 }
  - { offset: 0x30DAB7, size: 0x8, addend: 0x0, symName: '__ZN72_$LT$alloc..boxed..Box$LT$T$C$A$GT$$u20$as$u20$core..ops..drop..Drop$GT$4drop17haae980ca47f26866E', symObjAddr: 0xD4B4, symBinAddr: 0x7F93C, symSize: 0x80 }
  - { offset: 0x30DBDD, size: 0x8, addend: 0x0, symName: '__ZN72_$LT$alloc..boxed..Box$LT$T$C$A$GT$$u20$as$u20$core..ops..drop..Drop$GT$4drop17hb24c42a874dd0f71E', symObjAddr: 0xD534, symBinAddr: 0x7F9BC, symSize: 0x80 }
  - { offset: 0x30DD03, size: 0x8, addend: 0x0, symName: '__ZN72_$LT$alloc..boxed..Box$LT$T$C$A$GT$$u20$as$u20$core..ops..drop..Drop$GT$4drop17hb38109ece1d9d096E', symObjAddr: 0xD5B4, symBinAddr: 0x7FA3C, symSize: 0x80 }
  - { offset: 0x30DE29, size: 0x8, addend: 0x0, symName: '__ZN72_$LT$alloc..boxed..Box$LT$T$C$A$GT$$u20$as$u20$core..ops..drop..Drop$GT$4drop17hb60ca242289334f6E', symObjAddr: 0xD634, symBinAddr: 0x7FABC, symSize: 0x80 }
  - { offset: 0x30DF4F, size: 0x8, addend: 0x0, symName: '__ZN72_$LT$alloc..boxed..Box$LT$T$C$A$GT$$u20$as$u20$core..ops..drop..Drop$GT$4drop17hb6203f0efc761563E', symObjAddr: 0xD6B4, symBinAddr: 0x7FB3C, symSize: 0x80 }
  - { offset: 0x30E075, size: 0x8, addend: 0x0, symName: '__ZN72_$LT$alloc..boxed..Box$LT$T$C$A$GT$$u20$as$u20$core..ops..drop..Drop$GT$4drop17hcb46f4bf4ceb8de4E', symObjAddr: 0xD734, symBinAddr: 0x7FBBC, symSize: 0xA4 }
  - { offset: 0x30E1B1, size: 0x8, addend: 0x0, symName: '__ZN72_$LT$alloc..boxed..Box$LT$T$C$A$GT$$u20$as$u20$core..ops..drop..Drop$GT$4drop17hd2676a779227390bE', symObjAddr: 0xD7D8, symBinAddr: 0x7FC60, symSize: 0x80 }
  - { offset: 0x30E2D7, size: 0x8, addend: 0x0, symName: '__ZN72_$LT$alloc..boxed..Box$LT$T$C$A$GT$$u20$as$u20$core..ops..drop..Drop$GT$4drop17hd53901699f7b1adaE', symObjAddr: 0xD858, symBinAddr: 0x7FCE0, symSize: 0x80 }
  - { offset: 0x30E3FD, size: 0x8, addend: 0x0, symName: '__ZN72_$LT$alloc..boxed..Box$LT$T$C$A$GT$$u20$as$u20$core..ops..drop..Drop$GT$4drop17hded485dd4c0021c2E', symObjAddr: 0xD8D8, symBinAddr: 0x7FD60, symSize: 0x80 }
  - { offset: 0x30E523, size: 0x8, addend: 0x0, symName: '__ZN72_$LT$alloc..boxed..Box$LT$T$C$A$GT$$u20$as$u20$core..ops..drop..Drop$GT$4drop17he3d07ea9ad2f504bE', symObjAddr: 0xD958, symBinAddr: 0x7FDE0, symSize: 0x80 }
  - { offset: 0x30E649, size: 0x8, addend: 0x0, symName: '__ZN72_$LT$alloc..boxed..Box$LT$T$C$A$GT$$u20$as$u20$core..ops..drop..Drop$GT$4drop17he8e0cd83026af09eE', symObjAddr: 0xD9D8, symBinAddr: 0x7FE60, symSize: 0x80 }
  - { offset: 0x30E76F, size: 0x8, addend: 0x0, symName: '__ZN72_$LT$alloc..boxed..Box$LT$T$C$A$GT$$u20$as$u20$core..ops..drop..Drop$GT$4drop17hf01f8d9475d30f3aE', symObjAddr: 0xDA58, symBinAddr: 0x7FEE0, symSize: 0x80 }
  - { offset: 0x30E895, size: 0x8, addend: 0x0, symName: '__ZN72_$LT$alloc..boxed..Box$LT$T$C$A$GT$$u20$as$u20$core..ops..drop..Drop$GT$4drop17hfec0c4f659efa567E', symObjAddr: 0xDAD8, symBinAddr: 0x7FF60, symSize: 0x80 }
  - { offset: 0x317D14, size: 0x8, addend: 0x0, symName: '__ZN5tokio7runtime4task7harness20Harness$LT$T$C$S$GT$15try_read_output17h0fdb58469daebb51E', symObjAddr: 0xA04, symBinAddr: 0x7366C, symSize: 0x114 }
  - { offset: 0x317E92, size: 0x8, addend: 0x0, symName: '__ZN5tokio7runtime4task7harness20Harness$LT$T$C$S$GT$15try_read_output17h2a430a1af25e4e6fE', symObjAddr: 0xB18, symBinAddr: 0x73780, symSize: 0x114 }
  - { offset: 0x318010, size: 0x8, addend: 0x0, symName: '__ZN5tokio7runtime4task7harness20Harness$LT$T$C$S$GT$15try_read_output17h353d0ae6f0bca8b2E', symObjAddr: 0xC2C, symBinAddr: 0x73894, symSize: 0x114 }
  - { offset: 0x31818E, size: 0x8, addend: 0x0, symName: '__ZN5tokio7runtime4task7harness20Harness$LT$T$C$S$GT$15try_read_output17h44216e30d21fe7f6E', symObjAddr: 0xD40, symBinAddr: 0x739A8, symSize: 0x114 }
  - { offset: 0x31830C, size: 0x8, addend: 0x0, symName: '__ZN5tokio7runtime4task7harness20Harness$LT$T$C$S$GT$15try_read_output17h46f9e51391271aa5E', symObjAddr: 0xE54, symBinAddr: 0x73ABC, symSize: 0x114 }
  - { offset: 0x31848A, size: 0x8, addend: 0x0, symName: '__ZN5tokio7runtime4task7harness20Harness$LT$T$C$S$GT$15try_read_output17h5404db77aea7e5a7E', symObjAddr: 0xF68, symBinAddr: 0x73BD0, symSize: 0x114 }
  - { offset: 0x318608, size: 0x8, addend: 0x0, symName: '__ZN5tokio7runtime4task7harness20Harness$LT$T$C$S$GT$15try_read_output17h5a512c7e2762d839E', symObjAddr: 0x107C, symBinAddr: 0x73CE4, symSize: 0x114 }
  - { offset: 0x318786, size: 0x8, addend: 0x0, symName: '__ZN5tokio7runtime4task7harness20Harness$LT$T$C$S$GT$15try_read_output17h63ac3103f30f1ccbE', symObjAddr: 0x1190, symBinAddr: 0x73DF8, symSize: 0x114 }
  - { offset: 0x318904, size: 0x8, addend: 0x0, symName: '__ZN5tokio7runtime4task7harness20Harness$LT$T$C$S$GT$15try_read_output17h69fa49fc06726d8dE', symObjAddr: 0x12A4, symBinAddr: 0x73F0C, symSize: 0x114 }
  - { offset: 0x318A82, size: 0x8, addend: 0x0, symName: '__ZN5tokio7runtime4task7harness20Harness$LT$T$C$S$GT$15try_read_output17h71e491861277f205E', symObjAddr: 0x13B8, symBinAddr: 0x74020, symSize: 0x114 }
  - { offset: 0x318C00, size: 0x8, addend: 0x0, symName: '__ZN5tokio7runtime4task7harness20Harness$LT$T$C$S$GT$15try_read_output17h7be9a0a86613cdd1E', symObjAddr: 0x14CC, symBinAddr: 0x74134, symSize: 0x114 }
  - { offset: 0x318D71, size: 0x8, addend: 0x0, symName: '__ZN5tokio7runtime4task7harness20Harness$LT$T$C$S$GT$15try_read_output17h91403143c6387ae0E', symObjAddr: 0x15E0, symBinAddr: 0x74248, symSize: 0x114 }
  - { offset: 0x318EEF, size: 0x8, addend: 0x0, symName: '__ZN5tokio7runtime4task7harness20Harness$LT$T$C$S$GT$15try_read_output17h9c2dc8684be71866E', symObjAddr: 0x16F4, symBinAddr: 0x7435C, symSize: 0x114 }
  - { offset: 0x319060, size: 0x8, addend: 0x0, symName: '__ZN5tokio7runtime4task7harness20Harness$LT$T$C$S$GT$15try_read_output17ha33b7a50d5bdcfb6E', symObjAddr: 0x1808, symBinAddr: 0x74470, symSize: 0x114 }
  - { offset: 0x3191DE, size: 0x8, addend: 0x0, symName: '__ZN5tokio7runtime4task7harness20Harness$LT$T$C$S$GT$15try_read_output17hab6a67ed691c52faE', symObjAddr: 0x191C, symBinAddr: 0x74584, symSize: 0x114 }
  - { offset: 0x31934F, size: 0x8, addend: 0x0, symName: '__ZN5tokio7runtime4task7harness20Harness$LT$T$C$S$GT$15try_read_output17hb9009d6820eeb0c8E', symObjAddr: 0x1A30, symBinAddr: 0x74698, symSize: 0x114 }
  - { offset: 0x3194C0, size: 0x8, addend: 0x0, symName: '__ZN5tokio7runtime4task7harness20Harness$LT$T$C$S$GT$15try_read_output17hbb4bf95b6315f38cE', symObjAddr: 0x1B44, symBinAddr: 0x747AC, symSize: 0x114 }
  - { offset: 0x31963E, size: 0x8, addend: 0x0, symName: '__ZN5tokio7runtime4task7harness20Harness$LT$T$C$S$GT$15try_read_output17hbb8ee3b6f57ef2deE', symObjAddr: 0x1C58, symBinAddr: 0x748C0, symSize: 0x114 }
  - { offset: 0x3197AF, size: 0x8, addend: 0x0, symName: '__ZN5tokio7runtime4task7harness20Harness$LT$T$C$S$GT$15try_read_output17hbe2392b555ff2bc7E', symObjAddr: 0x1D6C, symBinAddr: 0x749D4, symSize: 0x114 }
  - { offset: 0x319920, size: 0x8, addend: 0x0, symName: '__ZN5tokio7runtime4task7harness20Harness$LT$T$C$S$GT$15try_read_output17hbfcdcf2027d85f8cE', symObjAddr: 0x1E80, symBinAddr: 0x74AE8, symSize: 0x114 }
  - { offset: 0x319A91, size: 0x8, addend: 0x0, symName: '__ZN5tokio7runtime4task7harness20Harness$LT$T$C$S$GT$15try_read_output17hc35f2f43a0976ac1E', symObjAddr: 0x1F94, symBinAddr: 0x74BFC, symSize: 0x114 }
  - { offset: 0x319C02, size: 0x8, addend: 0x0, symName: '__ZN5tokio7runtime4task7harness20Harness$LT$T$C$S$GT$15try_read_output17hcb3d5974389d0da9E', symObjAddr: 0x20A8, symBinAddr: 0x74D10, symSize: 0x114 }
  - { offset: 0x319D73, size: 0x8, addend: 0x0, symName: '__ZN5tokio7runtime4task7harness20Harness$LT$T$C$S$GT$15try_read_output17hcd84c0fa7ba36a9aE', symObjAddr: 0x21BC, symBinAddr: 0x74E24, symSize: 0x114 }
  - { offset: 0x319EE4, size: 0x8, addend: 0x0, symName: '__ZN5tokio7runtime4task7harness20Harness$LT$T$C$S$GT$15try_read_output17hd46e502f1bc26d5eE', symObjAddr: 0x22D0, symBinAddr: 0x74F38, symSize: 0x114 }
  - { offset: 0x31A055, size: 0x8, addend: 0x0, symName: '__ZN5tokio7runtime4task7harness20Harness$LT$T$C$S$GT$15try_read_output17hdd9ac60e661ec7b6E', symObjAddr: 0x23E4, symBinAddr: 0x7504C, symSize: 0x114 }
  - { offset: 0x31A1C6, size: 0x8, addend: 0x0, symName: '__ZN5tokio7runtime4task7harness20Harness$LT$T$C$S$GT$15try_read_output17hee458881c18a5a32E', symObjAddr: 0x24F8, symBinAddr: 0x75160, symSize: 0x114 }
  - { offset: 0x31A337, size: 0x8, addend: 0x0, symName: '__ZN5tokio7runtime4task7harness20Harness$LT$T$C$S$GT$15try_read_output17hfa46e943ef2ea93dE', symObjAddr: 0x260C, symBinAddr: 0x75274, symSize: 0x114 }
  - { offset: 0x31A4A8, size: 0x8, addend: 0x0, symName: '__ZN5tokio7runtime4task7harness20Harness$LT$T$C$S$GT$15try_read_output17hffa53733fd8fff85E', symObjAddr: 0x2720, symBinAddr: 0x75388, symSize: 0x114 }
  - { offset: 0x31A666, size: 0x8, addend: 0x0, symName: '__ZN5tokio7runtime4task7harness20Harness$LT$T$C$S$GT$21drop_join_handle_slow17h091b89080392c1e3E', symObjAddr: 0x2834, symBinAddr: 0x7549C, symSize: 0xDC }
  - { offset: 0x31A8E1, size: 0x8, addend: 0x0, symName: '__ZN5tokio7runtime4task7harness20Harness$LT$T$C$S$GT$21drop_join_handle_slow17h0b879e9dab2a9a64E', symObjAddr: 0x2910, symBinAddr: 0x75578, symSize: 0xDC }
  - { offset: 0x31AB5C, size: 0x8, addend: 0x0, symName: '__ZN5tokio7runtime4task7harness20Harness$LT$T$C$S$GT$21drop_join_handle_slow17h1ad003aea95489f4E', symObjAddr: 0x29EC, symBinAddr: 0x75654, symSize: 0xDC }
  - { offset: 0x31ADD7, size: 0x8, addend: 0x0, symName: '__ZN5tokio7runtime4task7harness20Harness$LT$T$C$S$GT$21drop_join_handle_slow17h33667d35940b5aeeE', symObjAddr: 0x2AC8, symBinAddr: 0x75730, symSize: 0xDC }
  - { offset: 0x31B052, size: 0x8, addend: 0x0, symName: '__ZN5tokio7runtime4task7harness20Harness$LT$T$C$S$GT$21drop_join_handle_slow17h41cb4efd1e5213a1E', symObjAddr: 0x2BA4, symBinAddr: 0x7580C, symSize: 0xDC }
  - { offset: 0x31B2CD, size: 0x8, addend: 0x0, symName: '__ZN5tokio7runtime4task7harness20Harness$LT$T$C$S$GT$21drop_join_handle_slow17h44b50984aea9aa55E', symObjAddr: 0x2C80, symBinAddr: 0x758E8, symSize: 0xDC }
  - { offset: 0x31B548, size: 0x8, addend: 0x0, symName: '__ZN5tokio7runtime4task7harness20Harness$LT$T$C$S$GT$21drop_join_handle_slow17h53c6ea19dd3625c1E', symObjAddr: 0x2D5C, symBinAddr: 0x759C4, symSize: 0xDC }
  - { offset: 0x31B7C3, size: 0x8, addend: 0x0, symName: '__ZN5tokio7runtime4task7harness20Harness$LT$T$C$S$GT$21drop_join_handle_slow17h5656a56b09d6433aE', symObjAddr: 0x2E38, symBinAddr: 0x75AA0, symSize: 0xDC }
  - { offset: 0x31BA3E, size: 0x8, addend: 0x0, symName: '__ZN5tokio7runtime4task7harness20Harness$LT$T$C$S$GT$21drop_join_handle_slow17h5727a139da17b143E', symObjAddr: 0x2F14, symBinAddr: 0x75B7C, symSize: 0xDC }
  - { offset: 0x31BCB9, size: 0x8, addend: 0x0, symName: '__ZN5tokio7runtime4task7harness20Harness$LT$T$C$S$GT$21drop_join_handle_slow17h669472a9f3f6377bE', symObjAddr: 0x2FF0, symBinAddr: 0x75C58, symSize: 0xDC }
  - { offset: 0x31BF34, size: 0x8, addend: 0x0, symName: '__ZN5tokio7runtime4task7harness20Harness$LT$T$C$S$GT$21drop_join_handle_slow17h7ac174c16eb701a7E', symObjAddr: 0x30CC, symBinAddr: 0x75D34, symSize: 0xDC }
  - { offset: 0x31C1AF, size: 0x8, addend: 0x0, symName: '__ZN5tokio7runtime4task7harness20Harness$LT$T$C$S$GT$21drop_join_handle_slow17h7f2b9bc328e6c851E', symObjAddr: 0x31A8, symBinAddr: 0x75E10, symSize: 0xDC }
  - { offset: 0x31C42A, size: 0x8, addend: 0x0, symName: '__ZN5tokio7runtime4task7harness20Harness$LT$T$C$S$GT$21drop_join_handle_slow17h880222ea00fe6280E', symObjAddr: 0x3284, symBinAddr: 0x75EEC, symSize: 0xDC }
  - { offset: 0x31C6A5, size: 0x8, addend: 0x0, symName: '__ZN5tokio7runtime4task7harness20Harness$LT$T$C$S$GT$21drop_join_handle_slow17h8c960c0522f484a1E', symObjAddr: 0x3360, symBinAddr: 0x75FC8, symSize: 0xDC }
  - { offset: 0x31C920, size: 0x8, addend: 0x0, symName: '__ZN5tokio7runtime4task7harness20Harness$LT$T$C$S$GT$21drop_join_handle_slow17h8e73586ce9f747d1E', symObjAddr: 0x343C, symBinAddr: 0x760A4, symSize: 0xDC }
  - { offset: 0x31CB9B, size: 0x8, addend: 0x0, symName: '__ZN5tokio7runtime4task7harness20Harness$LT$T$C$S$GT$21drop_join_handle_slow17h9bf0af6150f6e3cdE', symObjAddr: 0x3518, symBinAddr: 0x76180, symSize: 0xDC }
  - { offset: 0x31CE16, size: 0x8, addend: 0x0, symName: '__ZN5tokio7runtime4task7harness20Harness$LT$T$C$S$GT$21drop_join_handle_slow17ha15c8a8e40764f39E', symObjAddr: 0x35F4, symBinAddr: 0x7625C, symSize: 0xDC }
  - { offset: 0x31D091, size: 0x8, addend: 0x0, symName: '__ZN5tokio7runtime4task7harness20Harness$LT$T$C$S$GT$21drop_join_handle_slow17ha78bca7e0484aeb1E', symObjAddr: 0x36D0, symBinAddr: 0x76338, symSize: 0xDC }
  - { offset: 0x31D30C, size: 0x8, addend: 0x0, symName: '__ZN5tokio7runtime4task7harness20Harness$LT$T$C$S$GT$21drop_join_handle_slow17ha916dcb7d8549349E', symObjAddr: 0x37AC, symBinAddr: 0x76414, symSize: 0xDC }
  - { offset: 0x31D587, size: 0x8, addend: 0x0, symName: '__ZN5tokio7runtime4task7harness20Harness$LT$T$C$S$GT$21drop_join_handle_slow17hab7fd935624a1755E', symObjAddr: 0x3888, symBinAddr: 0x764F0, symSize: 0xDC }
  - { offset: 0x31D802, size: 0x8, addend: 0x0, symName: '__ZN5tokio7runtime4task7harness20Harness$LT$T$C$S$GT$21drop_join_handle_slow17haca8b4f1757fa127E', symObjAddr: 0x3964, symBinAddr: 0x765CC, symSize: 0xDC }
  - { offset: 0x31DA7D, size: 0x8, addend: 0x0, symName: '__ZN5tokio7runtime4task7harness20Harness$LT$T$C$S$GT$21drop_join_handle_slow17hba11efa512ba8b1fE', symObjAddr: 0x3A40, symBinAddr: 0x766A8, symSize: 0xDC }
  - { offset: 0x31DCF8, size: 0x8, addend: 0x0, symName: '__ZN5tokio7runtime4task7harness20Harness$LT$T$C$S$GT$21drop_join_handle_slow17hbc52daee54beeb7eE', symObjAddr: 0x3B1C, symBinAddr: 0x76784, symSize: 0xDC }
  - { offset: 0x31DF73, size: 0x8, addend: 0x0, symName: '__ZN5tokio7runtime4task7harness20Harness$LT$T$C$S$GT$21drop_join_handle_slow17hbe708706f2030e1dE', symObjAddr: 0x3BF8, symBinAddr: 0x76860, symSize: 0xDC }
  - { offset: 0x31E1EE, size: 0x8, addend: 0x0, symName: '__ZN5tokio7runtime4task7harness20Harness$LT$T$C$S$GT$21drop_join_handle_slow17hc4a7ae260054d258E', symObjAddr: 0x3CD4, symBinAddr: 0x7693C, symSize: 0xDC }
  - { offset: 0x31E469, size: 0x8, addend: 0x0, symName: '__ZN5tokio7runtime4task7harness20Harness$LT$T$C$S$GT$21drop_join_handle_slow17hdf54caf4f8fe104dE', symObjAddr: 0x3DB0, symBinAddr: 0x76A18, symSize: 0xDC }
  - { offset: 0x31E6E4, size: 0x8, addend: 0x0, symName: '__ZN5tokio7runtime4task7harness20Harness$LT$T$C$S$GT$21drop_join_handle_slow17he558f4c12fe4b989E', symObjAddr: 0x3E8C, symBinAddr: 0x76AF4, symSize: 0xDC }
  - { offset: 0x31E95F, size: 0x8, addend: 0x0, symName: '__ZN5tokio7runtime4task7harness20Harness$LT$T$C$S$GT$21drop_join_handle_slow17hf472ca53255d57f8E', symObjAddr: 0x3F68, symBinAddr: 0x76BD0, symSize: 0xDC }
  - { offset: 0x31EC5C, size: 0x8, addend: 0x0, symName: '__ZN5tokio7runtime4task7harness20Harness$LT$T$C$S$GT$4poll17h0234b3238f0d0ebbE', symObjAddr: 0x4194, symBinAddr: 0x76CAC, symSize: 0x280 }
  - { offset: 0x31F2A7, size: 0x8, addend: 0x0, symName: '__ZN5tokio7runtime4task7harness20Harness$LT$T$C$S$GT$4poll17h03893130b4150b62E', symObjAddr: 0x4414, symBinAddr: 0x76F2C, symSize: 0x280 }
  - { offset: 0x31F8F2, size: 0x8, addend: 0x0, symName: '__ZN5tokio7runtime4task7harness20Harness$LT$T$C$S$GT$4poll17h0bd872cc3f78c8efE', symObjAddr: 0x4694, symBinAddr: 0x771AC, symSize: 0x280 }
  - { offset: 0x31FF5B, size: 0x8, addend: 0x0, symName: '__ZN5tokio7runtime4task7harness20Harness$LT$T$C$S$GT$4poll17h12f66e84c1b2456eE', symObjAddr: 0x4914, symBinAddr: 0x7742C, symSize: 0x280 }
  - { offset: 0x3205A6, size: 0x8, addend: 0x0, symName: '__ZN5tokio7runtime4task7harness20Harness$LT$T$C$S$GT$4poll17h1a7a68cdfe837b7bE', symObjAddr: 0x4B94, symBinAddr: 0x776AC, symSize: 0x280 }
  - { offset: 0x320BF1, size: 0x8, addend: 0x0, symName: '__ZN5tokio7runtime4task7harness20Harness$LT$T$C$S$GT$4poll17h1aab32d0e2765bfcE', symObjAddr: 0x4E14, symBinAddr: 0x7792C, symSize: 0x280 }
  - { offset: 0x32123C, size: 0x8, addend: 0x0, symName: '__ZN5tokio7runtime4task7harness20Harness$LT$T$C$S$GT$4poll17h1cf42123cf40a878E', symObjAddr: 0x5094, symBinAddr: 0x77BAC, symSize: 0x280 }
  - { offset: 0x321887, size: 0x8, addend: 0x0, symName: '__ZN5tokio7runtime4task7harness20Harness$LT$T$C$S$GT$4poll17h22b197713252b2c7E', symObjAddr: 0x5314, symBinAddr: 0x77E2C, symSize: 0x280 }
  - { offset: 0x321ED2, size: 0x8, addend: 0x0, symName: '__ZN5tokio7runtime4task7harness20Harness$LT$T$C$S$GT$4poll17h23a71c9954debf5dE', symObjAddr: 0x5594, symBinAddr: 0x780AC, symSize: 0x280 }
  - { offset: 0x32251D, size: 0x8, addend: 0x0, symName: '__ZN5tokio7runtime4task7harness20Harness$LT$T$C$S$GT$4poll17h2eada38547636ecfE', symObjAddr: 0x5814, symBinAddr: 0x7832C, symSize: 0x280 }
  - { offset: 0x322B68, size: 0x8, addend: 0x0, symName: '__ZN5tokio7runtime4task7harness20Harness$LT$T$C$S$GT$4poll17h4dc198e3989f77b5E', symObjAddr: 0x5A94, symBinAddr: 0x785AC, symSize: 0x280 }
  - { offset: 0x3231B3, size: 0x8, addend: 0x0, symName: '__ZN5tokio7runtime4task7harness20Harness$LT$T$C$S$GT$4poll17h5a72a185b0619f9cE', symObjAddr: 0x5D14, symBinAddr: 0x7882C, symSize: 0x280 }
  - { offset: 0x3237FE, size: 0x8, addend: 0x0, symName: '__ZN5tokio7runtime4task7harness20Harness$LT$T$C$S$GT$4poll17h5da2a9d15ea5fe2cE', symObjAddr: 0x5F94, symBinAddr: 0x78AAC, symSize: 0x280 }
  - { offset: 0x323E49, size: 0x8, addend: 0x0, symName: '__ZN5tokio7runtime4task7harness20Harness$LT$T$C$S$GT$4poll17h604dbec9055f098fE', symObjAddr: 0x6214, symBinAddr: 0x78D2C, symSize: 0x280 }
  - { offset: 0x324494, size: 0x8, addend: 0x0, symName: '__ZN5tokio7runtime4task7harness20Harness$LT$T$C$S$GT$4poll17h6212ec0c8a70d0a4E', symObjAddr: 0x6494, symBinAddr: 0x78FAC, symSize: 0x280 }
  - { offset: 0x324ADF, size: 0x8, addend: 0x0, symName: '__ZN5tokio7runtime4task7harness20Harness$LT$T$C$S$GT$4poll17h72a12cb9d8756e6fE', symObjAddr: 0x6714, symBinAddr: 0x7922C, symSize: 0x280 }
  - { offset: 0x32512A, size: 0x8, addend: 0x0, symName: '__ZN5tokio7runtime4task7harness20Harness$LT$T$C$S$GT$4poll17h7d209d4fc3c221a9E', symObjAddr: 0x6994, symBinAddr: 0x794AC, symSize: 0x280 }
  - { offset: 0x325775, size: 0x8, addend: 0x0, symName: '__ZN5tokio7runtime4task7harness20Harness$LT$T$C$S$GT$4poll17h7d367c043f214726E', symObjAddr: 0x6C14, symBinAddr: 0x7972C, symSize: 0x280 }
  - { offset: 0x325DC0, size: 0x8, addend: 0x0, symName: '__ZN5tokio7runtime4task7harness20Harness$LT$T$C$S$GT$4poll17h8446e47ab1ec74a0E', symObjAddr: 0x6E94, symBinAddr: 0x799AC, symSize: 0x280 }
  - { offset: 0x32640B, size: 0x8, addend: 0x0, symName: '__ZN5tokio7runtime4task7harness20Harness$LT$T$C$S$GT$4poll17h8c6a098ae07c902eE', symObjAddr: 0x7114, symBinAddr: 0x79C2C, symSize: 0x280 }
  - { offset: 0x326A56, size: 0x8, addend: 0x0, symName: '__ZN5tokio7runtime4task7harness20Harness$LT$T$C$S$GT$4poll17ha39029b081845252E', symObjAddr: 0x7394, symBinAddr: 0x79EAC, symSize: 0x280 }
  - { offset: 0x3270A1, size: 0x8, addend: 0x0, symName: '__ZN5tokio7runtime4task7harness20Harness$LT$T$C$S$GT$4poll17hb1c8eadbb5ad4f2fE', symObjAddr: 0x7614, symBinAddr: 0x7A12C, symSize: 0x280 }
  - { offset: 0x3276EC, size: 0x8, addend: 0x0, symName: '__ZN5tokio7runtime4task7harness20Harness$LT$T$C$S$GT$4poll17hbd5bcb010e77a49cE', symObjAddr: 0x7894, symBinAddr: 0x7A3AC, symSize: 0x280 }
  - { offset: 0x327D37, size: 0x8, addend: 0x0, symName: '__ZN5tokio7runtime4task7harness20Harness$LT$T$C$S$GT$4poll17hcb3499f86cc17955E', symObjAddr: 0x7B14, symBinAddr: 0x7A62C, symSize: 0x280 }
  - { offset: 0x328382, size: 0x8, addend: 0x0, symName: '__ZN5tokio7runtime4task7harness20Harness$LT$T$C$S$GT$4poll17hdbcc0dee31147d1bE', symObjAddr: 0x7D94, symBinAddr: 0x7A8AC, symSize: 0x280 }
  - { offset: 0x3289CD, size: 0x8, addend: 0x0, symName: '__ZN5tokio7runtime4task7harness20Harness$LT$T$C$S$GT$4poll17he5358f20d7e14655E', symObjAddr: 0x8014, symBinAddr: 0x7AB2C, symSize: 0x280 }
  - { offset: 0x329018, size: 0x8, addend: 0x0, symName: '__ZN5tokio7runtime4task7harness20Harness$LT$T$C$S$GT$4poll17hf3669b7af553b936E', symObjAddr: 0x8294, symBinAddr: 0x7ADAC, symSize: 0x280 }
  - { offset: 0x329663, size: 0x8, addend: 0x0, symName: '__ZN5tokio7runtime4task7harness20Harness$LT$T$C$S$GT$4poll17hf6db14b105356dbdE', symObjAddr: 0x8514, symBinAddr: 0x7B02C, symSize: 0x280 }
  - { offset: 0x32A088, size: 0x8, addend: 0x0, symName: '__ZN5tokio7runtime4task7harness20Harness$LT$T$C$S$GT$7dealloc17h01f908adad1c07ffE', symObjAddr: 0x8C64, symBinAddr: 0x7B2AC, symSize: 0x9C }
  - { offset: 0x32A2A4, size: 0x8, addend: 0x0, symName: '__ZN5tokio7runtime4task7harness20Harness$LT$T$C$S$GT$7dealloc17h112b33e3d42c680fE', symObjAddr: 0x8D00, symBinAddr: 0x7B348, symSize: 0x9C }
  - { offset: 0x32A4C0, size: 0x8, addend: 0x0, symName: '__ZN5tokio7runtime4task7harness20Harness$LT$T$C$S$GT$7dealloc17h14d04ed4072079a0E', symObjAddr: 0x8D9C, symBinAddr: 0x7B3E4, symSize: 0x9C }
  - { offset: 0x32A6DC, size: 0x8, addend: 0x0, symName: '__ZN5tokio7runtime4task7harness20Harness$LT$T$C$S$GT$7dealloc17h2718fda48c691061E', symObjAddr: 0x8E38, symBinAddr: 0x7B480, symSize: 0x9C }
  - { offset: 0x32A8F8, size: 0x8, addend: 0x0, symName: '__ZN5tokio7runtime4task7harness20Harness$LT$T$C$S$GT$7dealloc17h30859831e7b97e26E', symObjAddr: 0x8ED4, symBinAddr: 0x7B51C, symSize: 0x9C }
  - { offset: 0x32AB14, size: 0x8, addend: 0x0, symName: '__ZN5tokio7runtime4task7harness20Harness$LT$T$C$S$GT$7dealloc17h3dfd8afb1bdc7b84E', symObjAddr: 0x8F70, symBinAddr: 0x7B5B8, symSize: 0x9C }
  - { offset: 0x32AD30, size: 0x8, addend: 0x0, symName: '__ZN5tokio7runtime4task7harness20Harness$LT$T$C$S$GT$7dealloc17h53129eac4f656cecE', symObjAddr: 0x900C, symBinAddr: 0x7B654, symSize: 0x9C }
  - { offset: 0x32AF4C, size: 0x8, addend: 0x0, symName: '__ZN5tokio7runtime4task7harness20Harness$LT$T$C$S$GT$7dealloc17h6d563d0fcfaeea02E', symObjAddr: 0x90A8, symBinAddr: 0x7B6F0, symSize: 0x9C }
  - { offset: 0x32B168, size: 0x8, addend: 0x0, symName: '__ZN5tokio7runtime4task7harness20Harness$LT$T$C$S$GT$7dealloc17h6d728b3cd3407ca0E', symObjAddr: 0x9144, symBinAddr: 0x7B78C, symSize: 0x9C }
  - { offset: 0x32B384, size: 0x8, addend: 0x0, symName: '__ZN5tokio7runtime4task7harness20Harness$LT$T$C$S$GT$7dealloc17h7011e68dc6ea7434E', symObjAddr: 0x91E0, symBinAddr: 0x7B828, symSize: 0x9C }
  - { offset: 0x32B5A0, size: 0x8, addend: 0x0, symName: '__ZN5tokio7runtime4task7harness20Harness$LT$T$C$S$GT$7dealloc17h7e956d9869d1cc5eE', symObjAddr: 0x927C, symBinAddr: 0x7B8C4, symSize: 0x9C }
  - { offset: 0x32B7BC, size: 0x8, addend: 0x0, symName: '__ZN5tokio7runtime4task7harness20Harness$LT$T$C$S$GT$7dealloc17h8934cd59122c2e9dE', symObjAddr: 0x9318, symBinAddr: 0x7B960, symSize: 0x9C }
  - { offset: 0x32B9D8, size: 0x8, addend: 0x0, symName: '__ZN5tokio7runtime4task7harness20Harness$LT$T$C$S$GT$7dealloc17h8aff20e6dbc741ccE', symObjAddr: 0x93B4, symBinAddr: 0x7B9FC, symSize: 0x9C }
  - { offset: 0x32BBF4, size: 0x8, addend: 0x0, symName: '__ZN5tokio7runtime4task7harness20Harness$LT$T$C$S$GT$7dealloc17h8b3bb52e3bfab170E', symObjAddr: 0x9450, symBinAddr: 0x7BA98, symSize: 0x9C }
  - { offset: 0x32BE10, size: 0x8, addend: 0x0, symName: '__ZN5tokio7runtime4task7harness20Harness$LT$T$C$S$GT$7dealloc17h9840f3def9d4490fE', symObjAddr: 0x94EC, symBinAddr: 0x7BB34, symSize: 0x9C }
  - { offset: 0x32C02C, size: 0x8, addend: 0x0, symName: '__ZN5tokio7runtime4task7harness20Harness$LT$T$C$S$GT$7dealloc17h98482854b75ab78aE', symObjAddr: 0x9588, symBinAddr: 0x7BBD0, symSize: 0x9C }
  - { offset: 0x32C248, size: 0x8, addend: 0x0, symName: '__ZN5tokio7runtime4task7harness20Harness$LT$T$C$S$GT$7dealloc17haf7ae29c116398a6E', symObjAddr: 0x9624, symBinAddr: 0x7BC6C, symSize: 0x9C }
  - { offset: 0x32C464, size: 0x8, addend: 0x0, symName: '__ZN5tokio7runtime4task7harness20Harness$LT$T$C$S$GT$7dealloc17hb6f3f7e97acc9622E', symObjAddr: 0x96C0, symBinAddr: 0x7BD08, symSize: 0x9C }
  - { offset: 0x32C680, size: 0x8, addend: 0x0, symName: '__ZN5tokio7runtime4task7harness20Harness$LT$T$C$S$GT$7dealloc17hb7fbf8ddf24856f7E', symObjAddr: 0x975C, symBinAddr: 0x7BDA4, symSize: 0x9C }
  - { offset: 0x32C89C, size: 0x8, addend: 0x0, symName: '__ZN5tokio7runtime4task7harness20Harness$LT$T$C$S$GT$7dealloc17hca8d7734771813c7E', symObjAddr: 0x97F8, symBinAddr: 0x7BE40, symSize: 0x9C }
  - { offset: 0x32CAB8, size: 0x8, addend: 0x0, symName: '__ZN5tokio7runtime4task7harness20Harness$LT$T$C$S$GT$7dealloc17hcaf00692be4adec3E', symObjAddr: 0x9894, symBinAddr: 0x7BEDC, symSize: 0x9C }
  - { offset: 0x32CCD4, size: 0x8, addend: 0x0, symName: '__ZN5tokio7runtime4task7harness20Harness$LT$T$C$S$GT$7dealloc17hd175c88473b6615aE', symObjAddr: 0x9930, symBinAddr: 0x7BF78, symSize: 0x9C }
  - { offset: 0x32CEF0, size: 0x8, addend: 0x0, symName: '__ZN5tokio7runtime4task7harness20Harness$LT$T$C$S$GT$7dealloc17hd7d3fdf5078eab25E', symObjAddr: 0x99CC, symBinAddr: 0x7C014, symSize: 0x9C }
  - { offset: 0x32D10C, size: 0x8, addend: 0x0, symName: '__ZN5tokio7runtime4task7harness20Harness$LT$T$C$S$GT$7dealloc17hd94b13e4877c8d4bE', symObjAddr: 0x9A68, symBinAddr: 0x7C0B0, symSize: 0x9C }
  - { offset: 0x32D328, size: 0x8, addend: 0x0, symName: '__ZN5tokio7runtime4task7harness20Harness$LT$T$C$S$GT$7dealloc17hddf0216310a7502cE', symObjAddr: 0x9B04, symBinAddr: 0x7C14C, symSize: 0x9C }
  - { offset: 0x32D544, size: 0x8, addend: 0x0, symName: '__ZN5tokio7runtime4task7harness20Harness$LT$T$C$S$GT$7dealloc17heef22d0f9ee247b5E', symObjAddr: 0x9BA0, symBinAddr: 0x7C1E8, symSize: 0x9C }
  - { offset: 0x32D760, size: 0x8, addend: 0x0, symName: '__ZN5tokio7runtime4task7harness20Harness$LT$T$C$S$GT$7dealloc17hf060b92fbe00a2aeE', symObjAddr: 0x9C3C, symBinAddr: 0x7C284, symSize: 0x9C }
  - { offset: 0x32D97C, size: 0x8, addend: 0x0, symName: '__ZN5tokio7runtime4task7harness20Harness$LT$T$C$S$GT$7dealloc17hff1399d9e058633bE', symObjAddr: 0x9CD8, symBinAddr: 0x7C320, symSize: 0x9C }
  - { offset: 0x32DB62, size: 0x8, addend: 0x0, symName: '__ZN5tokio7runtime4task7harness20Harness$LT$T$C$S$GT$8complete17h03071fdb58d26823E', symObjAddr: 0x9EC4, symBinAddr: 0x7C3BC, symSize: 0xC0 }
  - { offset: 0x32DCE3, size: 0x8, addend: 0x0, symName: '__ZN5tokio7runtime4task7harness20Harness$LT$T$C$S$GT$8complete17h05e813f1eaf60810E', symObjAddr: 0x9F84, symBinAddr: 0x7C47C, symSize: 0xC0 }
  - { offset: 0x32DE64, size: 0x8, addend: 0x0, symName: '__ZN5tokio7runtime4task7harness20Harness$LT$T$C$S$GT$8complete17h0aa957b4ac6e157aE', symObjAddr: 0xA044, symBinAddr: 0x7C53C, symSize: 0xC0 }
  - { offset: 0x32DFE5, size: 0x8, addend: 0x0, symName: '__ZN5tokio7runtime4task7harness20Harness$LT$T$C$S$GT$8complete17h16d78264abb79bf9E', symObjAddr: 0xA104, symBinAddr: 0x7C5FC, symSize: 0xC0 }
  - { offset: 0x32E166, size: 0x8, addend: 0x0, symName: '__ZN5tokio7runtime4task7harness20Harness$LT$T$C$S$GT$8complete17h17641e3ad37e1189E', symObjAddr: 0xA1C4, symBinAddr: 0x7C6BC, symSize: 0xC0 }
  - { offset: 0x32E2E7, size: 0x8, addend: 0x0, symName: '__ZN5tokio7runtime4task7harness20Harness$LT$T$C$S$GT$8complete17h183f74c52484231bE', symObjAddr: 0xA284, symBinAddr: 0x7C77C, symSize: 0xC0 }
  - { offset: 0x32E468, size: 0x8, addend: 0x0, symName: '__ZN5tokio7runtime4task7harness20Harness$LT$T$C$S$GT$8complete17h4a44796fc0942a83E', symObjAddr: 0xA344, symBinAddr: 0x7C83C, symSize: 0xC0 }
  - { offset: 0x32E5E9, size: 0x8, addend: 0x0, symName: '__ZN5tokio7runtime4task7harness20Harness$LT$T$C$S$GT$8complete17h4abcd1a90bf7c35eE', symObjAddr: 0xA404, symBinAddr: 0x7C8FC, symSize: 0xC0 }
  - { offset: 0x32E76A, size: 0x8, addend: 0x0, symName: '__ZN5tokio7runtime4task7harness20Harness$LT$T$C$S$GT$8complete17h4d91c2ea9d1361beE', symObjAddr: 0xA4C4, symBinAddr: 0x7C9BC, symSize: 0xC0 }
  - { offset: 0x32E8EB, size: 0x8, addend: 0x0, symName: '__ZN5tokio7runtime4task7harness20Harness$LT$T$C$S$GT$8complete17h503479f9ab56778aE', symObjAddr: 0xA584, symBinAddr: 0x7CA7C, symSize: 0xC0 }
  - { offset: 0x32EA6C, size: 0x8, addend: 0x0, symName: '__ZN5tokio7runtime4task7harness20Harness$LT$T$C$S$GT$8complete17h56018b60637b166aE', symObjAddr: 0xA644, symBinAddr: 0x7CB3C, symSize: 0xC0 }
  - { offset: 0x32EBED, size: 0x8, addend: 0x0, symName: '__ZN5tokio7runtime4task7harness20Harness$LT$T$C$S$GT$8complete17h5ab4d477346f99b2E', symObjAddr: 0xA704, symBinAddr: 0x7CBFC, symSize: 0xC0 }
  - { offset: 0x32ED6E, size: 0x8, addend: 0x0, symName: '__ZN5tokio7runtime4task7harness20Harness$LT$T$C$S$GT$8complete17h5c79f75ea6422bedE', symObjAddr: 0xA7C4, symBinAddr: 0x7CCBC, symSize: 0xC0 }
  - { offset: 0x32EEEF, size: 0x8, addend: 0x0, symName: '__ZN5tokio7runtime4task7harness20Harness$LT$T$C$S$GT$8complete17h5d82e8d3eb700affE', symObjAddr: 0xA884, symBinAddr: 0x7CD7C, symSize: 0xC0 }
  - { offset: 0x32F070, size: 0x8, addend: 0x0, symName: '__ZN5tokio7runtime4task7harness20Harness$LT$T$C$S$GT$8complete17h62e34a324074c037E', symObjAddr: 0xA944, symBinAddr: 0x7CE3C, symSize: 0xC0 }
  - { offset: 0x32F1F1, size: 0x8, addend: 0x0, symName: '__ZN5tokio7runtime4task7harness20Harness$LT$T$C$S$GT$8complete17h739981e9018b3353E', symObjAddr: 0xAA04, symBinAddr: 0x7CEFC, symSize: 0xC0 }
  - { offset: 0x32F372, size: 0x8, addend: 0x0, symName: '__ZN5tokio7runtime4task7harness20Harness$LT$T$C$S$GT$8complete17h86c80a0f09c51813E', symObjAddr: 0xAAC4, symBinAddr: 0x7CFBC, symSize: 0xC0 }
  - { offset: 0x32F4F3, size: 0x8, addend: 0x0, symName: '__ZN5tokio7runtime4task7harness20Harness$LT$T$C$S$GT$8complete17h917446d9c36a6013E', symObjAddr: 0xAB84, symBinAddr: 0x7D07C, symSize: 0xC0 }
  - { offset: 0x32F674, size: 0x8, addend: 0x0, symName: '__ZN5tokio7runtime4task7harness20Harness$LT$T$C$S$GT$8complete17h93efed208c5440e5E', symObjAddr: 0xAC44, symBinAddr: 0x7D13C, symSize: 0xC0 }
  - { offset: 0x32F7F5, size: 0x8, addend: 0x0, symName: '__ZN5tokio7runtime4task7harness20Harness$LT$T$C$S$GT$8complete17hac77e0a88c0a0864E', symObjAddr: 0xAD04, symBinAddr: 0x7D1FC, symSize: 0xC0 }
  - { offset: 0x32F976, size: 0x8, addend: 0x0, symName: '__ZN5tokio7runtime4task7harness20Harness$LT$T$C$S$GT$8complete17hadd8e6c044ea180aE', symObjAddr: 0xADC4, symBinAddr: 0x7D2BC, symSize: 0xC0 }
  - { offset: 0x32FAF7, size: 0x8, addend: 0x0, symName: '__ZN5tokio7runtime4task7harness20Harness$LT$T$C$S$GT$8complete17hb0522d8675551f50E', symObjAddr: 0xAE84, symBinAddr: 0x7D37C, symSize: 0xC0 }
  - { offset: 0x32FC78, size: 0x8, addend: 0x0, symName: '__ZN5tokio7runtime4task7harness20Harness$LT$T$C$S$GT$8complete17hbf2bb63af66a8c85E', symObjAddr: 0xAF44, symBinAddr: 0x7D43C, symSize: 0xC0 }
  - { offset: 0x32FDF9, size: 0x8, addend: 0x0, symName: '__ZN5tokio7runtime4task7harness20Harness$LT$T$C$S$GT$8complete17hc255416eaffdaa4aE', symObjAddr: 0xB004, symBinAddr: 0x7D4FC, symSize: 0xC0 }
  - { offset: 0x32FF7A, size: 0x8, addend: 0x0, symName: '__ZN5tokio7runtime4task7harness20Harness$LT$T$C$S$GT$8complete17hccb635035df1dc3cE', symObjAddr: 0xB0C4, symBinAddr: 0x7D5BC, symSize: 0xC0 }
  - { offset: 0x3300FB, size: 0x8, addend: 0x0, symName: '__ZN5tokio7runtime4task7harness20Harness$LT$T$C$S$GT$8complete17hd64fff67085f85a9E', symObjAddr: 0xB184, symBinAddr: 0x7D67C, symSize: 0xC0 }
  - { offset: 0x33027C, size: 0x8, addend: 0x0, symName: '__ZN5tokio7runtime4task7harness20Harness$LT$T$C$S$GT$8complete17he466dc68540ecabaE', symObjAddr: 0xB244, symBinAddr: 0x7D73C, symSize: 0xC0 }
  - { offset: 0x3303FD, size: 0x8, addend: 0x0, symName: '__ZN5tokio7runtime4task7harness20Harness$LT$T$C$S$GT$8complete17hf76eea85edeb9ec3E', symObjAddr: 0xB304, symBinAddr: 0x7D7FC, symSize: 0xC0 }
  - { offset: 0x33053B, size: 0x8, addend: 0x0, symName: '__ZN5tokio7runtime4task7harness20Harness$LT$T$C$S$GT$8shutdown17h06e4732c6e0d61d5E', symObjAddr: 0xB434, symBinAddr: 0x7D8BC, symSize: 0xE0 }
  - { offset: 0x3306E1, size: 0x8, addend: 0x0, symName: '__ZN5tokio7runtime4task7harness20Harness$LT$T$C$S$GT$8shutdown17h2d0f47138eed7394E', symObjAddr: 0xB514, symBinAddr: 0x7D99C, symSize: 0xE0 }
  - { offset: 0x330887, size: 0x8, addend: 0x0, symName: '__ZN5tokio7runtime4task7harness20Harness$LT$T$C$S$GT$8shutdown17h3264a2d3cfd7ded3E', symObjAddr: 0xB5F4, symBinAddr: 0x7DA7C, symSize: 0xE0 }
  - { offset: 0x330A2D, size: 0x8, addend: 0x0, symName: '__ZN5tokio7runtime4task7harness20Harness$LT$T$C$S$GT$8shutdown17h386d4a807699fe81E', symObjAddr: 0xB6D4, symBinAddr: 0x7DB5C, symSize: 0xE0 }
  - { offset: 0x330BD3, size: 0x8, addend: 0x0, symName: '__ZN5tokio7runtime4task7harness20Harness$LT$T$C$S$GT$8shutdown17h557e41954b4e68a5E', symObjAddr: 0xB7B4, symBinAddr: 0x7DC3C, symSize: 0xE0 }
  - { offset: 0x330D79, size: 0x8, addend: 0x0, symName: '__ZN5tokio7runtime4task7harness20Harness$LT$T$C$S$GT$8shutdown17h562cad9fc18cd91aE', symObjAddr: 0xB894, symBinAddr: 0x7DD1C, symSize: 0xE0 }
  - { offset: 0x330F1F, size: 0x8, addend: 0x0, symName: '__ZN5tokio7runtime4task7harness20Harness$LT$T$C$S$GT$8shutdown17h5bb124d4866b9bdbE', symObjAddr: 0xB974, symBinAddr: 0x7DDFC, symSize: 0xE0 }
  - { offset: 0x3310C5, size: 0x8, addend: 0x0, symName: '__ZN5tokio7runtime4task7harness20Harness$LT$T$C$S$GT$8shutdown17h74c6adef0759e757E', symObjAddr: 0xBA54, symBinAddr: 0x7DEDC, symSize: 0xE0 }
  - { offset: 0x33126B, size: 0x8, addend: 0x0, symName: '__ZN5tokio7runtime4task7harness20Harness$LT$T$C$S$GT$8shutdown17h819173be75acf858E', symObjAddr: 0xBB34, symBinAddr: 0x7DFBC, symSize: 0xE0 }
  - { offset: 0x331411, size: 0x8, addend: 0x0, symName: '__ZN5tokio7runtime4task7harness20Harness$LT$T$C$S$GT$8shutdown17h8196d0aa59def9edE', symObjAddr: 0xBC14, symBinAddr: 0x7E09C, symSize: 0xE0 }
  - { offset: 0x3315B7, size: 0x8, addend: 0x0, symName: '__ZN5tokio7runtime4task7harness20Harness$LT$T$C$S$GT$8shutdown17h955577ecae17ccddE', symObjAddr: 0xBCF4, symBinAddr: 0x7E17C, symSize: 0xE0 }
  - { offset: 0x33175D, size: 0x8, addend: 0x0, symName: '__ZN5tokio7runtime4task7harness20Harness$LT$T$C$S$GT$8shutdown17h95e026b011014568E', symObjAddr: 0xBDD4, symBinAddr: 0x7E25C, symSize: 0xE0 }
  - { offset: 0x331903, size: 0x8, addend: 0x0, symName: '__ZN5tokio7runtime4task7harness20Harness$LT$T$C$S$GT$8shutdown17h9b53dcd5fca8131fE', symObjAddr: 0xBEB4, symBinAddr: 0x7E33C, symSize: 0xE0 }
  - { offset: 0x331AA9, size: 0x8, addend: 0x0, symName: '__ZN5tokio7runtime4task7harness20Harness$LT$T$C$S$GT$8shutdown17ha24b88cd19093683E', symObjAddr: 0xBF94, symBinAddr: 0x7E41C, symSize: 0xE0 }
  - { offset: 0x331C4F, size: 0x8, addend: 0x0, symName: '__ZN5tokio7runtime4task7harness20Harness$LT$T$C$S$GT$8shutdown17ha2e0847e34afb752E', symObjAddr: 0xC074, symBinAddr: 0x7E4FC, symSize: 0xE0 }
  - { offset: 0x331DF5, size: 0x8, addend: 0x0, symName: '__ZN5tokio7runtime4task7harness20Harness$LT$T$C$S$GT$8shutdown17hb579af4b5e681dbdE', symObjAddr: 0xC154, symBinAddr: 0x7E5DC, symSize: 0xE0 }
  - { offset: 0x331F9B, size: 0x8, addend: 0x0, symName: '__ZN5tokio7runtime4task7harness20Harness$LT$T$C$S$GT$8shutdown17hc15f323310a6bf86E', symObjAddr: 0xC234, symBinAddr: 0x7E6BC, symSize: 0xE0 }
  - { offset: 0x332141, size: 0x8, addend: 0x0, symName: '__ZN5tokio7runtime4task7harness20Harness$LT$T$C$S$GT$8shutdown17hc26248540a2d7d51E', symObjAddr: 0xC314, symBinAddr: 0x7E79C, symSize: 0xE0 }
  - { offset: 0x3322E7, size: 0x8, addend: 0x0, symName: '__ZN5tokio7runtime4task7harness20Harness$LT$T$C$S$GT$8shutdown17hc49ec111bff3de30E', symObjAddr: 0xC3F4, symBinAddr: 0x7E87C, symSize: 0xE0 }
  - { offset: 0x33248D, size: 0x8, addend: 0x0, symName: '__ZN5tokio7runtime4task7harness20Harness$LT$T$C$S$GT$8shutdown17hc655416d825b97d2E', symObjAddr: 0xC4D4, symBinAddr: 0x7E95C, symSize: 0xE0 }
